
main:     file format elf64-littleriscv


Disassembly of section .text:

ffffffc050300000 <_start>:
ffffffc050300000:	10401073          	csrw	sie,zero
ffffffc050300004:	14401073          	csrw	sip,zero
ffffffc050300008:	6299                	lui	t0,0x6
ffffffc05030000a:	1002b073          	csrc	sstatus,t0
ffffffc05030000e:	000402b7          	lui	t0,0x40
ffffffc050300012:	1002a073          	csrs	sstatus,t0
ffffffc050300016:	00038197          	auipc	gp,0x38
ffffffc05030001a:	cc218193          	addi	gp,gp,-830 # ffffffc050337cd8 <__global_pointer$>
ffffffc05030001e:	f1402573          	csrr	a0,mhartid
ffffffc050300022:	e90d                	bnez	a0,ffffffc050300054 <slave_core>
ffffffc050300024:	86818693          	addi	a3,gp,-1944 # ffffffc050337540 <_edata>
ffffffc050300028:	00049717          	auipc	a4,0x49
ffffffc05030002c:	00870713          	addi	a4,a4,8 # ffffffc050349030 <__BSS_END__>
ffffffc050300030:	00e6d763          	bge	a3,a4,ffffffc05030003e <clear_bss_done>

ffffffc050300034 <clear_bss>:
ffffffc050300034:	0006b023          	sd	zero,0(a3)
ffffffc050300038:	06a1                	addi	a3,a3,8
ffffffc05030003a:	fee6cde3          	blt	a3,a4,ffffffc050300034 <clear_bss>

ffffffc05030003e <clear_bss_done>:
ffffffc05030003e:	0000c217          	auipc	tp,0xc
ffffffc050300042:	c3a20213          	addi	tp,tp,-966 # ffffffc05030bc78 <pid0_pcb_m>
ffffffc050300046:	00037117          	auipc	sp,0x37
ffffffc05030004a:	49a13103          	ld	sp,1178(sp) # ffffffc0503374e0 <pid0_stack_m>
ffffffc05030004e:	14001073          	csrw	sscratch,zero
ffffffc050300052:	a819                	j	ffffffc050300068 <all>

ffffffc050300054 <slave_core>:
ffffffc050300054:	0000c217          	auipc	tp,0xc
ffffffc050300058:	d1420213          	addi	tp,tp,-748 # ffffffc05030bd68 <pid0_pcb_s>
ffffffc05030005c:	00037117          	auipc	sp,0x37
ffffffc050300060:	48c13103          	ld	sp,1164(sp) # ffffffc0503374e8 <pid0_stack_s>
ffffffc050300064:	14001073          	csrw	sscratch,zero

ffffffc050300068 <all>:
ffffffc050300068:	385000ef          	jal	ra,ffffffc050300bec <main>

ffffffc05030006c <loop>:
ffffffc05030006c:	10500073          	wfi
ffffffc050300070:	bff5                	j	ffffffc05030006c <loop>
	...

ffffffc050300074 <setup_exception>:
ffffffc050300074:	00000297          	auipc	t0,0x0
ffffffc050300078:	0f428293          	addi	t0,t0,244 # ffffffc050300168 <exception_handler_entry>
ffffffc05030007c:	10529073          	csrw	stvec,t0
ffffffc050300080:	22000293          	li	t0,544
ffffffc050300084:	10429073          	csrw	sie,t0
ffffffc050300088:	8082                	ret
ffffffc05030008a:	0001                	nop

ffffffc05030008c <read_sip>:
ffffffc05030008c:	14402573          	csrr	a0,sip
ffffffc050300090:	8082                	ret
	...

ffffffc050300094 <enable_preempt>:
ffffffc050300094:	8082                	ret
ffffffc050300096:	0001                	nop

ffffffc050300098 <disable_preempt>:
ffffffc050300098:	8082                	ret
ffffffc05030009a:	0001                	nop

ffffffc05030009c <enable_interrupt>:
ffffffc05030009c:	4289                	li	t0,2
ffffffc05030009e:	00040337          	lui	t1,0x40
ffffffc0503000a2:	0062e2b3          	or	t0,t0,t1
ffffffc0503000a6:	1002a073          	csrs	sstatus,t0
ffffffc0503000aa:	8082                	ret

ffffffc0503000ac <disable_interrupt>:
ffffffc0503000ac:	4289                	li	t0,2
ffffffc0503000ae:	00040337          	lui	t1,0x40
ffffffc0503000b2:	0062e2b3          	or	t0,t0,t1
ffffffc0503000b6:	1002a073          	csrs	sstatus,t0
ffffffc0503000ba:	8082                	ret

ffffffc0503000bc <switch_to>:
ffffffc0503000bc:	7159                	addi	sp,sp,-112
ffffffc0503000be:	e006                	sd	ra,0(sp)
ffffffc0503000c0:	e40a                	sd	sp,8(sp)
ffffffc0503000c2:	e822                	sd	s0,16(sp)
ffffffc0503000c4:	ec26                	sd	s1,24(sp)
ffffffc0503000c6:	f04a                	sd	s2,32(sp)
ffffffc0503000c8:	f44e                	sd	s3,40(sp)
ffffffc0503000ca:	f852                	sd	s4,48(sp)
ffffffc0503000cc:	fc56                	sd	s5,56(sp)
ffffffc0503000ce:	e0da                	sd	s6,64(sp)
ffffffc0503000d0:	e4de                	sd	s7,72(sp)
ffffffc0503000d2:	e8e2                	sd	s8,80(sp)
ffffffc0503000d4:	ece6                	sd	s9,88(sp)
ffffffc0503000d6:	f0ea                	sd	s10,96(sp)
ffffffc0503000d8:	f4ee                	sd	s11,104(sp)
ffffffc0503000da:	00253023          	sd	sp,0(a0)
ffffffc0503000de:	0005b103          	ld	sp,0(a1)
ffffffc0503000e2:	6082                	ld	ra,0(sp)
ffffffc0503000e4:	6442                	ld	s0,16(sp)
ffffffc0503000e6:	64e2                	ld	s1,24(sp)
ffffffc0503000e8:	7902                	ld	s2,32(sp)
ffffffc0503000ea:	79a2                	ld	s3,40(sp)
ffffffc0503000ec:	7a42                	ld	s4,48(sp)
ffffffc0503000ee:	7ae2                	ld	s5,56(sp)
ffffffc0503000f0:	6b06                	ld	s6,64(sp)
ffffffc0503000f2:	6ba6                	ld	s7,72(sp)
ffffffc0503000f4:	6c46                	ld	s8,80(sp)
ffffffc0503000f6:	6ce6                	ld	s9,88(sp)
ffffffc0503000f8:	7d06                	ld	s10,96(sp)
ffffffc0503000fa:	7da6                	ld	s11,104(sp)
ffffffc0503000fc:	6165                	addi	sp,sp,112
ffffffc0503000fe:	822e                	mv	tp,a1
ffffffc050300100:	8082                	ret
ffffffc050300102:	0001                	nop

ffffffc050300104 <ret_from_exception>:
ffffffc050300104:	14021073          	csrw	sscratch,tp
ffffffc050300108:	2a1090ef          	jal	ra,ffffffc050309ba8 <unlock_kernel>
ffffffc05030010c:	12010293          	addi	t0,sp,288
ffffffc050300110:	00523023          	sd	t0,0(tp) # 0 <_start-0xffffffc050300000>
ffffffc050300114:	6292                	ld	t0,256(sp)
ffffffc050300116:	10029073          	csrw	sstatus,t0
ffffffc05030011a:	62b2                	ld	t0,264(sp)
ffffffc05030011c:	14129073          	csrw	sepc,t0
ffffffc050300120:	00013003          	ld	zero,0(sp)
ffffffc050300124:	60a2                	ld	ra,8(sp)
ffffffc050300126:	61e2                	ld	gp,24(sp)
ffffffc050300128:	72a2                	ld	t0,40(sp)
ffffffc05030012a:	7342                	ld	t1,48(sp)
ffffffc05030012c:	73e2                	ld	t2,56(sp)
ffffffc05030012e:	6406                	ld	s0,64(sp)
ffffffc050300130:	64a6                	ld	s1,72(sp)
ffffffc050300132:	6546                	ld	a0,80(sp)
ffffffc050300134:	65e6                	ld	a1,88(sp)
ffffffc050300136:	7606                	ld	a2,96(sp)
ffffffc050300138:	76a6                	ld	a3,104(sp)
ffffffc05030013a:	7746                	ld	a4,112(sp)
ffffffc05030013c:	77e6                	ld	a5,120(sp)
ffffffc05030013e:	680a                	ld	a6,128(sp)
ffffffc050300140:	68aa                	ld	a7,136(sp)
ffffffc050300142:	694a                	ld	s2,144(sp)
ffffffc050300144:	69ea                	ld	s3,152(sp)
ffffffc050300146:	7a0a                	ld	s4,160(sp)
ffffffc050300148:	7aaa                	ld	s5,168(sp)
ffffffc05030014a:	7b4a                	ld	s6,176(sp)
ffffffc05030014c:	7bea                	ld	s7,184(sp)
ffffffc05030014e:	6c0e                	ld	s8,192(sp)
ffffffc050300150:	6cae                	ld	s9,200(sp)
ffffffc050300152:	6d4e                	ld	s10,208(sp)
ffffffc050300154:	6dee                	ld	s11,216(sp)
ffffffc050300156:	7e0e                	ld	t3,224(sp)
ffffffc050300158:	7eae                	ld	t4,232(sp)
ffffffc05030015a:	7f4e                	ld	t5,240(sp)
ffffffc05030015c:	7fee                	ld	t6,248(sp)
ffffffc05030015e:	7202                	ld	tp,32(sp)
ffffffc050300160:	6142                	ld	sp,16(sp)
ffffffc050300162:	10200073          	sret
ffffffc050300166:	0001                	nop

ffffffc050300168 <exception_handler_entry>:
ffffffc050300168:	14021273          	csrrw	tp,sscratch,tp
ffffffc05030016c:	00021663          	bnez	tp,ffffffc050300178 <_save_context>

ffffffc050300170 <_restore_kernel_tpsp>:
ffffffc050300170:	14002273          	csrr	tp,sscratch
ffffffc050300174:	00223023          	sd	sp,0(tp) # 0 <_start-0xffffffc050300000>

ffffffc050300178 <_save_context>:
ffffffc050300178:	00223423          	sd	sp,8(tp) # 8 <_start-0xffffffc0502ffff8>
ffffffc05030017c:	00023103          	ld	sp,0(tp) # 0 <_start-0xffffffc050300000>
ffffffc050300180:	712d                	addi	sp,sp,-288
ffffffc050300182:	e002                	sd	zero,0(sp)
ffffffc050300184:	e406                	sd	ra,8(sp)
ffffffc050300186:	ec0e                	sd	gp,24(sp)
ffffffc050300188:	f416                	sd	t0,40(sp)
ffffffc05030018a:	f81a                	sd	t1,48(sp)
ffffffc05030018c:	fc1e                	sd	t2,56(sp)
ffffffc05030018e:	e0a2                	sd	s0,64(sp)
ffffffc050300190:	e4a6                	sd	s1,72(sp)
ffffffc050300192:	e8aa                	sd	a0,80(sp)
ffffffc050300194:	ecae                	sd	a1,88(sp)
ffffffc050300196:	f0b2                	sd	a2,96(sp)
ffffffc050300198:	f4b6                	sd	a3,104(sp)
ffffffc05030019a:	f8ba                	sd	a4,112(sp)
ffffffc05030019c:	fcbe                	sd	a5,120(sp)
ffffffc05030019e:	e142                	sd	a6,128(sp)
ffffffc0503001a0:	e546                	sd	a7,136(sp)
ffffffc0503001a2:	e94a                	sd	s2,144(sp)
ffffffc0503001a4:	ed4e                	sd	s3,152(sp)
ffffffc0503001a6:	f152                	sd	s4,160(sp)
ffffffc0503001a8:	f556                	sd	s5,168(sp)
ffffffc0503001aa:	f95a                	sd	s6,176(sp)
ffffffc0503001ac:	fd5e                	sd	s7,184(sp)
ffffffc0503001ae:	e1e2                	sd	s8,192(sp)
ffffffc0503001b0:	e5e6                	sd	s9,200(sp)
ffffffc0503001b2:	e9ea                	sd	s10,208(sp)
ffffffc0503001b4:	edee                	sd	s11,216(sp)
ffffffc0503001b6:	f1f2                	sd	t3,224(sp)
ffffffc0503001b8:	f5f6                	sd	t4,232(sp)
ffffffc0503001ba:	f9fa                	sd	t5,240(sp)
ffffffc0503001bc:	fdfe                	sd	t6,248(sp)
ffffffc0503001be:	00823283          	ld	t0,8(tp) # 8 <_start-0xffffffc0502ffff8>
ffffffc0503001c2:	e816                	sd	t0,16(sp)
ffffffc0503001c4:	000462b7          	lui	t0,0x46
ffffffc0503001c8:	100022f3          	csrr	t0,sstatus
ffffffc0503001cc:	e216                	sd	t0,256(sp)
ffffffc0503001ce:	141022f3          	csrr	t0,sepc
ffffffc0503001d2:	e616                	sd	t0,264(sp)
ffffffc0503001d4:	143022f3          	csrr	t0,stval
ffffffc0503001d8:	ea16                	sd	t0,272(sp)
ffffffc0503001da:	142022f3          	csrr	t0,scause
ffffffc0503001de:	ee16                	sd	t0,280(sp)
ffffffc0503001e0:	140022f3          	csrr	t0,sscratch
ffffffc0503001e4:	f016                	sd	t0,32(sp)
ffffffc0503001e6:	14001073          	csrw	sscratch,zero
ffffffc0503001ea:	00038197          	auipc	gp,0x38
ffffffc0503001ee:	aee18193          	addi	gp,gp,-1298 # ffffffc050337cd8 <__global_pointer$>
ffffffc0503001f2:	1a9090ef          	jal	ra,ffffffc050309b9a <lock_kernel>
ffffffc0503001f6:	00000097          	auipc	ra,0x0
ffffffc0503001fa:	f0e08093          	addi	ra,ra,-242 # ffffffc050300104 <ret_from_exception>
ffffffc0503001fe:	850a                	mv	a0,sp
ffffffc050300200:	143025f3          	csrr	a1,stval
ffffffc050300204:	14202673          	csrr	a2,scause
ffffffc050300208:	00001297          	auipc	t0,0x1
ffffffc05030020c:	e9c28293          	addi	t0,t0,-356 # ffffffc0503010a4 <interrupt_helper>
ffffffc050300210:	8282                	jr	t0

ffffffc050300212 <sbi_console_putstr>:
ffffffc050300212:	1101                	addi	sp,sp,-32
ffffffc050300214:	ec22                	sd	s0,24(sp)
ffffffc050300216:	1000                	addi	s0,sp,32
ffffffc050300218:	fea43423          	sd	a0,-24(s0)
ffffffc05030021c:	a839                	j	ffffffc05030023a <sbi_console_putstr+0x28>
ffffffc05030021e:	fe843783          	ld	a5,-24(s0)
ffffffc050300222:	00178713          	addi	a4,a5,1
ffffffc050300226:	fee43423          	sd	a4,-24(s0)
ffffffc05030022a:	0007c783          	lbu	a5,0(a5)
ffffffc05030022e:	853e                	mv	a0,a5
ffffffc050300230:	4581                	li	a1,0
ffffffc050300232:	4601                	li	a2,0
ffffffc050300234:	4885                	li	a7,1
ffffffc050300236:	00000073          	ecall
ffffffc05030023a:	fe843783          	ld	a5,-24(s0)
ffffffc05030023e:	0007c783          	lbu	a5,0(a5)
ffffffc050300242:	fff1                	bnez	a5,ffffffc05030021e <sbi_console_putstr+0xc>
ffffffc050300244:	0001                	nop
ffffffc050300246:	0001                	nop
ffffffc050300248:	6462                	ld	s0,24(sp)
ffffffc05030024a:	6105                	addi	sp,sp,32
ffffffc05030024c:	8082                	ret

ffffffc05030024e <sbi_console_putchar>:
ffffffc05030024e:	1101                	addi	sp,sp,-32
ffffffc050300250:	ec22                	sd	s0,24(sp)
ffffffc050300252:	1000                	addi	s0,sp,32
ffffffc050300254:	87aa                	mv	a5,a0
ffffffc050300256:	fef42623          	sw	a5,-20(s0)
ffffffc05030025a:	fec42783          	lw	a5,-20(s0)
ffffffc05030025e:	853e                	mv	a0,a5
ffffffc050300260:	4581                	li	a1,0
ffffffc050300262:	4601                	li	a2,0
ffffffc050300264:	4885                	li	a7,1
ffffffc050300266:	00000073          	ecall
ffffffc05030026a:	0001                	nop
ffffffc05030026c:	6462                	ld	s0,24(sp)
ffffffc05030026e:	6105                	addi	sp,sp,32
ffffffc050300270:	8082                	ret

ffffffc050300272 <port_write_ch>:
ffffffc050300272:	1101                	addi	sp,sp,-32
ffffffc050300274:	ec06                	sd	ra,24(sp)
ffffffc050300276:	e822                	sd	s0,16(sp)
ffffffc050300278:	1000                	addi	s0,sp,32
ffffffc05030027a:	87aa                	mv	a5,a0
ffffffc05030027c:	fef407a3          	sb	a5,-17(s0)
ffffffc050300280:	fef44783          	lbu	a5,-17(s0)
ffffffc050300284:	2781                	sext.w	a5,a5
ffffffc050300286:	853e                	mv	a0,a5
ffffffc050300288:	fc7ff0ef          	jal	ra,ffffffc05030024e <sbi_console_putchar>
ffffffc05030028c:	0001                	nop
ffffffc05030028e:	60e2                	ld	ra,24(sp)
ffffffc050300290:	6442                	ld	s0,16(sp)
ffffffc050300292:	6105                	addi	sp,sp,32
ffffffc050300294:	8082                	ret

ffffffc050300296 <port_write>:
ffffffc050300296:	1101                	addi	sp,sp,-32
ffffffc050300298:	ec06                	sd	ra,24(sp)
ffffffc05030029a:	e822                	sd	s0,16(sp)
ffffffc05030029c:	1000                	addi	s0,sp,32
ffffffc05030029e:	fea43423          	sd	a0,-24(s0)
ffffffc0503002a2:	fe843503          	ld	a0,-24(s0)
ffffffc0503002a6:	f6dff0ef          	jal	ra,ffffffc050300212 <sbi_console_putstr>
ffffffc0503002aa:	0001                	nop
ffffffc0503002ac:	60e2                	ld	ra,24(sp)
ffffffc0503002ae:	6442                	ld	s0,16(sp)
ffffffc0503002b0:	6105                	addi	sp,sp,32
ffffffc0503002b2:	8082                	ret

ffffffc0503002b4 <get_current_cpu_id>:
ffffffc0503002b4:	f1402573          	csrr	a0,mhartid
ffffffc0503002b8:	8082                	ret

ffffffc0503002ba <init_list_head>:
ffffffc0503002ba:	1101                	addi	sp,sp,-32
ffffffc0503002bc:	ec22                	sd	s0,24(sp)
ffffffc0503002be:	1000                	addi	s0,sp,32
ffffffc0503002c0:	fea43423          	sd	a0,-24(s0)
ffffffc0503002c4:	fe843783          	ld	a5,-24(s0)
ffffffc0503002c8:	fe843703          	ld	a4,-24(s0)
ffffffc0503002cc:	e398                	sd	a4,0(a5)
ffffffc0503002ce:	fe843783          	ld	a5,-24(s0)
ffffffc0503002d2:	fe843703          	ld	a4,-24(s0)
ffffffc0503002d6:	e798                	sd	a4,8(a5)
ffffffc0503002d8:	0001                	nop
ffffffc0503002da:	6462                	ld	s0,24(sp)
ffffffc0503002dc:	6105                	addi	sp,sp,32
ffffffc0503002de:	8082                	ret

ffffffc0503002e0 <_list_add>:
ffffffc0503002e0:	7179                	addi	sp,sp,-48
ffffffc0503002e2:	f422                	sd	s0,40(sp)
ffffffc0503002e4:	1800                	addi	s0,sp,48
ffffffc0503002e6:	fea43423          	sd	a0,-24(s0)
ffffffc0503002ea:	feb43023          	sd	a1,-32(s0)
ffffffc0503002ee:	fcc43c23          	sd	a2,-40(s0)
ffffffc0503002f2:	fd843783          	ld	a5,-40(s0)
ffffffc0503002f6:	fe843703          	ld	a4,-24(s0)
ffffffc0503002fa:	e798                	sd	a4,8(a5)
ffffffc0503002fc:	fe843783          	ld	a5,-24(s0)
ffffffc050300300:	fd843703          	ld	a4,-40(s0)
ffffffc050300304:	e398                	sd	a4,0(a5)
ffffffc050300306:	fe843783          	ld	a5,-24(s0)
ffffffc05030030a:	fe043703          	ld	a4,-32(s0)
ffffffc05030030e:	e798                	sd	a4,8(a5)
ffffffc050300310:	fe043783          	ld	a5,-32(s0)
ffffffc050300314:	fe843703          	ld	a4,-24(s0)
ffffffc050300318:	e398                	sd	a4,0(a5)
ffffffc05030031a:	0001                	nop
ffffffc05030031c:	7422                	ld	s0,40(sp)
ffffffc05030031e:	6145                	addi	sp,sp,48
ffffffc050300320:	8082                	ret

ffffffc050300322 <list_add>:
ffffffc050300322:	1101                	addi	sp,sp,-32
ffffffc050300324:	ec06                	sd	ra,24(sp)
ffffffc050300326:	e822                	sd	s0,16(sp)
ffffffc050300328:	1000                	addi	s0,sp,32
ffffffc05030032a:	fea43423          	sd	a0,-24(s0)
ffffffc05030032e:	feb43023          	sd	a1,-32(s0)
ffffffc050300332:	fe043783          	ld	a5,-32(s0)
ffffffc050300336:	639c                	ld	a5,0(a5)
ffffffc050300338:	863e                	mv	a2,a5
ffffffc05030033a:	fe043583          	ld	a1,-32(s0)
ffffffc05030033e:	fe843503          	ld	a0,-24(s0)
ffffffc050300342:	f9fff0ef          	jal	ra,ffffffc0503002e0 <_list_add>
ffffffc050300346:	0001                	nop
ffffffc050300348:	60e2                	ld	ra,24(sp)
ffffffc05030034a:	6442                	ld	s0,16(sp)
ffffffc05030034c:	6105                	addi	sp,sp,32
ffffffc05030034e:	8082                	ret

ffffffc050300350 <sbi_console_getchar>:
ffffffc050300350:	1141                	addi	sp,sp,-16
ffffffc050300352:	e422                	sd	s0,8(sp)
ffffffc050300354:	0800                	addi	s0,sp,16
ffffffc050300356:	4501                	li	a0,0
ffffffc050300358:	4581                	li	a1,0
ffffffc05030035a:	4601                	li	a2,0
ffffffc05030035c:	4889                	li	a7,2
ffffffc05030035e:	00000073          	ecall
ffffffc050300362:	87aa                	mv	a5,a0
ffffffc050300364:	2781                	sext.w	a5,a5
ffffffc050300366:	853e                	mv	a0,a5
ffffffc050300368:	6422                	ld	s0,8(sp)
ffffffc05030036a:	0141                	addi	sp,sp,16
ffffffc05030036c:	8082                	ret

ffffffc05030036e <sbi_read_fdt>:
ffffffc05030036e:	1101                	addi	sp,sp,-32
ffffffc050300370:	ec22                	sd	s0,24(sp)
ffffffc050300372:	1000                	addi	s0,sp,32
ffffffc050300374:	87aa                	mv	a5,a0
ffffffc050300376:	fef42623          	sw	a5,-20(s0)
ffffffc05030037a:	fec42783          	lw	a5,-20(s0)
ffffffc05030037e:	853e                	mv	a0,a5
ffffffc050300380:	4581                	li	a1,0
ffffffc050300382:	4601                	li	a2,0
ffffffc050300384:	48b1                	li	a7,12
ffffffc050300386:	00000073          	ecall
ffffffc05030038a:	87aa                	mv	a5,a0
ffffffc05030038c:	2781                	sext.w	a5,a5
ffffffc05030038e:	853e                	mv	a0,a5
ffffffc050300390:	6462                	ld	s0,24(sp)
ffffffc050300392:	6105                	addi	sp,sp,32
ffffffc050300394:	8082                	ret

ffffffc050300396 <_panic>:
ffffffc050300396:	7179                	addi	sp,sp,-48
ffffffc050300398:	f406                	sd	ra,40(sp)
ffffffc05030039a:	f022                	sd	s0,32(sp)
ffffffc05030039c:	1800                	addi	s0,sp,48
ffffffc05030039e:	fea43423          	sd	a0,-24(s0)
ffffffc0503003a2:	87ae                	mv	a5,a1
ffffffc0503003a4:	fcc43c23          	sd	a2,-40(s0)
ffffffc0503003a8:	fef42223          	sw	a5,-28(s0)
ffffffc0503003ac:	fe442783          	lw	a5,-28(s0)
ffffffc0503003b0:	86be                	mv	a3,a5
ffffffc0503003b2:	fe843603          	ld	a2,-24(s0)
ffffffc0503003b6:	fd843583          	ld	a1,-40(s0)
ffffffc0503003ba:	0000b517          	auipc	a0,0xb
ffffffc0503003be:	99e50513          	addi	a0,a0,-1634 # ffffffc05030ad58 <get_elf_file+0xa8>
ffffffc0503003c2:	00f0a0ef          	jal	ra,ffffffc05030abd0 <printk>
ffffffc0503003c6:	a001                	j	ffffffc0503003c6 <_panic+0x30>

ffffffc0503003c8 <clear_pgdir>:
ffffffc0503003c8:	7179                	addi	sp,sp,-48
ffffffc0503003ca:	f422                	sd	s0,40(sp)
ffffffc0503003cc:	1800                	addi	s0,sp,48
ffffffc0503003ce:	fca43c23          	sd	a0,-40(s0)
ffffffc0503003d2:	fe042623          	sw	zero,-20(s0)
ffffffc0503003d6:	a829                	j	ffffffc0503003f0 <clear_pgdir+0x28>
ffffffc0503003d8:	fec42703          	lw	a4,-20(s0)
ffffffc0503003dc:	fd843783          	ld	a5,-40(s0)
ffffffc0503003e0:	97ba                	add	a5,a5,a4
ffffffc0503003e2:	0007b023          	sd	zero,0(a5)
ffffffc0503003e6:	fec42783          	lw	a5,-20(s0)
ffffffc0503003ea:	27a1                	addiw	a5,a5,8
ffffffc0503003ec:	fef42623          	sw	a5,-20(s0)
ffffffc0503003f0:	fec42783          	lw	a5,-20(s0)
ffffffc0503003f4:	873e                	mv	a4,a5
ffffffc0503003f6:	6785                	lui	a5,0x1
ffffffc0503003f8:	fef760e3          	bltu	a4,a5,ffffffc0503003d8 <clear_pgdir+0x10>
ffffffc0503003fc:	0001                	nop
ffffffc0503003fe:	0001                	nop
ffffffc050300400:	7422                	ld	s0,40(sp)
ffffffc050300402:	6145                	addi	sp,sp,48
ffffffc050300404:	8082                	ret

ffffffc050300406 <is_elf_format>:
ffffffc050300406:	7179                	addi	sp,sp,-48
ffffffc050300408:	f422                	sd	s0,40(sp)
ffffffc05030040a:	1800                	addi	s0,sp,48
ffffffc05030040c:	fca43c23          	sd	a0,-40(s0)
ffffffc050300410:	fd843783          	ld	a5,-40(s0)
ffffffc050300414:	fef43423          	sd	a5,-24(s0)
ffffffc050300418:	fe843783          	ld	a5,-24(s0)
ffffffc05030041c:	0007c783          	lbu	a5,0(a5) # 1000 <_start-0xffffffc0502ff000>
ffffffc050300420:	eb9d                	bnez	a5,ffffffc050300456 <is_elf_format+0x50>
ffffffc050300422:	fe843783          	ld	a5,-24(s0)
ffffffc050300426:	0017c783          	lbu	a5,1(a5)
ffffffc05030042a:	873e                	mv	a4,a5
ffffffc05030042c:	4785                	li	a5,1
ffffffc05030042e:	02f71463          	bne	a4,a5,ffffffc050300456 <is_elf_format+0x50>
ffffffc050300432:	fe843783          	ld	a5,-24(s0)
ffffffc050300436:	0027c783          	lbu	a5,2(a5)
ffffffc05030043a:	873e                	mv	a4,a5
ffffffc05030043c:	4789                	li	a5,2
ffffffc05030043e:	00f71c63          	bne	a4,a5,ffffffc050300456 <is_elf_format+0x50>
ffffffc050300442:	fe843783          	ld	a5,-24(s0)
ffffffc050300446:	0037c783          	lbu	a5,3(a5)
ffffffc05030044a:	873e                	mv	a4,a5
ffffffc05030044c:	478d                	li	a5,3
ffffffc05030044e:	00f71463          	bne	a4,a5,ffffffc050300456 <is_elf_format+0x50>
ffffffc050300452:	4781                	li	a5,0
ffffffc050300454:	a011                	j	ffffffc050300458 <is_elf_format+0x52>
ffffffc050300456:	4785                	li	a5,1
ffffffc050300458:	853e                	mv	a0,a5
ffffffc05030045a:	7422                	ld	s0,40(sp)
ffffffc05030045c:	6145                	addi	sp,sp,48
ffffffc05030045e:	8082                	ret

ffffffc050300460 <load_elf>:
ffffffc050300460:	7159                	addi	sp,sp,-112
ffffffc050300462:	f486                	sd	ra,104(sp)
ffffffc050300464:	f0a2                	sd	s0,96(sp)
ffffffc050300466:	1880                	addi	s0,sp,112
ffffffc050300468:	faa43423          	sd	a0,-88(s0)
ffffffc05030046c:	87ae                	mv	a5,a1
ffffffc05030046e:	f8c43c23          	sd	a2,-104(s0)
ffffffc050300472:	f8d43823          	sd	a3,-112(s0)
ffffffc050300476:	faf42223          	sw	a5,-92(s0)
ffffffc05030047a:	fa843783          	ld	a5,-88(s0)
ffffffc05030047e:	fcf43823          	sd	a5,-48(s0)
ffffffc050300482:	fc043423          	sd	zero,-56(s0)
ffffffc050300486:	fe043423          	sd	zero,-24(s0)
ffffffc05030048a:	fe042023          	sw	zero,-32(s0)
ffffffc05030048e:	fa442783          	lw	a5,-92(s0)
ffffffc050300492:	0007871b          	sext.w	a4,a5
ffffffc050300496:	478d                	li	a5,3
ffffffc050300498:	00e7f863          	bgeu	a5,a4,ffffffc0503004a8 <load_elf+0x48>
ffffffc05030049c:	fa843503          	ld	a0,-88(s0)
ffffffc0503004a0:	f67ff0ef          	jal	ra,ffffffc050300406 <is_elf_format>
ffffffc0503004a4:	87aa                	mv	a5,a0
ffffffc0503004a6:	e399                	bnez	a5,ffffffc0503004ac <load_elf+0x4c>
ffffffc0503004a8:	4781                	li	a5,0
ffffffc0503004aa:	a259                	j	ffffffc050300630 <load_elf+0x1d0>
ffffffc0503004ac:	fd043783          	ld	a5,-48(s0)
ffffffc0503004b0:	739c                	ld	a5,32(a5)
ffffffc0503004b2:	fa843703          	ld	a4,-88(s0)
ffffffc0503004b6:	97ba                	add	a5,a5,a4
ffffffc0503004b8:	fef43423          	sd	a5,-24(s0)
ffffffc0503004bc:	fd043783          	ld	a5,-48(s0)
ffffffc0503004c0:	0387d783          	lhu	a5,56(a5)
ffffffc0503004c4:	fef41323          	sh	a5,-26(s0)
ffffffc0503004c8:	fd043783          	ld	a5,-48(s0)
ffffffc0503004cc:	0367d783          	lhu	a5,54(a5)
ffffffc0503004d0:	fcf41323          	sh	a5,-58(s0)
ffffffc0503004d4:	a299                	j	ffffffc05030061a <load_elf+0x1ba>
ffffffc0503004d6:	fe843783          	ld	a5,-24(s0)
ffffffc0503004da:	fcf43423          	sd	a5,-56(s0)
ffffffc0503004de:	fc843783          	ld	a5,-56(s0)
ffffffc0503004e2:	439c                	lw	a5,0(a5)
ffffffc0503004e4:	873e                	mv	a4,a5
ffffffc0503004e6:	4785                	li	a5,1
ffffffc0503004e8:	12f71263          	bne	a4,a5,ffffffc05030060c <load_elf+0x1ac>
ffffffc0503004ec:	fe042023          	sw	zero,-32(s0)
ffffffc0503004f0:	a239                	j	ffffffc0503005fe <load_elf+0x19e>
ffffffc0503004f2:	fe042703          	lw	a4,-32(s0)
ffffffc0503004f6:	fc843783          	ld	a5,-56(s0)
ffffffc0503004fa:	739c                	ld	a5,32(a5)
ffffffc0503004fc:	0af77463          	bgeu	a4,a5,ffffffc0503005a4 <load_elf+0x144>
ffffffc050300500:	fc843783          	ld	a5,-56(s0)
ffffffc050300504:	6b98                	ld	a4,16(a5)
ffffffc050300506:	fe042783          	lw	a5,-32(s0)
ffffffc05030050a:	97ba                	add	a5,a5,a4
ffffffc05030050c:	f9043703          	ld	a4,-112(s0)
ffffffc050300510:	f9843583          	ld	a1,-104(s0)
ffffffc050300514:	853e                	mv	a0,a5
ffffffc050300516:	9702                	jalr	a4
ffffffc050300518:	87aa                	mv	a5,a0
ffffffc05030051a:	faf43823          	sd	a5,-80(s0)
ffffffc05030051e:	fc843783          	ld	a5,-56(s0)
ffffffc050300522:	6798                	ld	a4,8(a5)
ffffffc050300524:	fe042783          	lw	a5,-32(s0)
ffffffc050300528:	97ba                	add	a5,a5,a4
ffffffc05030052a:	fa843703          	ld	a4,-88(s0)
ffffffc05030052e:	00f706b3          	add	a3,a4,a5
ffffffc050300532:	fc843783          	ld	a5,-56(s0)
ffffffc050300536:	7398                	ld	a4,32(a5)
ffffffc050300538:	fe042783          	lw	a5,-32(s0)
ffffffc05030053c:	40f707b3          	sub	a5,a4,a5
ffffffc050300540:	6705                	lui	a4,0x1
ffffffc050300542:	00f77363          	bgeu	a4,a5,ffffffc050300548 <load_elf+0xe8>
ffffffc050300546:	6785                	lui	a5,0x1
ffffffc050300548:	2781                	sext.w	a5,a5
ffffffc05030054a:	863e                	mv	a2,a5
ffffffc05030054c:	85b6                	mv	a1,a3
ffffffc05030054e:	fb043503          	ld	a0,-80(s0)
ffffffc050300552:	441090ef          	jal	ra,ffffffc05030a192 <memcpy>
ffffffc050300556:	fc843783          	ld	a5,-56(s0)
ffffffc05030055a:	7398                	ld	a4,32(a5)
ffffffc05030055c:	fe042783          	lw	a5,-32(s0)
ffffffc050300560:	8f1d                	sub	a4,a4,a5
ffffffc050300562:	6785                	lui	a5,0x1
ffffffc050300564:	08f77663          	bgeu	a4,a5,ffffffc0503005f0 <load_elf+0x190>
ffffffc050300568:	fc843783          	ld	a5,-56(s0)
ffffffc05030056c:	739c                	ld	a5,32(a5)
ffffffc05030056e:	0007871b          	sext.w	a4,a5
ffffffc050300572:	6785                	lui	a5,0x1
ffffffc050300574:	17fd                	addi	a5,a5,-1
ffffffc050300576:	8ff9                	and	a5,a5,a4
ffffffc050300578:	fcf42e23          	sw	a5,-36(s0)
ffffffc05030057c:	a829                	j	ffffffc050300596 <load_elf+0x136>
ffffffc05030057e:	fdc42783          	lw	a5,-36(s0)
ffffffc050300582:	fb043703          	ld	a4,-80(s0)
ffffffc050300586:	97ba                	add	a5,a5,a4
ffffffc050300588:	00078023          	sb	zero,0(a5) # 1000 <_start-0xffffffc0502ff000>
ffffffc05030058c:	fdc42783          	lw	a5,-36(s0)
ffffffc050300590:	2785                	addiw	a5,a5,1
ffffffc050300592:	fcf42e23          	sw	a5,-36(s0)
ffffffc050300596:	fdc42783          	lw	a5,-36(s0)
ffffffc05030059a:	873e                	mv	a4,a5
ffffffc05030059c:	6785                	lui	a5,0x1
ffffffc05030059e:	fef760e3          	bltu	a4,a5,ffffffc05030057e <load_elf+0x11e>
ffffffc0503005a2:	a0b9                	j	ffffffc0503005f0 <load_elf+0x190>
ffffffc0503005a4:	fc843783          	ld	a5,-56(s0)
ffffffc0503005a8:	6b98                	ld	a4,16(a5)
ffffffc0503005aa:	fe042783          	lw	a5,-32(s0)
ffffffc0503005ae:	97ba                	add	a5,a5,a4
ffffffc0503005b0:	f9043703          	ld	a4,-112(s0)
ffffffc0503005b4:	f9843583          	ld	a1,-104(s0)
ffffffc0503005b8:	853e                	mv	a0,a5
ffffffc0503005ba:	9702                	jalr	a4
ffffffc0503005bc:	87aa                	mv	a5,a0
ffffffc0503005be:	faf43c23          	sd	a5,-72(s0)
ffffffc0503005c2:	fc042c23          	sw	zero,-40(s0)
ffffffc0503005c6:	a831                	j	ffffffc0503005e2 <load_elf+0x182>
ffffffc0503005c8:	fd842783          	lw	a5,-40(s0)
ffffffc0503005cc:	078e                	slli	a5,a5,0x3
ffffffc0503005ce:	fb843703          	ld	a4,-72(s0)
ffffffc0503005d2:	97ba                	add	a5,a5,a4
ffffffc0503005d4:	0007b023          	sd	zero,0(a5) # 1000 <_start-0xffffffc0502ff000>
ffffffc0503005d8:	fd842783          	lw	a5,-40(s0)
ffffffc0503005dc:	2785                	addiw	a5,a5,1
ffffffc0503005de:	fcf42c23          	sw	a5,-40(s0)
ffffffc0503005e2:	fd842783          	lw	a5,-40(s0)
ffffffc0503005e6:	873e                	mv	a4,a5
ffffffc0503005e8:	1ff00793          	li	a5,511
ffffffc0503005ec:	fce7fee3          	bgeu	a5,a4,ffffffc0503005c8 <load_elf+0x168>
ffffffc0503005f0:	fe042703          	lw	a4,-32(s0)
ffffffc0503005f4:	6785                	lui	a5,0x1
ffffffc0503005f6:	9fb9                	addw	a5,a5,a4
ffffffc0503005f8:	2781                	sext.w	a5,a5
ffffffc0503005fa:	fef42023          	sw	a5,-32(s0)
ffffffc0503005fe:	fe042703          	lw	a4,-32(s0)
ffffffc050300602:	fc843783          	ld	a5,-56(s0)
ffffffc050300606:	779c                	ld	a5,40(a5)
ffffffc050300608:	eef765e3          	bltu	a4,a5,ffffffc0503004f2 <load_elf+0x92>
ffffffc05030060c:	fc645783          	lhu	a5,-58(s0)
ffffffc050300610:	fe843703          	ld	a4,-24(s0)
ffffffc050300614:	97ba                	add	a5,a5,a4
ffffffc050300616:	fef43423          	sd	a5,-24(s0)
ffffffc05030061a:	fe645783          	lhu	a5,-26(s0)
ffffffc05030061e:	fff7871b          	addiw	a4,a5,-1
ffffffc050300622:	fee41323          	sh	a4,-26(s0)
ffffffc050300626:	ea0798e3          	bnez	a5,ffffffc0503004d6 <load_elf+0x76>
ffffffc05030062a:	fd043783          	ld	a5,-48(s0)
ffffffc05030062e:	6f9c                	ld	a5,24(a5)
ffffffc050300630:	853e                	mv	a0,a5
ffffffc050300632:	70a6                	ld	ra,104(sp)
ffffffc050300634:	7406                	ld	s0,96(sp)
ffffffc050300636:	6165                	addi	sp,sp,112
ffffffc050300638:	8082                	ret

ffffffc05030063a <init_pcb_stack>:
ffffffc05030063a:	715d                	addi	sp,sp,-80
ffffffc05030063c:	e4a2                	sd	s0,72(sp)
ffffffc05030063e:	0880                	addi	s0,sp,80
ffffffc050300640:	fca43c23          	sd	a0,-40(s0)
ffffffc050300644:	fcb43823          	sd	a1,-48(s0)
ffffffc050300648:	fcc43423          	sd	a2,-56(s0)
ffffffc05030064c:	fae43c23          	sd	a4,-72(s0)
ffffffc050300650:	faf43823          	sd	a5,-80(s0)
ffffffc050300654:	87b6                	mv	a5,a3
ffffffc050300656:	fcf42223          	sw	a5,-60(s0)
ffffffc05030065a:	fd843783          	ld	a5,-40(s0)
ffffffc05030065e:	ee078793          	addi	a5,a5,-288 # ee0 <_start-0xffffffc0502ff120>
ffffffc050300662:	fef43423          	sd	a5,-24(s0)
ffffffc050300666:	fe843783          	ld	a5,-24(s0)
ffffffc05030066a:	fd043703          	ld	a4,-48(s0)
ffffffc05030066e:	eb98                	sd	a4,16(a5)
ffffffc050300670:	00018713          	mv	a4,gp
ffffffc050300674:	fe843783          	ld	a5,-24(s0)
ffffffc050300678:	ef98                	sd	a4,24(a5)
ffffffc05030067a:	fe843783          	ld	a5,-24(s0)
ffffffc05030067e:	fc843703          	ld	a4,-56(s0)
ffffffc050300682:	e798                	sd	a4,8(a5)
ffffffc050300684:	fc442703          	lw	a4,-60(s0)
ffffffc050300688:	fe843783          	ld	a5,-24(s0)
ffffffc05030068c:	ebb8                	sd	a4,80(a5)
ffffffc05030068e:	fb843703          	ld	a4,-72(s0)
ffffffc050300692:	fe843783          	ld	a5,-24(s0)
ffffffc050300696:	efb8                	sd	a4,88(a5)
ffffffc050300698:	fe843783          	ld	a5,-24(s0)
ffffffc05030069c:	fc843703          	ld	a4,-56(s0)
ffffffc0503006a0:	10e7b423          	sd	a4,264(a5)
ffffffc0503006a4:	fe843783          	ld	a5,-24(s0)
ffffffc0503006a8:	00040737          	lui	a4,0x40
ffffffc0503006ac:	02070713          	addi	a4,a4,32 # 40020 <_start-0xffffffc0502bffe0>
ffffffc0503006b0:	10e7b023          	sd	a4,256(a5)
ffffffc0503006b4:	fd843783          	ld	a5,-40(s0)
ffffffc0503006b8:	e7078793          	addi	a5,a5,-400
ffffffc0503006bc:	fef43023          	sd	a5,-32(s0)
ffffffc0503006c0:	00000717          	auipc	a4,0x0
ffffffc0503006c4:	a4470713          	addi	a4,a4,-1468 # ffffffc050300104 <ret_from_exception>
ffffffc0503006c8:	fe043783          	ld	a5,-32(s0)
ffffffc0503006cc:	e398                	sd	a4,0(a5)
ffffffc0503006ce:	fd843783          	ld	a5,-40(s0)
ffffffc0503006d2:	e7078713          	addi	a4,a5,-400
ffffffc0503006d6:	fe043783          	ld	a5,-32(s0)
ffffffc0503006da:	e798                	sd	a4,8(a5)
ffffffc0503006dc:	0001                	nop
ffffffc0503006de:	6426                	ld	s0,72(sp)
ffffffc0503006e0:	6161                	addi	sp,sp,80
ffffffc0503006e2:	8082                	ret

ffffffc0503006e4 <init_pcb>:
ffffffc0503006e4:	7179                	addi	sp,sp,-48
ffffffc0503006e6:	f406                	sd	ra,40(sp)
ffffffc0503006e8:	f022                	sd	s0,32(sp)
ffffffc0503006ea:	1800                	addi	s0,sp,48
ffffffc0503006ec:	4d6090ef          	jal	ra,ffffffc050309bc2 <allocPage>
ffffffc0503006f0:	872a                	mv	a4,a0
ffffffc0503006f2:	00039797          	auipc	a5,0x39
ffffffc0503006f6:	dde78793          	addi	a5,a5,-546 # ffffffc0503394d0 <pcb>
ffffffc0503006fa:	f7f8                	sd	a4,232(a5)
ffffffc0503006fc:	00039797          	auipc	a5,0x39
ffffffc050300700:	dd478793          	addi	a5,a5,-556 # ffffffc0503394d0 <pcb>
ffffffc050300704:	77fc                	ld	a5,232(a5)
ffffffc050300706:	853e                	mv	a0,a5
ffffffc050300708:	cc1ff0ef          	jal	ra,ffffffc0503003c8 <clear_pgdir>
ffffffc05030070c:	4b6090ef          	jal	ra,ffffffc050309bc2 <allocPage>
ffffffc050300710:	872a                	mv	a4,a0
ffffffc050300712:	6785                	lui	a5,0x1
ffffffc050300714:	973e                	add	a4,a4,a5
ffffffc050300716:	00039797          	auipc	a5,0x39
ffffffc05030071a:	dba78793          	addi	a5,a5,-582 # ffffffc0503394d0 <pcb>
ffffffc05030071e:	ef98                	sd	a4,24(a5)
ffffffc050300720:	00039797          	auipc	a5,0x39
ffffffc050300724:	db078793          	addi	a5,a5,-592 # ffffffc0503394d0 <pcb>
ffffffc050300728:	000f0737          	lui	a4,0xf0
ffffffc05030072c:	0705                	addi	a4,a4,1
ffffffc05030072e:	0742                	slli	a4,a4,0x10
ffffffc050300730:	f398                	sd	a4,32(a5)
ffffffc050300732:	00039797          	auipc	a5,0x39
ffffffc050300736:	d9e78793          	addi	a5,a5,-610 # ffffffc0503394d0 <pcb>
ffffffc05030073a:	7398                	ld	a4,32(a5)
ffffffc05030073c:	77fd                	lui	a5,0xfffff
ffffffc05030073e:	973e                	add	a4,a4,a5
ffffffc050300740:	00039797          	auipc	a5,0x39
ffffffc050300744:	d9078793          	addi	a5,a5,-624 # ffffffc0503394d0 <pcb>
ffffffc050300748:	77fc                	ld	a5,232(a5)
ffffffc05030074a:	85be                	mv	a1,a5
ffffffc05030074c:	853a                	mv	a0,a4
ffffffc05030074e:	5be090ef          	jal	ra,ffffffc050309d0c <alloc_page_helper>
ffffffc050300752:	fea43423          	sd	a0,-24(s0)
ffffffc050300756:	fe02f7b7          	lui	a5,0xfe02f
ffffffc05030075a:	07b6                	slli	a5,a5,0xd
ffffffc05030075c:	fef43023          	sd	a5,-32(s0)
ffffffc050300760:	00039797          	auipc	a5,0x39
ffffffc050300764:	d7078793          	addi	a5,a5,-656 # ffffffc0503394d0 <pcb>
ffffffc050300768:	77fc                	ld	a5,232(a5)
ffffffc05030076a:	fe043583          	ld	a1,-32(s0)
ffffffc05030076e:	853e                	mv	a0,a5
ffffffc050300770:	54e090ef          	jal	ra,ffffffc050309cbe <share_pgtable>
ffffffc050300774:	00037797          	auipc	a5,0x37
ffffffc050300778:	d0478793          	addi	a5,a5,-764 # ffffffc050337478 <elf_files>
ffffffc05030077c:	6b9c                	ld	a5,16(a5)
ffffffc05030077e:	439c                	lw	a5,0(a5)
ffffffc050300780:	fcf42e23          	sw	a5,-36(s0)
ffffffc050300784:	00037797          	auipc	a5,0x37
ffffffc050300788:	cf478793          	addi	a5,a5,-780 # ffffffc050337478 <elf_files>
ffffffc05030078c:	6798                	ld	a4,8(a5)
ffffffc05030078e:	00039797          	auipc	a5,0x39
ffffffc050300792:	d4278793          	addi	a5,a5,-702 # ffffffc0503394d0 <pcb>
ffffffc050300796:	77f0                	ld	a2,232(a5)
ffffffc050300798:	fdc42783          	lw	a5,-36(s0)
ffffffc05030079c:	00009697          	auipc	a3,0x9
ffffffc0503007a0:	57068693          	addi	a3,a3,1392 # ffffffc050309d0c <alloc_page_helper>
ffffffc0503007a4:	85be                	mv	a1,a5
ffffffc0503007a6:	853a                	mv	a0,a4
ffffffc0503007a8:	cb9ff0ef          	jal	ra,ffffffc050300460 <load_elf>
ffffffc0503007ac:	87aa                	mv	a5,a0
ffffffc0503007ae:	fcf43823          	sd	a5,-48(s0)
ffffffc0503007b2:	00039797          	auipc	a5,0x39
ffffffc0503007b6:	d1e78793          	addi	a5,a5,-738 # ffffffc0503394d0 <pcb>
ffffffc0503007ba:	6f98                	ld	a4,24(a5)
ffffffc0503007bc:	00039797          	auipc	a5,0x39
ffffffc0503007c0:	d1478793          	addi	a5,a5,-748 # ffffffc0503394d0 <pcb>
ffffffc0503007c4:	e398                	sd	a4,0(a5)
ffffffc0503007c6:	00039797          	auipc	a5,0x39
ffffffc0503007ca:	d0a78793          	addi	a5,a5,-758 # ffffffc0503394d0 <pcb>
ffffffc0503007ce:	7398                	ld	a4,32(a5)
ffffffc0503007d0:	00039797          	auipc	a5,0x39
ffffffc0503007d4:	d0078793          	addi	a5,a5,-768 # ffffffc0503394d0 <pcb>
ffffffc0503007d8:	e798                	sd	a4,8(a5)
ffffffc0503007da:	00039797          	auipc	a5,0x39
ffffffc0503007de:	cf678793          	addi	a5,a5,-778 # ffffffc0503394d0 <pcb>
ffffffc0503007e2:	6388                	ld	a0,0(a5)
ffffffc0503007e4:	00039797          	auipc	a5,0x39
ffffffc0503007e8:	cec78793          	addi	a5,a5,-788 # ffffffc0503394d0 <pcb>
ffffffc0503007ec:	678c                	ld	a1,8(a5)
ffffffc0503007ee:	fd043603          	ld	a2,-48(s0)
ffffffc0503007f2:	00039797          	auipc	a5,0x39
ffffffc0503007f6:	cde78793          	addi	a5,a5,-802 # ffffffc0503394d0 <pcb>
ffffffc0503007fa:	4701                	li	a4,0
ffffffc0503007fc:	4681                	li	a3,0
ffffffc0503007fe:	e3dff0ef          	jal	ra,ffffffc05030063a <init_pcb_stack>
ffffffc050300802:	00039797          	auipc	a5,0x39
ffffffc050300806:	cce78793          	addi	a5,a5,-818 # ffffffc0503394d0 <pcb>
ffffffc05030080a:	639c                	ld	a5,0(a5)
ffffffc05030080c:	e7078713          	addi	a4,a5,-400
ffffffc050300810:	00039797          	auipc	a5,0x39
ffffffc050300814:	cc078793          	addi	a5,a5,-832 # ffffffc0503394d0 <pcb>
ffffffc050300818:	e398                	sd	a4,0(a5)
ffffffc05030081a:	00037797          	auipc	a5,0x37
ffffffc05030081e:	cd678793          	addi	a5,a5,-810 # ffffffc0503374f0 <process_id>
ffffffc050300822:	439c                	lw	a5,0(a5)
ffffffc050300824:	0017871b          	addiw	a4,a5,1
ffffffc050300828:	0007069b          	sext.w	a3,a4
ffffffc05030082c:	00037717          	auipc	a4,0x37
ffffffc050300830:	cc470713          	addi	a4,a4,-828 # ffffffc0503374f0 <process_id>
ffffffc050300834:	c314                	sw	a3,0(a4)
ffffffc050300836:	00039717          	auipc	a4,0x39
ffffffc05030083a:	c9a70713          	addi	a4,a4,-870 # ffffffc0503394d0 <pcb>
ffffffc05030083e:	c73c                	sw	a5,72(a4)
ffffffc050300840:	00039797          	auipc	a5,0x39
ffffffc050300844:	c9078793          	addi	a5,a5,-880 # ffffffc0503394d0 <pcb>
ffffffc050300848:	4709                	li	a4,2
ffffffc05030084a:	c7f8                	sw	a4,76(a5)
ffffffc05030084c:	00039797          	auipc	a5,0x39
ffffffc050300850:	c8478793          	addi	a5,a5,-892 # ffffffc0503394d0 <pcb>
ffffffc050300854:	4709                	li	a4,2
ffffffc050300856:	cbb8                	sw	a4,80(a5)
ffffffc050300858:	00039797          	auipc	a5,0x39
ffffffc05030085c:	c7878793          	addi	a5,a5,-904 # ffffffc0503394d0 <pcb>
ffffffc050300860:	4705                	li	a4,1
ffffffc050300862:	cbf8                	sw	a4,84(a5)
ffffffc050300864:	00039797          	auipc	a5,0x39
ffffffc050300868:	c6c78793          	addi	a5,a5,-916 # ffffffc0503394d0 <pcb>
ffffffc05030086c:	0407ac23          	sw	zero,88(a5)
ffffffc050300870:	00039797          	auipc	a5,0x39
ffffffc050300874:	c6078793          	addi	a5,a5,-928 # ffffffc0503394d0 <pcb>
ffffffc050300878:	0407ae23          	sw	zero,92(a5)
ffffffc05030087c:	00039797          	auipc	a5,0x39
ffffffc050300880:	c5478793          	addi	a5,a5,-940 # ffffffc0503394d0 <pcb>
ffffffc050300884:	0807a423          	sw	zero,136(a5)
ffffffc050300888:	00039797          	auipc	a5,0x39
ffffffc05030088c:	c4878793          	addi	a5,a5,-952 # ffffffc0503394d0 <pcb>
ffffffc050300890:	470d                	li	a4,3
ffffffc050300892:	0ee7a023          	sw	a4,224(a5)
ffffffc050300896:	0000b597          	auipc	a1,0xb
ffffffc05030089a:	5c258593          	addi	a1,a1,1474 # ffffffc05030be58 <ready_queue>
ffffffc05030089e:	00039517          	auipc	a0,0x39
ffffffc0503008a2:	c5a50513          	addi	a0,a0,-934 # ffffffc0503394f8 <pcb+0x28>
ffffffc0503008a6:	a7dff0ef          	jal	ra,ffffffc050300322 <list_add>
ffffffc0503008aa:	00039517          	auipc	a0,0x39
ffffffc0503008ae:	c5e50513          	addi	a0,a0,-930 # ffffffc050339508 <pcb+0x38>
ffffffc0503008b2:	a09ff0ef          	jal	ra,ffffffc0503002ba <init_list_head>
ffffffc0503008b6:	00037797          	auipc	a5,0x37
ffffffc0503008ba:	c8a78793          	addi	a5,a5,-886 # ffffffc050337540 <_edata>
ffffffc0503008be:	439c                	lw	a5,0(a5)
ffffffc0503008c0:	2785                	addiw	a5,a5,1
ffffffc0503008c2:	0007871b          	sext.w	a4,a5
ffffffc0503008c6:	00037797          	auipc	a5,0x37
ffffffc0503008ca:	c7a78793          	addi	a5,a5,-902 # ffffffc050337540 <_edata>
ffffffc0503008ce:	c398                	sw	a4,0(a5)
ffffffc0503008d0:	00048797          	auipc	a5,0x48
ffffffc0503008d4:	cc878793          	addi	a5,a5,-824 # ffffffc050348598 <current_running>
ffffffc0503008d8:	0000b717          	auipc	a4,0xb
ffffffc0503008dc:	3a070713          	addi	a4,a4,928 # ffffffc05030bc78 <pid0_pcb_m>
ffffffc0503008e0:	e398                	sd	a4,0(a5)
ffffffc0503008e2:	00048797          	auipc	a5,0x48
ffffffc0503008e6:	cb678793          	addi	a5,a5,-842 # ffffffc050348598 <current_running>
ffffffc0503008ea:	0000b717          	auipc	a4,0xb
ffffffc0503008ee:	47e70713          	addi	a4,a4,1150 # ffffffc05030bd68 <pid0_pcb_s>
ffffffc0503008f2:	e798                	sd	a4,8(a5)
ffffffc0503008f4:	0001                	nop
ffffffc0503008f6:	70a2                	ld	ra,40(sp)
ffffffc0503008f8:	7402                	ld	s0,32(sp)
ffffffc0503008fa:	6145                	addi	sp,sp,48
ffffffc0503008fc:	8082                	ret

ffffffc0503008fe <init_syscall>:
ffffffc0503008fe:	1101                	addi	sp,sp,-32
ffffffc050300900:	ec22                	sd	s0,24(sp)
ffffffc050300902:	1000                	addi	s0,sp,32
ffffffc050300904:	fe042623          	sw	zero,-20(s0)
ffffffc050300908:	a01d                	j	ffffffc05030092e <init_syscall+0x30>
ffffffc05030090a:	00048717          	auipc	a4,0x48
ffffffc05030090e:	52670713          	addi	a4,a4,1318 # ffffffc050348e30 <syscall>
ffffffc050300912:	fec42783          	lw	a5,-20(s0)
ffffffc050300916:	078e                	slli	a5,a5,0x3
ffffffc050300918:	97ba                	add	a5,a5,a4
ffffffc05030091a:	00001717          	auipc	a4,0x1
ffffffc05030091e:	aa470713          	addi	a4,a4,-1372 # ffffffc0503013be <handle_other>
ffffffc050300922:	e398                	sd	a4,0(a5)
ffffffc050300924:	fec42783          	lw	a5,-20(s0)
ffffffc050300928:	2785                	addiw	a5,a5,1
ffffffc05030092a:	fef42623          	sw	a5,-20(s0)
ffffffc05030092e:	fec42783          	lw	a5,-20(s0)
ffffffc050300932:	0007871b          	sext.w	a4,a5
ffffffc050300936:	03f00793          	li	a5,63
ffffffc05030093a:	fce7d8e3          	bge	a5,a4,ffffffc05030090a <init_syscall+0xc>
ffffffc05030093e:	00048797          	auipc	a5,0x48
ffffffc050300942:	4f278793          	addi	a5,a5,1266 # ffffffc050348e30 <syscall>
ffffffc050300946:	00008717          	auipc	a4,0x8
ffffffc05030094a:	cce70713          	addi	a4,a4,-818 # ffffffc050308614 <do_spawn>
ffffffc05030094e:	e398                	sd	a4,0(a5)
ffffffc050300950:	00048797          	auipc	a5,0x48
ffffffc050300954:	4e078793          	addi	a5,a5,1248 # ffffffc050348e30 <syscall>
ffffffc050300958:	00008717          	auipc	a4,0x8
ffffffc05030095c:	e6670713          	addi	a4,a4,-410 # ffffffc0503087be <do_exit>
ffffffc050300960:	e798                	sd	a4,8(a5)
ffffffc050300962:	00048797          	auipc	a5,0x48
ffffffc050300966:	4ce78793          	addi	a5,a5,1230 # ffffffc050348e30 <syscall>
ffffffc05030096a:	00008717          	auipc	a4,0x8
ffffffc05030096e:	a6c70713          	addi	a4,a4,-1428 # ffffffc0503083d6 <do_sleep>
ffffffc050300972:	eb98                	sd	a4,16(a5)
ffffffc050300974:	00048797          	auipc	a5,0x48
ffffffc050300978:	4bc78793          	addi	a5,a5,1212 # ffffffc050348e30 <syscall>
ffffffc05030097c:	00008717          	auipc	a4,0x8
ffffffc050300980:	f2e70713          	addi	a4,a4,-210 # ffffffc0503088aa <do_kill>
ffffffc050300984:	ef98                	sd	a4,24(a5)
ffffffc050300986:	00048797          	auipc	a5,0x48
ffffffc05030098a:	4aa78793          	addi	a5,a5,1194 # ffffffc050348e30 <syscall>
ffffffc05030098e:	00008717          	auipc	a4,0x8
ffffffc050300992:	09c70713          	addi	a4,a4,156 # ffffffc050308a2a <do_waitpid>
ffffffc050300996:	f398                	sd	a4,32(a5)
ffffffc050300998:	00048797          	auipc	a5,0x48
ffffffc05030099c:	49878793          	addi	a5,a5,1176 # ffffffc050348e30 <syscall>
ffffffc0503009a0:	00008717          	auipc	a4,0x8
ffffffc0503009a4:	13870713          	addi	a4,a4,312 # ffffffc050308ad8 <do_process_show>
ffffffc0503009a8:	f798                	sd	a4,40(a5)
ffffffc0503009aa:	00048797          	auipc	a5,0x48
ffffffc0503009ae:	48678793          	addi	a5,a5,1158 # ffffffc050348e30 <syscall>
ffffffc0503009b2:	00009717          	auipc	a4,0x9
ffffffc0503009b6:	ade70713          	addi	a4,a4,-1314 # ffffffc050309490 <do_exec>
ffffffc0503009ba:	fb98                	sd	a4,48(a5)
ffffffc0503009bc:	00048797          	auipc	a5,0x48
ffffffc0503009c0:	47478793          	addi	a5,a5,1140 # ffffffc050348e30 <syscall>
ffffffc0503009c4:	00009717          	auipc	a4,0x9
ffffffc0503009c8:	e7070713          	addi	a4,a4,-400 # ffffffc050309834 <do_show_exec>
ffffffc0503009cc:	ff98                	sd	a4,56(a5)
ffffffc0503009ce:	00048797          	auipc	a5,0x48
ffffffc0503009d2:	46278793          	addi	a5,a5,1122 # ffffffc050348e30 <syscall>
ffffffc0503009d6:	00008717          	auipc	a4,0x8
ffffffc0503009da:	2ce70713          	addi	a4,a4,718 # ffffffc050308ca4 <do_getpid>
ffffffc0503009de:	e3b8                	sd	a4,64(a5)
ffffffc0503009e0:	00048797          	auipc	a5,0x48
ffffffc0503009e4:	45078793          	addi	a5,a5,1104 # ffffffc050348e30 <syscall>
ffffffc0503009e8:	00007717          	auipc	a4,0x7
ffffffc0503009ec:	75470713          	addi	a4,a4,1876 # ffffffc05030813c <do_scheduler>
ffffffc0503009f0:	e7b8                	sd	a4,72(a5)
ffffffc0503009f2:	00048797          	auipc	a5,0x48
ffffffc0503009f6:	43e78793          	addi	a5,a5,1086 # ffffffc050348e30 <syscall>
ffffffc0503009fa:	00007717          	auipc	a4,0x7
ffffffc0503009fe:	21270713          	addi	a4,a4,530 # ffffffc050307c0c <futex_wait>
ffffffc050300a02:	ebb8                	sd	a4,80(a5)
ffffffc050300a04:	00048797          	auipc	a5,0x48
ffffffc050300a08:	42c78793          	addi	a5,a5,1068 # ffffffc050348e30 <syscall>
ffffffc050300a0c:	00007717          	auipc	a4,0x7
ffffffc050300a10:	28870713          	addi	a4,a4,648 # ffffffc050307c94 <futex_wakeup>
ffffffc050300a14:	efb8                	sd	a4,88(a5)
ffffffc050300a16:	00048797          	auipc	a5,0x48
ffffffc050300a1a:	41a78793          	addi	a5,a5,1050 # ffffffc050348e30 <syscall>
ffffffc050300a1e:	00009717          	auipc	a4,0x9
ffffffc050300a22:	85270713          	addi	a4,a4,-1966 # ffffffc050309270 <do_taskset_p>
ffffffc050300a26:	fbb8                	sd	a4,112(a5)
ffffffc050300a28:	00048797          	auipc	a5,0x48
ffffffc050300a2c:	40878793          	addi	a5,a5,1032 # ffffffc050348e30 <syscall>
ffffffc050300a30:	00009717          	auipc	a4,0x9
ffffffc050300a34:	8d270713          	addi	a4,a4,-1838 # ffffffc050309302 <do_taskset_exec>
ffffffc050300a38:	ffb8                	sd	a4,120(a5)
ffffffc050300a3a:	00048797          	auipc	a5,0x48
ffffffc050300a3e:	3f678793          	addi	a5,a5,1014 # ffffffc050348e30 <syscall>
ffffffc050300a42:	00001717          	auipc	a4,0x1
ffffffc050300a46:	e1270713          	addi	a4,a4,-494 # ffffffc050301854 <screen_write>
ffffffc050300a4a:	f3d8                	sd	a4,160(a5)
ffffffc050300a4c:	00048797          	auipc	a5,0x48
ffffffc050300a50:	3e478793          	addi	a5,a5,996 # ffffffc050348e30 <syscall>
ffffffc050300a54:	00000717          	auipc	a4,0x0
ffffffc050300a58:	8fc70713          	addi	a4,a4,-1796 # ffffffc050300350 <sbi_console_getchar>
ffffffc050300a5c:	f7d8                	sd	a4,168(a5)
ffffffc050300a5e:	00048797          	auipc	a5,0x48
ffffffc050300a62:	3d278793          	addi	a5,a5,978 # ffffffc050348e30 <syscall>
ffffffc050300a66:	00001717          	auipc	a4,0x1
ffffffc050300a6a:	d9670713          	addi	a4,a4,-618 # ffffffc0503017fc <screen_move_cursor>
ffffffc050300a6e:	fbd8                	sd	a4,176(a5)
ffffffc050300a70:	00048797          	auipc	a5,0x48
ffffffc050300a74:	3c078793          	addi	a5,a5,960 # ffffffc050348e30 <syscall>
ffffffc050300a78:	00001717          	auipc	a4,0x1
ffffffc050300a7c:	e3a70713          	addi	a4,a4,-454 # ffffffc0503018b2 <screen_reflush>
ffffffc050300a80:	ffd8                	sd	a4,184(a5)
ffffffc050300a82:	00048797          	auipc	a5,0x48
ffffffc050300a86:	3ae78793          	addi	a5,a5,942 # ffffffc050348e30 <syscall>
ffffffc050300a8a:	00001717          	auipc	a4,0x1
ffffffc050300a8e:	cbc70713          	addi	a4,a4,-836 # ffffffc050301746 <screen_clear>
ffffffc050300a92:	eff8                	sd	a4,216(a5)
ffffffc050300a94:	00048797          	auipc	a5,0x48
ffffffc050300a98:	39c78793          	addi	a5,a5,924 # ffffffc050348e30 <syscall>
ffffffc050300a9c:	00009717          	auipc	a4,0x9
ffffffc050300aa0:	02670713          	addi	a4,a4,38 # ffffffc050309ac2 <get_timer>
ffffffc050300aa4:	fbf8                	sd	a4,240(a5)
ffffffc050300aa6:	00048797          	auipc	a5,0x48
ffffffc050300aaa:	38a78793          	addi	a5,a5,906 # ffffffc050348e30 <syscall>
ffffffc050300aae:	00009717          	auipc	a4,0x9
ffffffc050300ab2:	fee70713          	addi	a4,a4,-18 # ffffffc050309a9c <get_ticks>
ffffffc050300ab6:	fff8                	sd	a4,248(a5)
ffffffc050300ab8:	00048797          	auipc	a5,0x48
ffffffc050300abc:	37878793          	addi	a5,a5,888 # ffffffc050348e30 <syscall>
ffffffc050300ac0:	00000717          	auipc	a4,0x0
ffffffc050300ac4:	89070713          	addi	a4,a4,-1904 # ffffffc050300350 <sbi_console_getchar>
ffffffc050300ac8:	10e7b023          	sd	a4,256(a5)
ffffffc050300acc:	00048797          	auipc	a5,0x48
ffffffc050300ad0:	36478793          	addi	a5,a5,868 # ffffffc050348e30 <syscall>
ffffffc050300ad4:	00008717          	auipc	a4,0x8
ffffffc050300ad8:	a0270713          	addi	a4,a4,-1534 # ffffffc0503084d6 <do_binsemget>
ffffffc050300adc:	10e7bc23          	sd	a4,280(a5)
ffffffc050300ae0:	00048797          	auipc	a5,0x48
ffffffc050300ae4:	35078793          	addi	a5,a5,848 # ffffffc050348e30 <syscall>
ffffffc050300ae8:	00008717          	auipc	a4,0x8
ffffffc050300aec:	a1e70713          	addi	a4,a4,-1506 # ffffffc050308506 <do_binsemop>
ffffffc050300af0:	12e7b023          	sd	a4,288(a5)
ffffffc050300af4:	00048797          	auipc	a5,0x48
ffffffc050300af8:	33c78793          	addi	a5,a5,828 # ffffffc050348e30 <syscall>
ffffffc050300afc:	00008717          	auipc	a4,0x8
ffffffc050300b00:	a6e70713          	addi	a4,a4,-1426 # ffffffc05030856a <do_binsem_destroy>
ffffffc050300b04:	12e7b423          	sd	a4,296(a5)
ffffffc050300b08:	00048797          	auipc	a5,0x48
ffffffc050300b0c:	32878793          	addi	a5,a5,808 # ffffffc050348e30 <syscall>
ffffffc050300b10:	00008717          	auipc	a4,0x8
ffffffc050300b14:	1c270713          	addi	a4,a4,450 # ffffffc050308cd2 <do_cond_wait>
ffffffc050300b18:	12e7b823          	sd	a4,304(a5)
ffffffc050300b1c:	00048797          	auipc	a5,0x48
ffffffc050300b20:	31478793          	addi	a5,a5,788 # ffffffc050348e30 <syscall>
ffffffc050300b24:	00008717          	auipc	a4,0x8
ffffffc050300b28:	22a70713          	addi	a4,a4,554 # ffffffc050308d4e <do_cond_signal>
ffffffc050300b2c:	12e7bc23          	sd	a4,312(a5)
ffffffc050300b30:	00048797          	auipc	a5,0x48
ffffffc050300b34:	30078793          	addi	a5,a5,768 # ffffffc050348e30 <syscall>
ffffffc050300b38:	00008717          	auipc	a4,0x8
ffffffc050300b3c:	24870713          	addi	a4,a4,584 # ffffffc050308d80 <do_cond_broadcast>
ffffffc050300b40:	14e7b023          	sd	a4,320(a5)
ffffffc050300b44:	00048797          	auipc	a5,0x48
ffffffc050300b48:	2ec78793          	addi	a5,a5,748 # ffffffc050348e30 <syscall>
ffffffc050300b4c:	00008717          	auipc	a4,0x8
ffffffc050300b50:	26870713          	addi	a4,a4,616 # ffffffc050308db4 <do_barrier_wait>
ffffffc050300b54:	14e7b423          	sd	a4,328(a5)
ffffffc050300b58:	00048797          	auipc	a5,0x48
ffffffc050300b5c:	2d878793          	addi	a5,a5,728 # ffffffc050348e30 <syscall>
ffffffc050300b60:	00008717          	auipc	a4,0x8
ffffffc050300b64:	2fc70713          	addi	a4,a4,764 # ffffffc050308e5c <do_mbox_open>
ffffffc050300b68:	14e7b823          	sd	a4,336(a5)
ffffffc050300b6c:	00048797          	auipc	a5,0x48
ffffffc050300b70:	2c478793          	addi	a5,a5,708 # ffffffc050348e30 <syscall>
ffffffc050300b74:	00008717          	auipc	a4,0x8
ffffffc050300b78:	41c70713          	addi	a4,a4,1052 # ffffffc050308f90 <do_mbox_close>
ffffffc050300b7c:	14e7bc23          	sd	a4,344(a5)
ffffffc050300b80:	00048797          	auipc	a5,0x48
ffffffc050300b84:	2b078793          	addi	a5,a5,688 # ffffffc050348e30 <syscall>
ffffffc050300b88:	00008717          	auipc	a4,0x8
ffffffc050300b8c:	43670713          	addi	a4,a4,1078 # ffffffc050308fbe <do_mbox_send>
ffffffc050300b90:	16e7b023          	sd	a4,352(a5)
ffffffc050300b94:	00048797          	auipc	a5,0x48
ffffffc050300b98:	29c78793          	addi	a5,a5,668 # ffffffc050348e30 <syscall>
ffffffc050300b9c:	00008717          	auipc	a4,0x8
ffffffc050300ba0:	57270713          	addi	a4,a4,1394 # ffffffc05030910e <do_mbox_recv>
ffffffc050300ba4:	16e7b423          	sd	a4,360(a5)
ffffffc050300ba8:	00048797          	auipc	a5,0x48
ffffffc050300bac:	28878793          	addi	a5,a5,648 # ffffffc050348e30 <syscall>
ffffffc050300bb0:	00006717          	auipc	a4,0x6
ffffffc050300bb4:	44070713          	addi	a4,a4,1088 # ffffffc050306ff0 <do_net_recv>
ffffffc050300bb8:	18e7b823          	sd	a4,400(a5)
ffffffc050300bbc:	00048797          	auipc	a5,0x48
ffffffc050300bc0:	27478793          	addi	a5,a5,628 # ffffffc050348e30 <syscall>
ffffffc050300bc4:	00006717          	auipc	a4,0x6
ffffffc050300bc8:	6e470713          	addi	a4,a4,1764 # ffffffc0503072a8 <do_net_send>
ffffffc050300bcc:	18e7bc23          	sd	a4,408(a5)
ffffffc050300bd0:	00048797          	auipc	a5,0x48
ffffffc050300bd4:	26078793          	addi	a5,a5,608 # ffffffc050348e30 <syscall>
ffffffc050300bd8:	00006717          	auipc	a4,0x6
ffffffc050300bdc:	76a70713          	addi	a4,a4,1898 # ffffffc050307342 <do_net_irq_mode>
ffffffc050300be0:	1ae7b023          	sd	a4,416(a5)
ffffffc050300be4:	0001                	nop
ffffffc050300be6:	6462                	ld	s0,24(sp)
ffffffc050300be8:	6105                	addi	sp,sp,32
ffffffc050300bea:	8082                	ret

ffffffc050300bec <main>:
ffffffc050300bec:	715d                	addi	sp,sp,-80
ffffffc050300bee:	e486                	sd	ra,72(sp)
ffffffc050300bf0:	e0a2                	sd	s0,64(sp)
ffffffc050300bf2:	0880                	addi	s0,sp,80
ffffffc050300bf4:	ec0ff0ef          	jal	ra,ffffffc0503002b4 <get_current_cpu_id>
ffffffc050300bf8:	fea43023          	sd	a0,-32(s0)
ffffffc050300bfc:	fe043783          	ld	a5,-32(s0)
ffffffc050300c00:	2e079663          	bnez	a5,ffffffc050300eec <main+0x300>
ffffffc050300c04:	ae1ff0ef          	jal	ra,ffffffc0503006e4 <init_pcb>
ffffffc050300c08:	0000a517          	auipc	a0,0xa
ffffffc050300c0c:	17850513          	addi	a0,a0,376 # ffffffc05030ad80 <get_elf_file+0xd0>
ffffffc050300c10:	7c1090ef          	jal	ra,ffffffc05030abd0 <printk>
ffffffc050300c14:	4501                	li	a0,0
ffffffc050300c16:	f58ff0ef          	jal	ra,ffffffc05030036e <sbi_read_fdt>
ffffffc050300c1a:	87aa                	mv	a5,a0
ffffffc050300c1c:	0007871b          	sext.w	a4,a5
ffffffc050300c20:	00037797          	auipc	a5,0x37
ffffffc050300c24:	93878793          	addi	a5,a5,-1736 # ffffffc050337558 <time_base>
ffffffc050300c28:	c398                	sw	a4,0(a5)
ffffffc050300c2a:	fc042e23          	sw	zero,-36(s0)
ffffffc050300c2e:	fc042c23          	sw	zero,-40(s0)
ffffffc050300c32:	4505                	li	a0,1
ffffffc050300c34:	f3aff0ef          	jal	ra,ffffffc05030036e <sbi_read_fdt>
ffffffc050300c38:	87aa                	mv	a5,a0
ffffffc050300c3a:	fcf42e23          	sw	a5,-36(s0)
ffffffc050300c3e:	fdc42783          	lw	a5,-36(s0)
ffffffc050300c42:	85be                	mv	a1,a5
ffffffc050300c44:	0000a517          	auipc	a0,0xa
ffffffc050300c48:	16c50513          	addi	a0,a0,364 # ffffffc05030adb0 <get_elf_file+0x100>
ffffffc050300c4c:	785090ef          	jal	ra,ffffffc05030abd0 <printk>
ffffffc050300c50:	4509                	li	a0,2
ffffffc050300c52:	f1cff0ef          	jal	ra,ffffffc05030036e <sbi_read_fdt>
ffffffc050300c56:	87aa                	mv	a5,a0
ffffffc050300c58:	fcf42c23          	sw	a5,-40(s0)
ffffffc050300c5c:	fd842783          	lw	a5,-40(s0)
ffffffc050300c60:	85be                	mv	a1,a5
ffffffc050300c62:	0000a517          	auipc	a0,0xa
ffffffc050300c66:	16650513          	addi	a0,a0,358 # ffffffc05030adc8 <get_elf_file+0x118>
ffffffc050300c6a:	767090ef          	jal	ra,ffffffc05030abd0 <printk>
ffffffc050300c6e:	fc042a23          	sw	zero,-44(s0)
ffffffc050300c72:	450d                	li	a0,3
ffffffc050300c74:	efaff0ef          	jal	ra,ffffffc05030036e <sbi_read_fdt>
ffffffc050300c78:	87aa                	mv	a5,a0
ffffffc050300c7a:	fcf42a23          	sw	a5,-44(s0)
ffffffc050300c7e:	fd442783          	lw	a5,-44(s0)
ffffffc050300c82:	85be                	mv	a1,a5
ffffffc050300c84:	0000a517          	auipc	a0,0xa
ffffffc050300c88:	15c50513          	addi	a0,a0,348 # ffffffc05030ade0 <get_elf_file+0x130>
ffffffc050300c8c:	745090ef          	jal	ra,ffffffc05030abd0 <printk>
ffffffc050300c90:	4511                	li	a0,4
ffffffc050300c92:	edcff0ef          	jal	ra,ffffffc05030036e <sbi_read_fdt>
ffffffc050300c96:	87aa                	mv	a5,a0
ffffffc050300c98:	fcf42823          	sw	a5,-48(s0)
ffffffc050300c9c:	fd042783          	lw	a5,-48(s0)
ffffffc050300ca0:	85be                	mv	a1,a5
ffffffc050300ca2:	0000a517          	auipc	a0,0xa
ffffffc050300ca6:	15650513          	addi	a0,a0,342 # ffffffc05030adf8 <get_elf_file+0x148>
ffffffc050300caa:	727090ef          	jal	ra,ffffffc05030abd0 <printk>
ffffffc050300cae:	fdc46783          	lwu	a5,-36(s0)
ffffffc050300cb2:	6585                	lui	a1,0x1
ffffffc050300cb4:	853e                	mv	a0,a5
ffffffc050300cb6:	1a6090ef          	jal	ra,ffffffc050309e5c <ioremap>
ffffffc050300cba:	87aa                	mv	a5,a0
ffffffc050300cbc:	873e                	mv	a4,a5
ffffffc050300cbe:	0003a797          	auipc	a5,0x3a
ffffffc050300cc2:	70a78793          	addi	a5,a5,1802 # ffffffc05033b3c8 <XPS_SYS_CTRL_BASEADDR>
ffffffc050300cc6:	e398                	sd	a4,0(a5)
ffffffc050300cc8:	fd846783          	lwu	a5,-40(s0)
ffffffc050300ccc:	6585                	lui	a1,0x1
ffffffc050300cce:	853e                	mv	a0,a5
ffffffc050300cd0:	18c090ef          	jal	ra,ffffffc050309e5c <ioremap>
ffffffc050300cd4:	87aa                	mv	a5,a0
ffffffc050300cd6:	873e                	mv	a4,a5
ffffffc050300cd8:	0003b797          	auipc	a5,0x3b
ffffffc050300cdc:	b4078793          	addi	a5,a5,-1216 # ffffffc05033b818 <xemacps_config>
ffffffc050300ce0:	e798                	sd	a4,8(a5)
ffffffc050300ce2:	fd446783          	lwu	a5,-44(s0)
ffffffc050300ce6:	040005b7          	lui	a1,0x4000
ffffffc050300cea:	853e                	mv	a0,a5
ffffffc050300cec:	170090ef          	jal	ra,ffffffc050309e5c <ioremap>
ffffffc050300cf0:	87aa                	mv	a5,a0
ffffffc050300cf2:	fcf43423          	sd	a5,-56(s0)
ffffffc050300cf6:	0003b797          	auipc	a5,0x3b
ffffffc050300cfa:	b2278793          	addi	a5,a5,-1246 # ffffffc05033b818 <xemacps_config>
ffffffc050300cfe:	00079023          	sh	zero,0(a5)
ffffffc050300d02:	0003b797          	auipc	a5,0x3b
ffffffc050300d06:	b1678793          	addi	a5,a5,-1258 # ffffffc05033b818 <xemacps_config>
ffffffc050300d0a:	00078823          	sb	zero,16(a5)
ffffffc050300d0e:	0003a797          	auipc	a5,0x3a
ffffffc050300d12:	6ba78793          	addi	a5,a5,1722 # ffffffc05033b3c8 <XPS_SYS_CTRL_BASEADDR>
ffffffc050300d16:	6398                	ld	a4,0(a5)
ffffffc050300d18:	fdc42783          	lw	a5,-36(s0)
ffffffc050300d1c:	863a                	mv	a2,a4
ffffffc050300d1e:	85be                	mv	a1,a5
ffffffc050300d20:	0000a517          	auipc	a0,0xa
ffffffc050300d24:	0f050513          	addi	a0,a0,240 # ffffffc05030ae10 <get_elf_file+0x160>
ffffffc050300d28:	6a9090ef          	jal	ra,ffffffc05030abd0 <printk>
ffffffc050300d2c:	0003b797          	auipc	a5,0x3b
ffffffc050300d30:	aec78793          	addi	a5,a5,-1300 # ffffffc05033b818 <xemacps_config>
ffffffc050300d34:	6798                	ld	a4,8(a5)
ffffffc050300d36:	fd842783          	lw	a5,-40(s0)
ffffffc050300d3a:	863a                	mv	a2,a4
ffffffc050300d3c:	85be                	mv	a1,a5
ffffffc050300d3e:	0000a517          	auipc	a0,0xa
ffffffc050300d42:	0fa50513          	addi	a0,a0,250 # ffffffc05030ae38 <get_elf_file+0x188>
ffffffc050300d46:	68b090ef          	jal	ra,ffffffc05030abd0 <printk>
ffffffc050300d4a:	fd442783          	lw	a5,-44(s0)
ffffffc050300d4e:	fc843603          	ld	a2,-56(s0)
ffffffc050300d52:	85be                	mv	a1,a5
ffffffc050300d54:	0000a517          	auipc	a0,0xa
ffffffc050300d58:	10c50513          	addi	a0,a0,268 # ffffffc05030ae60 <get_elf_file+0x1b0>
ffffffc050300d5c:	675090ef          	jal	ra,ffffffc05030abd0 <printk>
ffffffc050300d60:	fd042783          	lw	a5,-48(s0)
ffffffc050300d64:	85be                	mv	a1,a5
ffffffc050300d66:	fc843503          	ld	a0,-56(s0)
ffffffc050300d6a:	0a9060ef          	jal	ra,ffffffc050307612 <plic_init>
ffffffc050300d6e:	0003a517          	auipc	a0,0x3a
ffffffc050300d72:	8c250513          	addi	a0,a0,-1854 # ffffffc05033a630 <EmacPsInstance>
ffffffc050300d76:	665040ef          	jal	ra,ffffffc050305bda <EmacPsInit>
ffffffc050300d7a:	fca43023          	sd	a0,-64(s0)
ffffffc050300d7e:	fc043783          	ld	a5,-64(s0)
ffffffc050300d82:	c39d                	beqz	a5,ffffffc050300da8 <main+0x1bc>
ffffffc050300d84:	0000a517          	auipc	a0,0xa
ffffffc050300d88:	0fc50513          	addi	a0,a0,252 # ffffffc05030ae80 <get_elf_file+0x1d0>
ffffffc050300d8c:	645090ef          	jal	ra,ffffffc05030abd0 <printk>
ffffffc050300d90:	00036617          	auipc	a2,0x36
ffffffc050300d94:	74860613          	addi	a2,a2,1864 # ffffffc0503374d8 <__SDATA_BEGIN__>
ffffffc050300d98:	0f000593          	li	a1,240
ffffffc050300d9c:	0000a517          	auipc	a0,0xa
ffffffc050300da0:	11450513          	addi	a0,a0,276 # ffffffc05030aeb0 <get_elf_file+0x200>
ffffffc050300da4:	df2ff0ef          	jal	ra,ffffffc050300396 <_panic>
ffffffc050300da8:	4c5060ef          	jal	ra,ffffffc050307a6c <init_system_futex>
ffffffc050300dac:	390000ef          	jal	ra,ffffffc05030113c <init_exception>
ffffffc050300db0:	0000a517          	auipc	a0,0xa
ffffffc050300db4:	11050513          	addi	a0,a0,272 # ffffffc05030aec0 <get_elf_file+0x210>
ffffffc050300db8:	619090ef          	jal	ra,ffffffc05030abd0 <printk>
ffffffc050300dbc:	b43ff0ef          	jal	ra,ffffffc0503008fe <init_syscall>
ffffffc050300dc0:	0000a517          	auipc	a0,0xa
ffffffc050300dc4:	14050513          	addi	a0,a0,320 # ffffffc05030af00 <get_elf_file+0x250>
ffffffc050300dc8:	609090ef          	jal	ra,ffffffc05030abd0 <printk>
ffffffc050300dcc:	161000ef          	jal	ra,ffffffc05030172c <init_screen>
ffffffc050300dd0:	0000a517          	auipc	a0,0xa
ffffffc050300dd4:	16850513          	addi	a0,a0,360 # ffffffc05030af38 <get_elf_file+0x288>
ffffffc050300dd8:	5f9090ef          	jal	ra,ffffffc05030abd0 <printk>
ffffffc050300ddc:	fe042623          	sw	zero,-20(s0)
ffffffc050300de0:	a025                	j	ffffffc050300e08 <main+0x21c>
ffffffc050300de2:	fec42703          	lw	a4,-20(s0)
ffffffc050300de6:	87ba                	mv	a5,a4
ffffffc050300de8:	0786                	slli	a5,a5,0x1
ffffffc050300dea:	97ba                	add	a5,a5,a4
ffffffc050300dec:	078e                	slli	a5,a5,0x3
ffffffc050300dee:	00039717          	auipc	a4,0x39
ffffffc050300df2:	5e270713          	addi	a4,a4,1506 # ffffffc05033a3d0 <binsem>
ffffffc050300df6:	97ba                	add	a5,a5,a4
ffffffc050300df8:	853e                	mv	a0,a5
ffffffc050300dfa:	18b060ef          	jal	ra,ffffffc050307784 <do_mutex_lock_init>
ffffffc050300dfe:	fec42783          	lw	a5,-20(s0)
ffffffc050300e02:	2785                	addiw	a5,a5,1
ffffffc050300e04:	fef42623          	sw	a5,-20(s0)
ffffffc050300e08:	fec42783          	lw	a5,-20(s0)
ffffffc050300e0c:	0007871b          	sext.w	a4,a5
ffffffc050300e10:	47bd                	li	a5,15
ffffffc050300e12:	fce7d8e3          	bge	a5,a4,ffffffc050300de2 <main+0x1f6>
ffffffc050300e16:	fe042623          	sw	zero,-20(s0)
ffffffc050300e1a:	a879                	j	ffffffc050300eb8 <main+0x2cc>
ffffffc050300e1c:	00047697          	auipc	a3,0x47
ffffffc050300e20:	78c68693          	addi	a3,a3,1932 # ffffffc0503485a8 <mailbox_k>
ffffffc050300e24:	fec42703          	lw	a4,-20(s0)
ffffffc050300e28:	87ba                	mv	a5,a4
ffffffc050300e2a:	0792                	slli	a5,a5,0x4
ffffffc050300e2c:	97ba                	add	a5,a5,a4
ffffffc050300e2e:	078e                	slli	a5,a5,0x3
ffffffc050300e30:	97b6                	add	a5,a5,a3
ffffffc050300e32:	0407ae23          	sw	zero,92(a5)
ffffffc050300e36:	00047697          	auipc	a3,0x47
ffffffc050300e3a:	77268693          	addi	a3,a3,1906 # ffffffc0503485a8 <mailbox_k>
ffffffc050300e3e:	fec42703          	lw	a4,-20(s0)
ffffffc050300e42:	87ba                	mv	a5,a4
ffffffc050300e44:	0792                	slli	a5,a5,0x4
ffffffc050300e46:	97ba                	add	a5,a5,a4
ffffffc050300e48:	078e                	slli	a5,a5,0x3
ffffffc050300e4a:	97b6                	add	a5,a5,a3
ffffffc050300e4c:	0607a023          	sw	zero,96(a5)
ffffffc050300e50:	00047697          	auipc	a3,0x47
ffffffc050300e54:	75868693          	addi	a3,a3,1880 # ffffffc0503485a8 <mailbox_k>
ffffffc050300e58:	fec42703          	lw	a4,-20(s0)
ffffffc050300e5c:	87ba                	mv	a5,a4
ffffffc050300e5e:	0792                	slli	a5,a5,0x4
ffffffc050300e60:	97ba                	add	a5,a5,a4
ffffffc050300e62:	078e                	slli	a5,a5,0x3
ffffffc050300e64:	97b6                	add	a5,a5,a3
ffffffc050300e66:	4705                	li	a4,1
ffffffc050300e68:	d3f8                	sw	a4,100(a5)
ffffffc050300e6a:	fec42703          	lw	a4,-20(s0)
ffffffc050300e6e:	87ba                	mv	a5,a4
ffffffc050300e70:	0792                	slli	a5,a5,0x4
ffffffc050300e72:	97ba                	add	a5,a5,a4
ffffffc050300e74:	078e                	slli	a5,a5,0x3
ffffffc050300e76:	06078713          	addi	a4,a5,96
ffffffc050300e7a:	00047797          	auipc	a5,0x47
ffffffc050300e7e:	72e78793          	addi	a5,a5,1838 # ffffffc0503485a8 <mailbox_k>
ffffffc050300e82:	97ba                	add	a5,a5,a4
ffffffc050300e84:	07a1                	addi	a5,a5,8
ffffffc050300e86:	853e                	mv	a0,a5
ffffffc050300e88:	c32ff0ef          	jal	ra,ffffffc0503002ba <init_list_head>
ffffffc050300e8c:	fec42703          	lw	a4,-20(s0)
ffffffc050300e90:	87ba                	mv	a5,a4
ffffffc050300e92:	0792                	slli	a5,a5,0x4
ffffffc050300e94:	97ba                	add	a5,a5,a4
ffffffc050300e96:	078e                	slli	a5,a5,0x3
ffffffc050300e98:	07078713          	addi	a4,a5,112
ffffffc050300e9c:	00047797          	auipc	a5,0x47
ffffffc050300ea0:	70c78793          	addi	a5,a5,1804 # ffffffc0503485a8 <mailbox_k>
ffffffc050300ea4:	97ba                	add	a5,a5,a4
ffffffc050300ea6:	07a1                	addi	a5,a5,8
ffffffc050300ea8:	853e                	mv	a0,a5
ffffffc050300eaa:	c10ff0ef          	jal	ra,ffffffc0503002ba <init_list_head>
ffffffc050300eae:	fec42783          	lw	a5,-20(s0)
ffffffc050300eb2:	2785                	addiw	a5,a5,1
ffffffc050300eb4:	fef42623          	sw	a5,-20(s0)
ffffffc050300eb8:	fec42783          	lw	a5,-20(s0)
ffffffc050300ebc:	0007871b          	sext.w	a4,a5
ffffffc050300ec0:	47bd                	li	a5,15
ffffffc050300ec2:	f4e7dde3          	bge	a5,a4,ffffffc050300e1c <main+0x230>
ffffffc050300ec6:	00047797          	auipc	a5,0x47
ffffffc050300eca:	9ba78793          	addi	a5,a5,-1606 # ffffffc050347880 <net_poll_mode>
ffffffc050300ece:	4705                	li	a4,1
ffffffc050300ed0:	c398                	sw	a4,0(a5)
ffffffc050300ed2:	4c9080ef          	jal	ra,ffffffc050309b9a <lock_kernel>
ffffffc050300ed6:	fe02f7b7          	lui	a5,0xfe02f
ffffffc050300eda:	07b6                	slli	a5,a5,0xd
ffffffc050300edc:	07a1                	addi	a5,a5,8
ffffffc050300ede:	faf43c23          	sd	a5,-72(s0)
ffffffc050300ee2:	fb843783          	ld	a5,-72(s0)
ffffffc050300ee6:	0007b023          	sd	zero,0(a5) # fffffffffe02f000 <__BSS_END__+0x3fadce5fd0>
ffffffc050300eea:	a029                	j	ffffffc050300ef4 <main+0x308>
ffffffc050300eec:	4af080ef          	jal	ra,ffffffc050309b9a <lock_kernel>
ffffffc050300ef0:	984ff0ef          	jal	ra,ffffffc050300074 <setup_exception>
ffffffc050300ef4:	fe043583          	ld	a1,-32(s0)
ffffffc050300ef8:	0000a517          	auipc	a0,0xa
ffffffc050300efc:	07050513          	addi	a0,a0,112 # ffffffc05030af68 <get_elf_file+0x2b8>
ffffffc050300f00:	4d1090ef          	jal	ra,ffffffc05030abd0 <printk>
ffffffc050300f04:	154000ef          	jal	ra,ffffffc050301058 <reset_irq_timer>
ffffffc050300f08:	4a1080ef          	jal	ra,ffffffc050309ba8 <unlock_kernel>
ffffffc050300f0c:	990ff0ef          	jal	ra,ffffffc05030009c <enable_interrupt>
ffffffc050300f10:	a001                	j	ffffffc050300f10 <main+0x324>

ffffffc050300f12 <list_empty>:
ffffffc050300f12:	1101                	addi	sp,sp,-32
ffffffc050300f14:	ec22                	sd	s0,24(sp)
ffffffc050300f16:	1000                	addi	s0,sp,32
ffffffc050300f18:	fea43423          	sd	a0,-24(s0)
ffffffc050300f1c:	fe843783          	ld	a5,-24(s0)
ffffffc050300f20:	639c                	ld	a5,0(a5)
ffffffc050300f22:	fe843703          	ld	a4,-24(s0)
ffffffc050300f26:	40f707b3          	sub	a5,a4,a5
ffffffc050300f2a:	0017b793          	seqz	a5,a5
ffffffc050300f2e:	0ff7f793          	andi	a5,a5,255
ffffffc050300f32:	2781                	sext.w	a5,a5
ffffffc050300f34:	853e                	mv	a0,a5
ffffffc050300f36:	6462                	ld	s0,24(sp)
ffffffc050300f38:	6105                	addi	sp,sp,32
ffffffc050300f3a:	8082                	ret

ffffffc050300f3c <_panic>:
ffffffc050300f3c:	7179                	addi	sp,sp,-48
ffffffc050300f3e:	f406                	sd	ra,40(sp)
ffffffc050300f40:	f022                	sd	s0,32(sp)
ffffffc050300f42:	1800                	addi	s0,sp,48
ffffffc050300f44:	fea43423          	sd	a0,-24(s0)
ffffffc050300f48:	87ae                	mv	a5,a1
ffffffc050300f4a:	fcc43c23          	sd	a2,-40(s0)
ffffffc050300f4e:	fef42223          	sw	a5,-28(s0)
ffffffc050300f52:	fe442783          	lw	a5,-28(s0)
ffffffc050300f56:	86be                	mv	a3,a5
ffffffc050300f58:	fe843603          	ld	a2,-24(s0)
ffffffc050300f5c:	fd843583          	ld	a1,-40(s0)
ffffffc050300f60:	0000a517          	auipc	a0,0xa
ffffffc050300f64:	12050513          	addi	a0,a0,288 # ffffffc05030b080 <get_elf_file+0x3d0>
ffffffc050300f68:	469090ef          	jal	ra,ffffffc05030abd0 <printk>
ffffffc050300f6c:	a001                	j	ffffffc050300f6c <_panic+0x30>

ffffffc050300f6e <sbi_set_timer>:
ffffffc050300f6e:	1101                	addi	sp,sp,-32
ffffffc050300f70:	ec22                	sd	s0,24(sp)
ffffffc050300f72:	1000                	addi	s0,sp,32
ffffffc050300f74:	fea43423          	sd	a0,-24(s0)
ffffffc050300f78:	fe843503          	ld	a0,-24(s0)
ffffffc050300f7c:	4581                	li	a1,0
ffffffc050300f7e:	4601                	li	a2,0
ffffffc050300f80:	4881                	li	a7,0
ffffffc050300f82:	00000073          	ecall
ffffffc050300f86:	0001                	nop
ffffffc050300f88:	6462                	ld	s0,24(sp)
ffffffc050300f8a:	6105                	addi	sp,sp,32
ffffffc050300f8c:	8082                	ret

ffffffc050300f8e <writel>:
ffffffc050300f8e:	1101                	addi	sp,sp,-32
ffffffc050300f90:	ec22                	sd	s0,24(sp)
ffffffc050300f92:	1000                	addi	s0,sp,32
ffffffc050300f94:	87aa                	mv	a5,a0
ffffffc050300f96:	feb43023          	sd	a1,-32(s0)
ffffffc050300f9a:	fef42623          	sw	a5,-20(s0)
ffffffc050300f9e:	0550000f          	fence	ow,ow
ffffffc050300fa2:	fe043783          	ld	a5,-32(s0)
ffffffc050300fa6:	fec42703          	lw	a4,-20(s0)
ffffffc050300faa:	c398                	sw	a4,0(a5)
ffffffc050300fac:	0001                	nop
ffffffc050300fae:	6462                	ld	s0,24(sp)
ffffffc050300fb0:	6105                	addi	sp,sp,32
ffffffc050300fb2:	8082                	ret

ffffffc050300fb4 <readl>:
ffffffc050300fb4:	7179                	addi	sp,sp,-48
ffffffc050300fb6:	f422                	sd	s0,40(sp)
ffffffc050300fb8:	1800                	addi	s0,sp,48
ffffffc050300fba:	fca43c23          	sd	a0,-40(s0)
ffffffc050300fbe:	fd843783          	ld	a5,-40(s0)
ffffffc050300fc2:	439c                	lw	a5,0(a5)
ffffffc050300fc4:	fef42623          	sw	a5,-20(s0)
ffffffc050300fc8:	0aa0000f          	fence	ir,ir
ffffffc050300fcc:	fec42783          	lw	a5,-20(s0)
ffffffc050300fd0:	853e                	mv	a0,a5
ffffffc050300fd2:	7422                	ld	s0,40(sp)
ffffffc050300fd4:	6145                	addi	sp,sp,48
ffffffc050300fd6:	8082                	ret

ffffffc050300fd8 <local_flush_dcache_all>:
ffffffc050300fd8:	1141                	addi	sp,sp,-16
ffffffc050300fda:	e422                	sd	s0,8(sp)
ffffffc050300fdc:	0800                	addi	s0,sp,16
ffffffc050300fde:	0ff0000f          	fence
ffffffc050300fe2:	0001                	nop
ffffffc050300fe4:	6422                	ld	s0,8(sp)
ffffffc050300fe6:	0141                	addi	sp,sp,16
ffffffc050300fe8:	8082                	ret

ffffffc050300fea <Xil_Out32>:
ffffffc050300fea:	1101                	addi	sp,sp,-32
ffffffc050300fec:	ec06                	sd	ra,24(sp)
ffffffc050300fee:	e822                	sd	s0,16(sp)
ffffffc050300ff0:	1000                	addi	s0,sp,32
ffffffc050300ff2:	fea43423          	sd	a0,-24(s0)
ffffffc050300ff6:	87ae                	mv	a5,a1
ffffffc050300ff8:	fef42223          	sw	a5,-28(s0)
ffffffc050300ffc:	fe843703          	ld	a4,-24(s0)
ffffffc050301000:	fe442783          	lw	a5,-28(s0)
ffffffc050301004:	85ba                	mv	a1,a4
ffffffc050301006:	853e                	mv	a0,a5
ffffffc050301008:	f87ff0ef          	jal	ra,ffffffc050300f8e <writel>
ffffffc05030100c:	0001                	nop
ffffffc05030100e:	60e2                	ld	ra,24(sp)
ffffffc050301010:	6442                	ld	s0,16(sp)
ffffffc050301012:	6105                	addi	sp,sp,32
ffffffc050301014:	8082                	ret

ffffffc050301016 <Xil_In32>:
ffffffc050301016:	1101                	addi	sp,sp,-32
ffffffc050301018:	ec06                	sd	ra,24(sp)
ffffffc05030101a:	e822                	sd	s0,16(sp)
ffffffc05030101c:	1000                	addi	s0,sp,32
ffffffc05030101e:	fea43423          	sd	a0,-24(s0)
ffffffc050301022:	fe843783          	ld	a5,-24(s0)
ffffffc050301026:	853e                	mv	a0,a5
ffffffc050301028:	f8dff0ef          	jal	ra,ffffffc050300fb4 <readl>
ffffffc05030102c:	87aa                	mv	a5,a0
ffffffc05030102e:	2781                	sext.w	a5,a5
ffffffc050301030:	853e                	mv	a0,a5
ffffffc050301032:	60e2                	ld	ra,24(sp)
ffffffc050301034:	6442                	ld	s0,16(sp)
ffffffc050301036:	6105                	addi	sp,sp,32
ffffffc050301038:	8082                	ret

ffffffc05030103a <Xil_DCacheFlushRange>:
ffffffc05030103a:	1101                	addi	sp,sp,-32
ffffffc05030103c:	ec06                	sd	ra,24(sp)
ffffffc05030103e:	e822                	sd	s0,16(sp)
ffffffc050301040:	1000                	addi	s0,sp,32
ffffffc050301042:	fea43423          	sd	a0,-24(s0)
ffffffc050301046:	feb43023          	sd	a1,-32(s0)
ffffffc05030104a:	f8fff0ef          	jal	ra,ffffffc050300fd8 <local_flush_dcache_all>
ffffffc05030104e:	0001                	nop
ffffffc050301050:	60e2                	ld	ra,24(sp)
ffffffc050301052:	6442                	ld	s0,16(sp)
ffffffc050301054:	6105                	addi	sp,sp,32
ffffffc050301056:	8082                	ret

ffffffc050301058 <reset_irq_timer>:
ffffffc050301058:	1101                	addi	sp,sp,-32
ffffffc05030105a:	ec06                	sd	ra,24(sp)
ffffffc05030105c:	e822                	sd	s0,16(sp)
ffffffc05030105e:	1000                	addi	s0,sp,32
ffffffc050301060:	053000ef          	jal	ra,ffffffc0503018b2 <screen_reflush>
ffffffc050301064:	1af080ef          	jal	ra,ffffffc050309a12 <timer_check>
ffffffc050301068:	235080ef          	jal	ra,ffffffc050309a9c <get_ticks>
ffffffc05030106c:	872a                	mv	a4,a0
ffffffc05030106e:	00036797          	auipc	a5,0x36
ffffffc050301072:	4ea78793          	addi	a5,a5,1258 # ffffffc050337558 <time_base>
ffffffc050301076:	439c                	lw	a5,0(a5)
ffffffc050301078:	86be                	mv	a3,a5
ffffffc05030107a:	0c800793          	li	a5,200
ffffffc05030107e:	02f6d7bb          	divuw	a5,a3,a5
ffffffc050301082:	2781                	sext.w	a5,a5
ffffffc050301084:	1782                	slli	a5,a5,0x20
ffffffc050301086:	9381                	srli	a5,a5,0x20
ffffffc050301088:	97ba                	add	a5,a5,a4
ffffffc05030108a:	fef43423          	sd	a5,-24(s0)
ffffffc05030108e:	fe843503          	ld	a0,-24(s0)
ffffffc050301092:	eddff0ef          	jal	ra,ffffffc050300f6e <sbi_set_timer>
ffffffc050301096:	0a6070ef          	jal	ra,ffffffc05030813c <do_scheduler>
ffffffc05030109a:	0001                	nop
ffffffc05030109c:	60e2                	ld	ra,24(sp)
ffffffc05030109e:	6442                	ld	s0,16(sp)
ffffffc0503010a0:	6105                	addi	sp,sp,32
ffffffc0503010a2:	8082                	ret

ffffffc0503010a4 <interrupt_helper>:
ffffffc0503010a4:	7179                	addi	sp,sp,-48
ffffffc0503010a6:	f406                	sd	ra,40(sp)
ffffffc0503010a8:	f022                	sd	s0,32(sp)
ffffffc0503010aa:	1800                	addi	s0,sp,48
ffffffc0503010ac:	fea43423          	sd	a0,-24(s0)
ffffffc0503010b0:	feb43023          	sd	a1,-32(s0)
ffffffc0503010b4:	fcc43c23          	sd	a2,-40(s0)
ffffffc0503010b8:	fd843783          	ld	a5,-40(s0)
ffffffc0503010bc:	0207c563          	bltz	a5,ffffffc0503010e6 <interrupt_helper+0x42>
ffffffc0503010c0:	fe843783          	ld	a5,-24(s0)
ffffffc0503010c4:	1187b783          	ld	a5,280(a5)
ffffffc0503010c8:	00039717          	auipc	a4,0x39
ffffffc0503010cc:	48870713          	addi	a4,a4,1160 # ffffffc05033a550 <exc_table>
ffffffc0503010d0:	078e                	slli	a5,a5,0x3
ffffffc0503010d2:	97ba                	add	a5,a5,a4
ffffffc0503010d4:	639c                	ld	a5,0(a5)
ffffffc0503010d6:	fd843603          	ld	a2,-40(s0)
ffffffc0503010da:	fe043583          	ld	a1,-32(s0)
ffffffc0503010de:	fe843503          	ld	a0,-24(s0)
ffffffc0503010e2:	9782                	jalr	a5
ffffffc0503010e4:	a035                	j	ffffffc050301110 <interrupt_helper+0x6c>
ffffffc0503010e6:	fe843783          	ld	a5,-24(s0)
ffffffc0503010ea:	1187b703          	ld	a4,280(a5)
ffffffc0503010ee:	57fd                	li	a5,-1
ffffffc0503010f0:	17fe                	slli	a5,a5,0x3f
ffffffc0503010f2:	97ba                	add	a5,a5,a4
ffffffc0503010f4:	00039717          	auipc	a4,0x39
ffffffc0503010f8:	4dc70713          	addi	a4,a4,1244 # ffffffc05033a5d0 <irq_table>
ffffffc0503010fc:	078e                	slli	a5,a5,0x3
ffffffc0503010fe:	97ba                	add	a5,a5,a4
ffffffc050301100:	639c                	ld	a5,0(a5)
ffffffc050301102:	fd843603          	ld	a2,-40(s0)
ffffffc050301106:	fe043583          	ld	a1,-32(s0)
ffffffc05030110a:	fe843503          	ld	a0,-24(s0)
ffffffc05030110e:	9782                	jalr	a5
ffffffc050301110:	0001                	nop
ffffffc050301112:	70a2                	ld	ra,40(sp)
ffffffc050301114:	7402                	ld	s0,32(sp)
ffffffc050301116:	6145                	addi	sp,sp,48
ffffffc050301118:	8082                	ret

ffffffc05030111a <handle_int>:
ffffffc05030111a:	7179                	addi	sp,sp,-48
ffffffc05030111c:	f406                	sd	ra,40(sp)
ffffffc05030111e:	f022                	sd	s0,32(sp)
ffffffc050301120:	1800                	addi	s0,sp,48
ffffffc050301122:	fea43423          	sd	a0,-24(s0)
ffffffc050301126:	feb43023          	sd	a1,-32(s0)
ffffffc05030112a:	fcc43c23          	sd	a2,-40(s0)
ffffffc05030112e:	f2bff0ef          	jal	ra,ffffffc050301058 <reset_irq_timer>
ffffffc050301132:	0001                	nop
ffffffc050301134:	70a2                	ld	ra,40(sp)
ffffffc050301136:	7402                	ld	s0,32(sp)
ffffffc050301138:	6145                	addi	sp,sp,48
ffffffc05030113a:	8082                	ret

ffffffc05030113c <init_exception>:
ffffffc05030113c:	1101                	addi	sp,sp,-32
ffffffc05030113e:	ec06                	sd	ra,24(sp)
ffffffc050301140:	e822                	sd	s0,16(sp)
ffffffc050301142:	1000                	addi	s0,sp,32
ffffffc050301144:	fe042623          	sw	zero,-20(s0)
ffffffc050301148:	a01d                	j	ffffffc05030116e <init_exception+0x32>
ffffffc05030114a:	00039717          	auipc	a4,0x39
ffffffc05030114e:	48670713          	addi	a4,a4,1158 # ffffffc05033a5d0 <irq_table>
ffffffc050301152:	fec42783          	lw	a5,-20(s0)
ffffffc050301156:	078e                	slli	a5,a5,0x3
ffffffc050301158:	97ba                	add	a5,a5,a4
ffffffc05030115a:	00000717          	auipc	a4,0x0
ffffffc05030115e:	26470713          	addi	a4,a4,612 # ffffffc0503013be <handle_other>
ffffffc050301162:	e398                	sd	a4,0(a5)
ffffffc050301164:	fec42783          	lw	a5,-20(s0)
ffffffc050301168:	2785                	addiw	a5,a5,1
ffffffc05030116a:	fef42623          	sw	a5,-20(s0)
ffffffc05030116e:	fec42783          	lw	a5,-20(s0)
ffffffc050301172:	0007871b          	sext.w	a4,a5
ffffffc050301176:	47ad                	li	a5,11
ffffffc050301178:	fce7d9e3          	bge	a5,a4,ffffffc05030114a <init_exception+0xe>
ffffffc05030117c:	00039797          	auipc	a5,0x39
ffffffc050301180:	45478793          	addi	a5,a5,1108 # ffffffc05033a5d0 <irq_table>
ffffffc050301184:	00000717          	auipc	a4,0x0
ffffffc050301188:	f9670713          	addi	a4,a4,-106 # ffffffc05030111a <handle_int>
ffffffc05030118c:	f798                	sd	a4,40(a5)
ffffffc05030118e:	00039797          	auipc	a5,0x39
ffffffc050301192:	44278793          	addi	a5,a5,1090 # ffffffc05033a5d0 <irq_table>
ffffffc050301196:	00006717          	auipc	a4,0x6
ffffffc05030119a:	40670713          	addi	a4,a4,1030 # ffffffc05030759c <plic_handle_irq>
ffffffc05030119e:	e7b8                	sd	a4,72(a5)
ffffffc0503011a0:	fe042623          	sw	zero,-20(s0)
ffffffc0503011a4:	a01d                	j	ffffffc0503011ca <init_exception+0x8e>
ffffffc0503011a6:	00039717          	auipc	a4,0x39
ffffffc0503011aa:	3aa70713          	addi	a4,a4,938 # ffffffc05033a550 <exc_table>
ffffffc0503011ae:	fec42783          	lw	a5,-20(s0)
ffffffc0503011b2:	078e                	slli	a5,a5,0x3
ffffffc0503011b4:	97ba                	add	a5,a5,a4
ffffffc0503011b6:	00000717          	auipc	a4,0x0
ffffffc0503011ba:	20870713          	addi	a4,a4,520 # ffffffc0503013be <handle_other>
ffffffc0503011be:	e398                	sd	a4,0(a5)
ffffffc0503011c0:	fec42783          	lw	a5,-20(s0)
ffffffc0503011c4:	2785                	addiw	a5,a5,1
ffffffc0503011c6:	fef42623          	sw	a5,-20(s0)
ffffffc0503011ca:	fec42783          	lw	a5,-20(s0)
ffffffc0503011ce:	0007871b          	sext.w	a4,a5
ffffffc0503011d2:	47bd                	li	a5,15
ffffffc0503011d4:	fce7d9e3          	bge	a5,a4,ffffffc0503011a6 <init_exception+0x6a>
ffffffc0503011d8:	00039797          	auipc	a5,0x39
ffffffc0503011dc:	37878793          	addi	a5,a5,888 # ffffffc05033a550 <exc_table>
ffffffc0503011e0:	00009717          	auipc	a4,0x9
ffffffc0503011e4:	cb670713          	addi	a4,a4,-842 # ffffffc050309e96 <handle_syscall>
ffffffc0503011e8:	e3b8                	sd	a4,64(a5)
ffffffc0503011ea:	e8bfe0ef          	jal	ra,ffffffc050300074 <setup_exception>
ffffffc0503011ee:	0001                	nop
ffffffc0503011f0:	60e2                	ld	ra,24(sp)
ffffffc0503011f2:	6442                	ld	s0,16(sp)
ffffffc0503011f4:	6105                	addi	sp,sp,32
ffffffc0503011f6:	8082                	ret

ffffffc0503011f8 <handle_pagefault>:
ffffffc0503011f8:	7139                	addi	sp,sp,-64
ffffffc0503011fa:	fc06                	sd	ra,56(sp)
ffffffc0503011fc:	f822                	sd	s0,48(sp)
ffffffc0503011fe:	0080                	addi	s0,sp,64
ffffffc050301200:	fca43c23          	sd	a0,-40(s0)
ffffffc050301204:	fcb43823          	sd	a1,-48(s0)
ffffffc050301208:	fcc43423          	sd	a2,-56(s0)
ffffffc05030120c:	8a8ff0ef          	jal	ra,ffffffc0503002b4 <get_current_cpu_id>
ffffffc050301210:	fea43423          	sd	a0,-24(s0)
ffffffc050301214:	00047717          	auipc	a4,0x47
ffffffc050301218:	38470713          	addi	a4,a4,900 # ffffffc050348598 <current_running>
ffffffc05030121c:	fe843783          	ld	a5,-24(s0)
ffffffc050301220:	078e                	slli	a5,a5,0x3
ffffffc050301222:	97ba                	add	a5,a5,a4
ffffffc050301224:	639c                	ld	a5,0(a5)
ffffffc050301226:	77fc                	ld	a5,232(a5)
ffffffc050301228:	85be                	mv	a1,a5
ffffffc05030122a:	fd043503          	ld	a0,-48(s0)
ffffffc05030122e:	2df080ef          	jal	ra,ffffffc050309d0c <alloc_page_helper>
ffffffc050301232:	fea43023          	sd	a0,-32(s0)
ffffffc050301236:	0001                	nop
ffffffc050301238:	70e2                	ld	ra,56(sp)
ffffffc05030123a:	7442                	ld	s0,48(sp)
ffffffc05030123c:	6121                	addi	sp,sp,64
ffffffc05030123e:	8082                	ret

ffffffc050301240 <handle_irq>:
ffffffc050301240:	7179                	addi	sp,sp,-48
ffffffc050301242:	f406                	sd	ra,40(sp)
ffffffc050301244:	f022                	sd	s0,32(sp)
ffffffc050301246:	1800                	addi	s0,sp,48
ffffffc050301248:	fca43c23          	sd	a0,-40(s0)
ffffffc05030124c:	fcb43823          	sd	a1,-48(s0)
ffffffc050301250:	00039797          	auipc	a5,0x39
ffffffc050301254:	3e078793          	addi	a5,a5,992 # ffffffc05033a630 <EmacPsInstance>
ffffffc050301258:	679c                	ld	a5,8(a5)
ffffffc05030125a:	02478793          	addi	a5,a5,36
ffffffc05030125e:	853e                	mv	a0,a5
ffffffc050301260:	db7ff0ef          	jal	ra,ffffffc050301016 <Xil_In32>
ffffffc050301264:	87aa                	mv	a5,a0
ffffffc050301266:	fef42423          	sw	a5,-24(s0)
ffffffc05030126a:	fe842783          	lw	a5,-24(s0)
ffffffc05030126e:	8b89                	andi	a5,a5,2
ffffffc050301270:	2781                	sext.w	a5,a5
ffffffc050301272:	c7dd                	beqz	a5,ffffffc050301320 <handle_irq+0xe0>
ffffffc050301274:	fe042623          	sw	zero,-20(s0)
ffffffc050301278:	a031                	j	ffffffc050301284 <handle_irq+0x44>
ffffffc05030127a:	fec42783          	lw	a5,-20(s0)
ffffffc05030127e:	2785                	addiw	a5,a5,1
ffffffc050301280:	fef42623          	sw	a5,-20(s0)
ffffffc050301284:	0003a717          	auipc	a4,0x3a
ffffffc050301288:	17c70713          	addi	a4,a4,380 # ffffffc05033b400 <bd_space>
ffffffc05030128c:	fec42783          	lw	a5,-20(s0)
ffffffc050301290:	078e                	slli	a5,a5,0x3
ffffffc050301292:	97ba                	add	a5,a5,a4
ffffffc050301294:	639c                	ld	a5,0(a5)
ffffffc050301296:	8b85                	andi	a5,a5,1
ffffffc050301298:	f3ed                	bnez	a5,ffffffc05030127a <handle_irq+0x3a>
ffffffc05030129a:	fec42783          	lw	a5,-20(s0)
ffffffc05030129e:	37fd                	addiw	a5,a5,-1
ffffffc0503012a0:	2781                	sext.w	a5,a5
ffffffc0503012a2:	0003a717          	auipc	a4,0x3a
ffffffc0503012a6:	15e70713          	addi	a4,a4,350 # ffffffc05033b400 <bd_space>
ffffffc0503012aa:	078e                	slli	a5,a5,0x3
ffffffc0503012ac:	97ba                	add	a5,a5,a4
ffffffc0503012ae:	639c                	ld	a5,0(a5)
ffffffc0503012b0:	0037f713          	andi	a4,a5,3
ffffffc0503012b4:	478d                	li	a5,3
ffffffc0503012b6:	02f71263          	bne	a4,a5,ffffffc0503012da <handle_irq+0x9a>
ffffffc0503012ba:	0000b517          	auipc	a0,0xb
ffffffc0503012be:	99e50513          	addi	a0,a0,-1634 # ffffffc05030bc58 <recv_queue>
ffffffc0503012c2:	c51ff0ef          	jal	ra,ffffffc050300f12 <list_empty>
ffffffc0503012c6:	87aa                	mv	a5,a0
ffffffc0503012c8:	eb89                	bnez	a5,ffffffc0503012da <handle_irq+0x9a>
ffffffc0503012ca:	0000b797          	auipc	a5,0xb
ffffffc0503012ce:	98e78793          	addi	a5,a5,-1650 # ffffffc05030bc58 <recv_queue>
ffffffc0503012d2:	679c                	ld	a5,8(a5)
ffffffc0503012d4:	853e                	mv	a0,a5
ffffffc0503012d6:	1be070ef          	jal	ra,ffffffc050308494 <do_unblock>
ffffffc0503012da:	00039797          	auipc	a5,0x39
ffffffc0503012de:	35678793          	addi	a5,a5,854 # ffffffc05033a630 <EmacPsInstance>
ffffffc0503012e2:	679c                	ld	a5,8(a5)
ffffffc0503012e4:	02478793          	addi	a5,a5,36
ffffffc0503012e8:	fe842703          	lw	a4,-24(s0)
ffffffc0503012ec:	85ba                	mv	a1,a4
ffffffc0503012ee:	853e                	mv	a0,a5
ffffffc0503012f0:	cfbff0ef          	jal	ra,ffffffc050300fea <Xil_Out32>
ffffffc0503012f4:	00039797          	auipc	a5,0x39
ffffffc0503012f8:	33c78793          	addi	a5,a5,828 # ffffffc05033a630 <EmacPsInstance>
ffffffc0503012fc:	679c                	ld	a5,8(a5)
ffffffc0503012fe:	02078793          	addi	a5,a5,32
ffffffc050301302:	4589                	li	a1,2
ffffffc050301304:	853e                	mv	a0,a5
ffffffc050301306:	ce5ff0ef          	jal	ra,ffffffc050300fea <Xil_Out32>
ffffffc05030130a:	04000593          	li	a1,64
ffffffc05030130e:	4501                	li	a0,0
ffffffc050301310:	d2bff0ef          	jal	ra,ffffffc05030103a <Xil_DCacheFlushRange>
ffffffc050301314:	fd043783          	ld	a5,-48(s0)
ffffffc050301318:	2781                	sext.w	a5,a5
ffffffc05030131a:	853e                	mv	a0,a5
ffffffc05030131c:	248060ef          	jal	ra,ffffffc050307564 <plic_irq_eoi>
ffffffc050301320:	fe842783          	lw	a5,-24(s0)
ffffffc050301324:	0807f793          	andi	a5,a5,128
ffffffc050301328:	2781                	sext.w	a5,a5
ffffffc05030132a:	c7c9                	beqz	a5,ffffffc0503013b4 <handle_irq+0x174>
ffffffc05030132c:	0000b517          	auipc	a0,0xb
ffffffc050301330:	93c50513          	addi	a0,a0,-1732 # ffffffc05030bc68 <send_queue>
ffffffc050301334:	bdfff0ef          	jal	ra,ffffffc050300f12 <list_empty>
ffffffc050301338:	87aa                	mv	a5,a0
ffffffc05030133a:	eb89                	bnez	a5,ffffffc05030134c <handle_irq+0x10c>
ffffffc05030133c:	0000b797          	auipc	a5,0xb
ffffffc050301340:	92c78793          	addi	a5,a5,-1748 # ffffffc05030bc68 <send_queue>
ffffffc050301344:	679c                	ld	a5,8(a5)
ffffffc050301346:	853e                	mv	a0,a5
ffffffc050301348:	14c070ef          	jal	ra,ffffffc050308494 <do_unblock>
ffffffc05030134c:	00039797          	auipc	a5,0x39
ffffffc050301350:	2e478793          	addi	a5,a5,740 # ffffffc05033a630 <EmacPsInstance>
ffffffc050301354:	679c                	ld	a5,8(a5)
ffffffc050301356:	02478793          	addi	a5,a5,36
ffffffc05030135a:	fe842703          	lw	a4,-24(s0)
ffffffc05030135e:	85ba                	mv	a1,a4
ffffffc050301360:	853e                	mv	a0,a5
ffffffc050301362:	c89ff0ef          	jal	ra,ffffffc050300fea <Xil_Out32>
ffffffc050301366:	00039797          	auipc	a5,0x39
ffffffc05030136a:	2ca78793          	addi	a5,a5,714 # ffffffc05033a630 <EmacPsInstance>
ffffffc05030136e:	679c                	ld	a5,8(a5)
ffffffc050301370:	07d1                	addi	a5,a5,20
ffffffc050301372:	853e                	mv	a0,a5
ffffffc050301374:	ca3ff0ef          	jal	ra,ffffffc050301016 <Xil_In32>
ffffffc050301378:	87aa                	mv	a5,a0
ffffffc05030137a:	fef42223          	sw	a5,-28(s0)
ffffffc05030137e:	00039797          	auipc	a5,0x39
ffffffc050301382:	2b278793          	addi	a5,a5,690 # ffffffc05033a630 <EmacPsInstance>
ffffffc050301386:	679c                	ld	a5,8(a5)
ffffffc050301388:	01478713          	addi	a4,a5,20
ffffffc05030138c:	fe442783          	lw	a5,-28(s0)
ffffffc050301390:	0207e793          	ori	a5,a5,32
ffffffc050301394:	2781                	sext.w	a5,a5
ffffffc050301396:	85be                	mv	a1,a5
ffffffc050301398:	853a                	mv	a0,a4
ffffffc05030139a:	c51ff0ef          	jal	ra,ffffffc050300fea <Xil_Out32>
ffffffc05030139e:	04000593          	li	a1,64
ffffffc0503013a2:	4501                	li	a0,0
ffffffc0503013a4:	c97ff0ef          	jal	ra,ffffffc05030103a <Xil_DCacheFlushRange>
ffffffc0503013a8:	fd043783          	ld	a5,-48(s0)
ffffffc0503013ac:	2781                	sext.w	a5,a5
ffffffc0503013ae:	853e                	mv	a0,a5
ffffffc0503013b0:	1b4060ef          	jal	ra,ffffffc050307564 <plic_irq_eoi>
ffffffc0503013b4:	0001                	nop
ffffffc0503013b6:	70a2                	ld	ra,40(sp)
ffffffc0503013b8:	7402                	ld	s0,32(sp)
ffffffc0503013ba:	6145                	addi	sp,sp,48
ffffffc0503013bc:	8082                	ret

ffffffc0503013be <handle_other>:
ffffffc0503013be:	710d                	addi	sp,sp,-352
ffffffc0503013c0:	ee86                	sd	ra,344(sp)
ffffffc0503013c2:	eaa2                	sd	s0,336(sp)
ffffffc0503013c4:	1280                	addi	s0,sp,352
ffffffc0503013c6:	eaa43c23          	sd	a0,-328(s0)
ffffffc0503013ca:	eab43823          	sd	a1,-336(s0)
ffffffc0503013ce:	eac43423          	sd	a2,-344(s0)
ffffffc0503013d2:	ee3fe0ef          	jal	ra,ffffffc0503002b4 <get_current_cpu_id>
ffffffc0503013d6:	fca43c23          	sd	a0,-40(s0)
ffffffc0503013da:	0000a717          	auipc	a4,0xa
ffffffc0503013de:	d8670713          	addi	a4,a4,-634 # ffffffc05030b160 <get_elf_file+0x4b0>
ffffffc0503013e2:	ec040793          	addi	a5,s0,-320
ffffffc0503013e6:	86ba                	mv	a3,a4
ffffffc0503013e8:	10000713          	li	a4,256
ffffffc0503013ec:	863a                	mv	a2,a4
ffffffc0503013ee:	85b6                	mv	a1,a3
ffffffc0503013f0:	853e                	mv	a0,a5
ffffffc0503013f2:	5a1080ef          	jal	ra,ffffffc05030a192 <memcpy>
ffffffc0503013f6:	fe042623          	sw	zero,-20(s0)
ffffffc0503013fa:	a061                	j	ffffffc050301482 <handle_other+0xc4>
ffffffc0503013fc:	fe042423          	sw	zero,-24(s0)
ffffffc050301400:	a0a9                	j	ffffffc05030144a <handle_other+0x8c>
ffffffc050301402:	fec42703          	lw	a4,-20(s0)
ffffffc050301406:	fe842783          	lw	a5,-24(s0)
ffffffc05030140a:	9fb9                	addw	a5,a5,a4
ffffffc05030140c:	2781                	sext.w	a5,a5
ffffffc05030140e:	078e                	slli	a5,a5,0x3
ffffffc050301410:	ff040713          	addi	a4,s0,-16
ffffffc050301414:	97ba                	add	a5,a5,a4
ffffffc050301416:	ed07b683          	ld	a3,-304(a5)
ffffffc05030141a:	fec42703          	lw	a4,-20(s0)
ffffffc05030141e:	fe842783          	lw	a5,-24(s0)
ffffffc050301422:	9fb9                	addw	a5,a5,a4
ffffffc050301424:	2781                	sext.w	a5,a5
ffffffc050301426:	eb843703          	ld	a4,-328(s0)
ffffffc05030142a:	078e                	slli	a5,a5,0x3
ffffffc05030142c:	97ba                	add	a5,a5,a4
ffffffc05030142e:	639c                	ld	a5,0(a5)
ffffffc050301430:	863e                	mv	a2,a5
ffffffc050301432:	85b6                	mv	a1,a3
ffffffc050301434:	0000a517          	auipc	a0,0xa
ffffffc050301438:	c7450513          	addi	a0,a0,-908 # ffffffc05030b0a8 <get_elf_file+0x3f8>
ffffffc05030143c:	794090ef          	jal	ra,ffffffc05030abd0 <printk>
ffffffc050301440:	fe842783          	lw	a5,-24(s0)
ffffffc050301444:	2785                	addiw	a5,a5,1
ffffffc050301446:	fef42423          	sw	a5,-24(s0)
ffffffc05030144a:	fe842783          	lw	a5,-24(s0)
ffffffc05030144e:	0007871b          	sext.w	a4,a5
ffffffc050301452:	4789                	li	a5,2
ffffffc050301454:	00e7cc63          	blt	a5,a4,ffffffc05030146c <handle_other+0xae>
ffffffc050301458:	fec42703          	lw	a4,-20(s0)
ffffffc05030145c:	fe842783          	lw	a5,-24(s0)
ffffffc050301460:	9fb9                	addw	a5,a5,a4
ffffffc050301462:	2781                	sext.w	a5,a5
ffffffc050301464:	873e                	mv	a4,a5
ffffffc050301466:	47fd                	li	a5,31
ffffffc050301468:	f8e7dde3          	bge	a5,a4,ffffffc050301402 <handle_other+0x44>
ffffffc05030146c:	0000a517          	auipc	a0,0xa
ffffffc050301470:	c4c50513          	addi	a0,a0,-948 # ffffffc05030b0b8 <get_elf_file+0x408>
ffffffc050301474:	75c090ef          	jal	ra,ffffffc05030abd0 <printk>
ffffffc050301478:	fec42783          	lw	a5,-20(s0)
ffffffc05030147c:	278d                	addiw	a5,a5,3
ffffffc05030147e:	fef42623          	sw	a5,-20(s0)
ffffffc050301482:	fec42783          	lw	a5,-20(s0)
ffffffc050301486:	0007871b          	sext.w	a4,a5
ffffffc05030148a:	47fd                	li	a5,31
ffffffc05030148c:	f6e7d8e3          	bge	a5,a4,ffffffc0503013fc <handle_other+0x3e>
ffffffc050301490:	eb843783          	ld	a5,-328(s0)
ffffffc050301494:	1007b703          	ld	a4,256(a5)
ffffffc050301498:	eb843783          	ld	a5,-328(s0)
ffffffc05030149c:	1107b603          	ld	a2,272(a5)
ffffffc0503014a0:	eb843783          	ld	a5,-328(s0)
ffffffc0503014a4:	1187b783          	ld	a5,280(a5)
ffffffc0503014a8:	86be                	mv	a3,a5
ffffffc0503014aa:	85ba                	mv	a1,a4
ffffffc0503014ac:	0000a517          	auipc	a0,0xa
ffffffc0503014b0:	c1450513          	addi	a0,a0,-1004 # ffffffc05030b0c0 <get_elf_file+0x410>
ffffffc0503014b4:	71c090ef          	jal	ra,ffffffc05030abd0 <printk>
ffffffc0503014b8:	eb843783          	ld	a5,-328(s0)
ffffffc0503014bc:	1087b583          	ld	a1,264(a5)
ffffffc0503014c0:	00047717          	auipc	a4,0x47
ffffffc0503014c4:	0d870713          	addi	a4,a4,216 # ffffffc050348598 <current_running>
ffffffc0503014c8:	fd843783          	ld	a5,-40(s0)
ffffffc0503014cc:	078e                	slli	a5,a5,0x3
ffffffc0503014ce:	97ba                	add	a5,a5,a4
ffffffc0503014d0:	639c                	ld	a5,0(a5)
ffffffc0503014d2:	47bc                	lw	a5,72(a5)
ffffffc0503014d4:	fd843683          	ld	a3,-40(s0)
ffffffc0503014d8:	863e                	mv	a2,a5
ffffffc0503014da:	0000a517          	auipc	a0,0xa
ffffffc0503014de:	c1650513          	addi	a0,a0,-1002 # ffffffc05030b0f0 <get_elf_file+0x440>
ffffffc0503014e2:	6ee090ef          	jal	ra,ffffffc05030abd0 <printk>
ffffffc0503014e6:	eb843783          	ld	a5,-328(s0)
ffffffc0503014ea:	63bc                	ld	a5,64(a5)
ffffffc0503014ec:	fef43023          	sd	a5,-32(s0)
ffffffc0503014f0:	eb843783          	ld	a5,-328(s0)
ffffffc0503014f4:	6b9c                	ld	a5,16(a5)
ffffffc0503014f6:	fcf43823          	sd	a5,-48(s0)
ffffffc0503014fa:	0000a517          	auipc	a0,0xa
ffffffc0503014fe:	c1e50513          	addi	a0,a0,-994 # ffffffc05030b118 <get_elf_file+0x468>
ffffffc050301502:	6ce090ef          	jal	ra,ffffffc05030abd0 <printk>
ffffffc050301506:	eb843783          	ld	a5,-328(s0)
ffffffc05030150a:	679c                	ld	a5,8(a5)
ffffffc05030150c:	17f1                	addi	a5,a5,-4
ffffffc05030150e:	fe043683          	ld	a3,-32(s0)
ffffffc050301512:	fd043603          	ld	a2,-48(s0)
ffffffc050301516:	85be                	mv	a1,a5
ffffffc050301518:	0000a517          	auipc	a0,0xa
ffffffc05030151c:	c1050513          	addi	a0,a0,-1008 # ffffffc05030b128 <get_elf_file+0x478>
ffffffc050301520:	6b0090ef          	jal	ra,ffffffc05030abd0 <printk>
ffffffc050301524:	a83d                	j	ffffffc050301562 <handle_other+0x1a4>
ffffffc050301526:	fe043783          	ld	a5,-32(s0)
ffffffc05030152a:	17e1                	addi	a5,a5,-8
ffffffc05030152c:	639c                	ld	a5,0(a5)
ffffffc05030152e:	fcf43423          	sd	a5,-56(s0)
ffffffc050301532:	fe043783          	ld	a5,-32(s0)
ffffffc050301536:	17c1                	addi	a5,a5,-16
ffffffc050301538:	639c                	ld	a5,0(a5)
ffffffc05030153a:	fcf43023          	sd	a5,-64(s0)
ffffffc05030153e:	fc843783          	ld	a5,-56(s0)
ffffffc050301542:	17f1                	addi	a5,a5,-4
ffffffc050301544:	fc043683          	ld	a3,-64(s0)
ffffffc050301548:	fe043603          	ld	a2,-32(s0)
ffffffc05030154c:	85be                	mv	a1,a5
ffffffc05030154e:	0000a517          	auipc	a0,0xa
ffffffc050301552:	bda50513          	addi	a0,a0,-1062 # ffffffc05030b128 <get_elf_file+0x478>
ffffffc050301556:	67a090ef          	jal	ra,ffffffc05030abd0 <printk>
ffffffc05030155a:	fc043783          	ld	a5,-64(s0)
ffffffc05030155e:	fef43023          	sd	a5,-32(s0)
ffffffc050301562:	fe043703          	ld	a4,-32(s0)
ffffffc050301566:	0000a797          	auipc	a5,0xa
ffffffc05030156a:	d0a78793          	addi	a5,a5,-758 # ffffffc05030b270 <__FUNCTION__.1991+0x10>
ffffffc05030156e:	639c                	ld	a5,0(a5)
ffffffc050301570:	00e7e763          	bltu	a5,a4,ffffffc05030157e <handle_other+0x1c0>
ffffffc050301574:	fe043703          	ld	a4,-32(s0)
ffffffc050301578:	67c1                	lui	a5,0x10
ffffffc05030157a:	fae7e6e3          	bltu	a5,a4,ffffffc050301526 <handle_other+0x168>
ffffffc05030157e:	0000a617          	auipc	a2,0xa
ffffffc050301582:	ce260613          	addi	a2,a2,-798 # ffffffc05030b260 <__FUNCTION__.1991>
ffffffc050301586:	0a900593          	li	a1,169
ffffffc05030158a:	0000a517          	auipc	a0,0xa
ffffffc05030158e:	bbe50513          	addi	a0,a0,-1090 # ffffffc05030b148 <get_elf_file+0x498>
ffffffc050301592:	9abff0ef          	jal	ra,ffffffc050300f3c <_panic>
ffffffc050301596:	0001                	nop
ffffffc050301598:	60f6                	ld	ra,344(sp)
ffffffc05030159a:	6456                	ld	s0,336(sp)
ffffffc05030159c:	6135                	addi	sp,sp,352
ffffffc05030159e:	8082                	ret

ffffffc0503015a0 <vt100_move_cursor>:
ffffffc0503015a0:	7179                	addi	sp,sp,-48
ffffffc0503015a2:	f406                	sd	ra,40(sp)
ffffffc0503015a4:	f022                	sd	s0,32(sp)
ffffffc0503015a6:	1800                	addi	s0,sp,48
ffffffc0503015a8:	87aa                	mv	a5,a0
ffffffc0503015aa:	872e                	mv	a4,a1
ffffffc0503015ac:	fcf42e23          	sw	a5,-36(s0)
ffffffc0503015b0:	87ba                	mv	a5,a4
ffffffc0503015b2:	fcf42c23          	sw	a5,-40(s0)
ffffffc0503015b6:	ae3fe0ef          	jal	ra,ffffffc050300098 <disable_preempt>
ffffffc0503015ba:	fdc42703          	lw	a4,-36(s0)
ffffffc0503015be:	fd842783          	lw	a5,-40(s0)
ffffffc0503015c2:	86ba                	mv	a3,a4
ffffffc0503015c4:	863e                	mv	a2,a5
ffffffc0503015c6:	45ed                	li	a1,27
ffffffc0503015c8:	0000a517          	auipc	a0,0xa
ffffffc0503015cc:	cb050513          	addi	a0,a0,-848 # ffffffc05030b278 <__FUNCTION__.1991+0x18>
ffffffc0503015d0:	600090ef          	jal	ra,ffffffc05030abd0 <printk>
ffffffc0503015d4:	ce1fe0ef          	jal	ra,ffffffc0503002b4 <get_current_cpu_id>
ffffffc0503015d8:	fea43423          	sd	a0,-24(s0)
ffffffc0503015dc:	00047717          	auipc	a4,0x47
ffffffc0503015e0:	fbc70713          	addi	a4,a4,-68 # ffffffc050348598 <current_running>
ffffffc0503015e4:	fe843783          	ld	a5,-24(s0)
ffffffc0503015e8:	078e                	slli	a5,a5,0x3
ffffffc0503015ea:	97ba                	add	a5,a5,a4
ffffffc0503015ec:	639c                	ld	a5,0(a5)
ffffffc0503015ee:	fdc42703          	lw	a4,-36(s0)
ffffffc0503015f2:	cfb8                	sw	a4,88(a5)
ffffffc0503015f4:	00047717          	auipc	a4,0x47
ffffffc0503015f8:	fa470713          	addi	a4,a4,-92 # ffffffc050348598 <current_running>
ffffffc0503015fc:	fe843783          	ld	a5,-24(s0)
ffffffc050301600:	078e                	slli	a5,a5,0x3
ffffffc050301602:	97ba                	add	a5,a5,a4
ffffffc050301604:	639c                	ld	a5,0(a5)
ffffffc050301606:	fd842703          	lw	a4,-40(s0)
ffffffc05030160a:	cff8                	sw	a4,92(a5)
ffffffc05030160c:	a89fe0ef          	jal	ra,ffffffc050300094 <enable_preempt>
ffffffc050301610:	0001                	nop
ffffffc050301612:	70a2                	ld	ra,40(sp)
ffffffc050301614:	7402                	ld	s0,32(sp)
ffffffc050301616:	6145                	addi	sp,sp,48
ffffffc050301618:	8082                	ret

ffffffc05030161a <vt100_clear>:
ffffffc05030161a:	1141                	addi	sp,sp,-16
ffffffc05030161c:	e406                	sd	ra,8(sp)
ffffffc05030161e:	e022                	sd	s0,0(sp)
ffffffc050301620:	0800                	addi	s0,sp,16
ffffffc050301622:	45ed                	li	a1,27
ffffffc050301624:	0000a517          	auipc	a0,0xa
ffffffc050301628:	c6450513          	addi	a0,a0,-924 # ffffffc05030b288 <__FUNCTION__.1991+0x28>
ffffffc05030162c:	5a4090ef          	jal	ra,ffffffc05030abd0 <printk>
ffffffc050301630:	0001                	nop
ffffffc050301632:	60a2                	ld	ra,8(sp)
ffffffc050301634:	6402                	ld	s0,0(sp)
ffffffc050301636:	0141                	addi	sp,sp,16
ffffffc050301638:	8082                	ret

ffffffc05030163a <vt100_hidden_cursor>:
ffffffc05030163a:	1141                	addi	sp,sp,-16
ffffffc05030163c:	e406                	sd	ra,8(sp)
ffffffc05030163e:	e022                	sd	s0,0(sp)
ffffffc050301640:	0800                	addi	s0,sp,16
ffffffc050301642:	45ed                	li	a1,27
ffffffc050301644:	0000a517          	auipc	a0,0xa
ffffffc050301648:	c4c50513          	addi	a0,a0,-948 # ffffffc05030b290 <__FUNCTION__.1991+0x30>
ffffffc05030164c:	584090ef          	jal	ra,ffffffc05030abd0 <printk>
ffffffc050301650:	0001                	nop
ffffffc050301652:	60a2                	ld	ra,8(sp)
ffffffc050301654:	6402                	ld	s0,0(sp)
ffffffc050301656:	0141                	addi	sp,sp,16
ffffffc050301658:	8082                	ret

ffffffc05030165a <screen_write_ch>:
ffffffc05030165a:	7179                	addi	sp,sp,-48
ffffffc05030165c:	f406                	sd	ra,40(sp)
ffffffc05030165e:	f022                	sd	s0,32(sp)
ffffffc050301660:	1800                	addi	s0,sp,48
ffffffc050301662:	87aa                	mv	a5,a0
ffffffc050301664:	fcf40fa3          	sb	a5,-33(s0)
ffffffc050301668:	c4dfe0ef          	jal	ra,ffffffc0503002b4 <get_current_cpu_id>
ffffffc05030166c:	fea43423          	sd	a0,-24(s0)
ffffffc050301670:	fdf44783          	lbu	a5,-33(s0)
ffffffc050301674:	0ff7f713          	andi	a4,a5,255
ffffffc050301678:	47a9                	li	a5,10
ffffffc05030167a:	02f71b63          	bne	a4,a5,ffffffc0503016b0 <screen_write_ch+0x56>
ffffffc05030167e:	00047717          	auipc	a4,0x47
ffffffc050301682:	f1a70713          	addi	a4,a4,-230 # ffffffc050348598 <current_running>
ffffffc050301686:	fe843783          	ld	a5,-24(s0)
ffffffc05030168a:	078e                	slli	a5,a5,0x3
ffffffc05030168c:	97ba                	add	a5,a5,a4
ffffffc05030168e:	639c                	ld	a5,0(a5)
ffffffc050301690:	4705                	li	a4,1
ffffffc050301692:	cfb8                	sw	a4,88(a5)
ffffffc050301694:	00047717          	auipc	a4,0x47
ffffffc050301698:	f0470713          	addi	a4,a4,-252 # ffffffc050348598 <current_running>
ffffffc05030169c:	fe843783          	ld	a5,-24(s0)
ffffffc0503016a0:	078e                	slli	a5,a5,0x3
ffffffc0503016a2:	97ba                	add	a5,a5,a4
ffffffc0503016a4:	639c                	ld	a5,0(a5)
ffffffc0503016a6:	4ff8                	lw	a4,92(a5)
ffffffc0503016a8:	2705                	addiw	a4,a4,1
ffffffc0503016aa:	2701                	sext.w	a4,a4
ffffffc0503016ac:	cff8                	sw	a4,92(a5)
ffffffc0503016ae:	a895                	j	ffffffc050301722 <screen_write_ch+0xc8>
ffffffc0503016b0:	00047717          	auipc	a4,0x47
ffffffc0503016b4:	ee870713          	addi	a4,a4,-280 # ffffffc050348598 <current_running>
ffffffc0503016b8:	fe843783          	ld	a5,-24(s0)
ffffffc0503016bc:	078e                	slli	a5,a5,0x3
ffffffc0503016be:	97ba                	add	a5,a5,a4
ffffffc0503016c0:	639c                	ld	a5,0(a5)
ffffffc0503016c2:	4ffc                	lw	a5,92(a5)
ffffffc0503016c4:	37fd                	addiw	a5,a5,-1
ffffffc0503016c6:	2781                	sext.w	a5,a5
ffffffc0503016c8:	873e                	mv	a4,a5
ffffffc0503016ca:	87ba                	mv	a5,a4
ffffffc0503016cc:	0027979b          	slliw	a5,a5,0x2
ffffffc0503016d0:	9fb9                	addw	a5,a5,a4
ffffffc0503016d2:	0047979b          	slliw	a5,a5,0x4
ffffffc0503016d6:	0007871b          	sext.w	a4,a5
ffffffc0503016da:	00047697          	auipc	a3,0x47
ffffffc0503016de:	ebe68693          	addi	a3,a3,-322 # ffffffc050348598 <current_running>
ffffffc0503016e2:	fe843783          	ld	a5,-24(s0)
ffffffc0503016e6:	078e                	slli	a5,a5,0x3
ffffffc0503016e8:	97b6                	add	a5,a5,a3
ffffffc0503016ea:	639c                	ld	a5,0(a5)
ffffffc0503016ec:	4fbc                	lw	a5,88(a5)
ffffffc0503016ee:	37fd                	addiw	a5,a5,-1
ffffffc0503016f0:	2781                	sext.w	a5,a5
ffffffc0503016f2:	9fb9                	addw	a5,a5,a4
ffffffc0503016f4:	2781                	sext.w	a5,a5
ffffffc0503016f6:	00036717          	auipc	a4,0x36
ffffffc0503016fa:	e8a70713          	addi	a4,a4,-374 # ffffffc050337580 <new_screen>
ffffffc0503016fe:	97ba                	add	a5,a5,a4
ffffffc050301700:	fdf44703          	lbu	a4,-33(s0)
ffffffc050301704:	00e78023          	sb	a4,0(a5) # 10000 <_start-0xffffffc0502f0000>
ffffffc050301708:	00047717          	auipc	a4,0x47
ffffffc05030170c:	e9070713          	addi	a4,a4,-368 # ffffffc050348598 <current_running>
ffffffc050301710:	fe843783          	ld	a5,-24(s0)
ffffffc050301714:	078e                	slli	a5,a5,0x3
ffffffc050301716:	97ba                	add	a5,a5,a4
ffffffc050301718:	639c                	ld	a5,0(a5)
ffffffc05030171a:	4fb8                	lw	a4,88(a5)
ffffffc05030171c:	2705                	addiw	a4,a4,1
ffffffc05030171e:	2701                	sext.w	a4,a4
ffffffc050301720:	cfb8                	sw	a4,88(a5)
ffffffc050301722:	0001                	nop
ffffffc050301724:	70a2                	ld	ra,40(sp)
ffffffc050301726:	7402                	ld	s0,32(sp)
ffffffc050301728:	6145                	addi	sp,sp,48
ffffffc05030172a:	8082                	ret

ffffffc05030172c <init_screen>:
ffffffc05030172c:	1141                	addi	sp,sp,-16
ffffffc05030172e:	e406                	sd	ra,8(sp)
ffffffc050301730:	e022                	sd	s0,0(sp)
ffffffc050301732:	0800                	addi	s0,sp,16
ffffffc050301734:	f07ff0ef          	jal	ra,ffffffc05030163a <vt100_hidden_cursor>
ffffffc050301738:	ee3ff0ef          	jal	ra,ffffffc05030161a <vt100_clear>
ffffffc05030173c:	0001                	nop
ffffffc05030173e:	60a2                	ld	ra,8(sp)
ffffffc050301740:	6402                	ld	s0,0(sp)
ffffffc050301742:	0141                	addi	sp,sp,16
ffffffc050301744:	8082                	ret

ffffffc050301746 <screen_clear>:
ffffffc050301746:	1101                	addi	sp,sp,-32
ffffffc050301748:	ec06                	sd	ra,24(sp)
ffffffc05030174a:	e822                	sd	s0,16(sp)
ffffffc05030174c:	1000                	addi	s0,sp,32
ffffffc05030174e:	fe042623          	sw	zero,-20(s0)
ffffffc050301752:	a8a1                	j	ffffffc0503017aa <screen_clear+0x64>
ffffffc050301754:	fe042423          	sw	zero,-24(s0)
ffffffc050301758:	a825                	j	ffffffc050301790 <screen_clear+0x4a>
ffffffc05030175a:	fec42703          	lw	a4,-20(s0)
ffffffc05030175e:	87ba                	mv	a5,a4
ffffffc050301760:	0027979b          	slliw	a5,a5,0x2
ffffffc050301764:	9fb9                	addw	a5,a5,a4
ffffffc050301766:	0047979b          	slliw	a5,a5,0x4
ffffffc05030176a:	2781                	sext.w	a5,a5
ffffffc05030176c:	fe842703          	lw	a4,-24(s0)
ffffffc050301770:	9fb9                	addw	a5,a5,a4
ffffffc050301772:	2781                	sext.w	a5,a5
ffffffc050301774:	00036717          	auipc	a4,0x36
ffffffc050301778:	e0c70713          	addi	a4,a4,-500 # ffffffc050337580 <new_screen>
ffffffc05030177c:	97ba                	add	a5,a5,a4
ffffffc05030177e:	02000713          	li	a4,32
ffffffc050301782:	00e78023          	sb	a4,0(a5)
ffffffc050301786:	fe842783          	lw	a5,-24(s0)
ffffffc05030178a:	2785                	addiw	a5,a5,1
ffffffc05030178c:	fef42423          	sw	a5,-24(s0)
ffffffc050301790:	fe842783          	lw	a5,-24(s0)
ffffffc050301794:	0007871b          	sext.w	a4,a5
ffffffc050301798:	04f00793          	li	a5,79
ffffffc05030179c:	fae7dfe3          	bge	a5,a4,ffffffc05030175a <screen_clear+0x14>
ffffffc0503017a0:	fec42783          	lw	a5,-20(s0)
ffffffc0503017a4:	2785                	addiw	a5,a5,1
ffffffc0503017a6:	fef42623          	sw	a5,-20(s0)
ffffffc0503017aa:	fec42783          	lw	a5,-20(s0)
ffffffc0503017ae:	0007871b          	sext.w	a4,a5
ffffffc0503017b2:	03100793          	li	a5,49
ffffffc0503017b6:	f8e7dfe3          	bge	a5,a4,ffffffc050301754 <screen_clear+0xe>
ffffffc0503017ba:	afbfe0ef          	jal	ra,ffffffc0503002b4 <get_current_cpu_id>
ffffffc0503017be:	fea43023          	sd	a0,-32(s0)
ffffffc0503017c2:	00047717          	auipc	a4,0x47
ffffffc0503017c6:	dd670713          	addi	a4,a4,-554 # ffffffc050348598 <current_running>
ffffffc0503017ca:	fe043783          	ld	a5,-32(s0)
ffffffc0503017ce:	078e                	slli	a5,a5,0x3
ffffffc0503017d0:	97ba                	add	a5,a5,a4
ffffffc0503017d2:	639c                	ld	a5,0(a5)
ffffffc0503017d4:	4705                	li	a4,1
ffffffc0503017d6:	cfb8                	sw	a4,88(a5)
ffffffc0503017d8:	00047717          	auipc	a4,0x47
ffffffc0503017dc:	dc070713          	addi	a4,a4,-576 # ffffffc050348598 <current_running>
ffffffc0503017e0:	fe043783          	ld	a5,-32(s0)
ffffffc0503017e4:	078e                	slli	a5,a5,0x3
ffffffc0503017e6:	97ba                	add	a5,a5,a4
ffffffc0503017e8:	639c                	ld	a5,0(a5)
ffffffc0503017ea:	4705                	li	a4,1
ffffffc0503017ec:	cff8                	sw	a4,92(a5)
ffffffc0503017ee:	0c4000ef          	jal	ra,ffffffc0503018b2 <screen_reflush>
ffffffc0503017f2:	0001                	nop
ffffffc0503017f4:	60e2                	ld	ra,24(sp)
ffffffc0503017f6:	6442                	ld	s0,16(sp)
ffffffc0503017f8:	6105                	addi	sp,sp,32
ffffffc0503017fa:	8082                	ret

ffffffc0503017fc <screen_move_cursor>:
ffffffc0503017fc:	7179                	addi	sp,sp,-48
ffffffc0503017fe:	f406                	sd	ra,40(sp)
ffffffc050301800:	f022                	sd	s0,32(sp)
ffffffc050301802:	1800                	addi	s0,sp,48
ffffffc050301804:	87aa                	mv	a5,a0
ffffffc050301806:	872e                	mv	a4,a1
ffffffc050301808:	fcf42e23          	sw	a5,-36(s0)
ffffffc05030180c:	87ba                	mv	a5,a4
ffffffc05030180e:	fcf42c23          	sw	a5,-40(s0)
ffffffc050301812:	aa3fe0ef          	jal	ra,ffffffc0503002b4 <get_current_cpu_id>
ffffffc050301816:	fea43423          	sd	a0,-24(s0)
ffffffc05030181a:	00047717          	auipc	a4,0x47
ffffffc05030181e:	d7e70713          	addi	a4,a4,-642 # ffffffc050348598 <current_running>
ffffffc050301822:	fe843783          	ld	a5,-24(s0)
ffffffc050301826:	078e                	slli	a5,a5,0x3
ffffffc050301828:	97ba                	add	a5,a5,a4
ffffffc05030182a:	639c                	ld	a5,0(a5)
ffffffc05030182c:	fdc42703          	lw	a4,-36(s0)
ffffffc050301830:	cfb8                	sw	a4,88(a5)
ffffffc050301832:	00047717          	auipc	a4,0x47
ffffffc050301836:	d6670713          	addi	a4,a4,-666 # ffffffc050348598 <current_running>
ffffffc05030183a:	fe843783          	ld	a5,-24(s0)
ffffffc05030183e:	078e                	slli	a5,a5,0x3
ffffffc050301840:	97ba                	add	a5,a5,a4
ffffffc050301842:	639c                	ld	a5,0(a5)
ffffffc050301844:	fd842703          	lw	a4,-40(s0)
ffffffc050301848:	cff8                	sw	a4,92(a5)
ffffffc05030184a:	0001                	nop
ffffffc05030184c:	70a2                	ld	ra,40(sp)
ffffffc05030184e:	7402                	ld	s0,32(sp)
ffffffc050301850:	6145                	addi	sp,sp,48
ffffffc050301852:	8082                	ret

ffffffc050301854 <screen_write>:
ffffffc050301854:	7179                	addi	sp,sp,-48
ffffffc050301856:	f406                	sd	ra,40(sp)
ffffffc050301858:	f022                	sd	s0,32(sp)
ffffffc05030185a:	1800                	addi	s0,sp,48
ffffffc05030185c:	fca43c23          	sd	a0,-40(s0)
ffffffc050301860:	fe042623          	sw	zero,-20(s0)
ffffffc050301864:	fd843503          	ld	a0,-40(s0)
ffffffc050301868:	69e080ef          	jal	ra,ffffffc050309f06 <kstrlen>
ffffffc05030186c:	87aa                	mv	a5,a0
ffffffc05030186e:	fef42423          	sw	a5,-24(s0)
ffffffc050301872:	fe042623          	sw	zero,-20(s0)
ffffffc050301876:	a005                	j	ffffffc050301896 <screen_write+0x42>
ffffffc050301878:	fec42783          	lw	a5,-20(s0)
ffffffc05030187c:	fd843703          	ld	a4,-40(s0)
ffffffc050301880:	97ba                	add	a5,a5,a4
ffffffc050301882:	0007c783          	lbu	a5,0(a5)
ffffffc050301886:	853e                	mv	a0,a5
ffffffc050301888:	dd3ff0ef          	jal	ra,ffffffc05030165a <screen_write_ch>
ffffffc05030188c:	fec42783          	lw	a5,-20(s0)
ffffffc050301890:	2785                	addiw	a5,a5,1
ffffffc050301892:	fef42623          	sw	a5,-20(s0)
ffffffc050301896:	fec42703          	lw	a4,-20(s0)
ffffffc05030189a:	fe842783          	lw	a5,-24(s0)
ffffffc05030189e:	2701                	sext.w	a4,a4
ffffffc0503018a0:	2781                	sext.w	a5,a5
ffffffc0503018a2:	fcf74be3          	blt	a4,a5,ffffffc050301878 <screen_write+0x24>
ffffffc0503018a6:	0001                	nop
ffffffc0503018a8:	0001                	nop
ffffffc0503018aa:	70a2                	ld	ra,40(sp)
ffffffc0503018ac:	7402                	ld	s0,32(sp)
ffffffc0503018ae:	6145                	addi	sp,sp,48
ffffffc0503018b0:	8082                	ret

ffffffc0503018b2 <screen_reflush>:
ffffffc0503018b2:	7179                	addi	sp,sp,-48
ffffffc0503018b4:	f406                	sd	ra,40(sp)
ffffffc0503018b6:	f022                	sd	s0,32(sp)
ffffffc0503018b8:	1800                	addi	s0,sp,48
ffffffc0503018ba:	9fbfe0ef          	jal	ra,ffffffc0503002b4 <get_current_cpu_id>
ffffffc0503018be:	fea43023          	sd	a0,-32(s0)
ffffffc0503018c2:	00047717          	auipc	a4,0x47
ffffffc0503018c6:	cd670713          	addi	a4,a4,-810 # ffffffc050348598 <current_running>
ffffffc0503018ca:	fe043783          	ld	a5,-32(s0)
ffffffc0503018ce:	078e                	slli	a5,a5,0x3
ffffffc0503018d0:	97ba                	add	a5,a5,a4
ffffffc0503018d2:	639c                	ld	a5,0(a5)
ffffffc0503018d4:	4fbc                	lw	a5,88(a5)
ffffffc0503018d6:	fcf42e23          	sw	a5,-36(s0)
ffffffc0503018da:	00047717          	auipc	a4,0x47
ffffffc0503018de:	cbe70713          	addi	a4,a4,-834 # ffffffc050348598 <current_running>
ffffffc0503018e2:	fe043783          	ld	a5,-32(s0)
ffffffc0503018e6:	078e                	slli	a5,a5,0x3
ffffffc0503018e8:	97ba                	add	a5,a5,a4
ffffffc0503018ea:	639c                	ld	a5,0(a5)
ffffffc0503018ec:	4ffc                	lw	a5,92(a5)
ffffffc0503018ee:	fcf42c23          	sw	a5,-40(s0)
ffffffc0503018f2:	fe042623          	sw	zero,-20(s0)
ffffffc0503018f6:	aa31                	j	ffffffc050301a12 <screen_reflush+0x160>
ffffffc0503018f8:	fe042423          	sw	zero,-24(s0)
ffffffc0503018fc:	a8f5                	j	ffffffc0503019f8 <screen_reflush+0x146>
ffffffc0503018fe:	fec42703          	lw	a4,-20(s0)
ffffffc050301902:	87ba                	mv	a5,a4
ffffffc050301904:	0027979b          	slliw	a5,a5,0x2
ffffffc050301908:	9fb9                	addw	a5,a5,a4
ffffffc05030190a:	0047979b          	slliw	a5,a5,0x4
ffffffc05030190e:	2781                	sext.w	a5,a5
ffffffc050301910:	fe842703          	lw	a4,-24(s0)
ffffffc050301914:	9fb9                	addw	a5,a5,a4
ffffffc050301916:	2781                	sext.w	a5,a5
ffffffc050301918:	00036717          	auipc	a4,0x36
ffffffc05030191c:	c6870713          	addi	a4,a4,-920 # ffffffc050337580 <new_screen>
ffffffc050301920:	97ba                	add	a5,a5,a4
ffffffc050301922:	0007c683          	lbu	a3,0(a5)
ffffffc050301926:	fec42703          	lw	a4,-20(s0)
ffffffc05030192a:	87ba                	mv	a5,a4
ffffffc05030192c:	0027979b          	slliw	a5,a5,0x2
ffffffc050301930:	9fb9                	addw	a5,a5,a4
ffffffc050301932:	0047979b          	slliw	a5,a5,0x4
ffffffc050301936:	2781                	sext.w	a5,a5
ffffffc050301938:	fe842703          	lw	a4,-24(s0)
ffffffc05030193c:	9fb9                	addw	a5,a5,a4
ffffffc05030193e:	2781                	sext.w	a5,a5
ffffffc050301940:	00037717          	auipc	a4,0x37
ffffffc050301944:	be070713          	addi	a4,a4,-1056 # ffffffc050338520 <old_screen>
ffffffc050301948:	97ba                	add	a5,a5,a4
ffffffc05030194a:	0007c783          	lbu	a5,0(a5)
ffffffc05030194e:	8736                	mv	a4,a3
ffffffc050301950:	08f70f63          	beq	a4,a5,ffffffc0503019ee <screen_reflush+0x13c>
ffffffc050301954:	fe842783          	lw	a5,-24(s0)
ffffffc050301958:	2785                	addiw	a5,a5,1
ffffffc05030195a:	0007871b          	sext.w	a4,a5
ffffffc05030195e:	fec42783          	lw	a5,-20(s0)
ffffffc050301962:	2785                	addiw	a5,a5,1
ffffffc050301964:	2781                	sext.w	a5,a5
ffffffc050301966:	85be                	mv	a1,a5
ffffffc050301968:	853a                	mv	a0,a4
ffffffc05030196a:	c37ff0ef          	jal	ra,ffffffc0503015a0 <vt100_move_cursor>
ffffffc05030196e:	fec42703          	lw	a4,-20(s0)
ffffffc050301972:	87ba                	mv	a5,a4
ffffffc050301974:	0027979b          	slliw	a5,a5,0x2
ffffffc050301978:	9fb9                	addw	a5,a5,a4
ffffffc05030197a:	0047979b          	slliw	a5,a5,0x4
ffffffc05030197e:	2781                	sext.w	a5,a5
ffffffc050301980:	fe842703          	lw	a4,-24(s0)
ffffffc050301984:	9fb9                	addw	a5,a5,a4
ffffffc050301986:	2781                	sext.w	a5,a5
ffffffc050301988:	00036717          	auipc	a4,0x36
ffffffc05030198c:	bf870713          	addi	a4,a4,-1032 # ffffffc050337580 <new_screen>
ffffffc050301990:	97ba                	add	a5,a5,a4
ffffffc050301992:	0007c783          	lbu	a5,0(a5)
ffffffc050301996:	853e                	mv	a0,a5
ffffffc050301998:	8dbfe0ef          	jal	ra,ffffffc050300272 <port_write_ch>
ffffffc05030199c:	fec42703          	lw	a4,-20(s0)
ffffffc0503019a0:	87ba                	mv	a5,a4
ffffffc0503019a2:	0027979b          	slliw	a5,a5,0x2
ffffffc0503019a6:	9fb9                	addw	a5,a5,a4
ffffffc0503019a8:	0047979b          	slliw	a5,a5,0x4
ffffffc0503019ac:	2781                	sext.w	a5,a5
ffffffc0503019ae:	fe842703          	lw	a4,-24(s0)
ffffffc0503019b2:	9fb9                	addw	a5,a5,a4
ffffffc0503019b4:	0007869b          	sext.w	a3,a5
ffffffc0503019b8:	fec42703          	lw	a4,-20(s0)
ffffffc0503019bc:	87ba                	mv	a5,a4
ffffffc0503019be:	0027979b          	slliw	a5,a5,0x2
ffffffc0503019c2:	9fb9                	addw	a5,a5,a4
ffffffc0503019c4:	0047979b          	slliw	a5,a5,0x4
ffffffc0503019c8:	2781                	sext.w	a5,a5
ffffffc0503019ca:	fe842703          	lw	a4,-24(s0)
ffffffc0503019ce:	9fb9                	addw	a5,a5,a4
ffffffc0503019d0:	2781                	sext.w	a5,a5
ffffffc0503019d2:	00036717          	auipc	a4,0x36
ffffffc0503019d6:	bae70713          	addi	a4,a4,-1106 # ffffffc050337580 <new_screen>
ffffffc0503019da:	9736                	add	a4,a4,a3
ffffffc0503019dc:	00074703          	lbu	a4,0(a4)
ffffffc0503019e0:	00037697          	auipc	a3,0x37
ffffffc0503019e4:	b4068693          	addi	a3,a3,-1216 # ffffffc050338520 <old_screen>
ffffffc0503019e8:	97b6                	add	a5,a5,a3
ffffffc0503019ea:	00e78023          	sb	a4,0(a5)
ffffffc0503019ee:	fe842783          	lw	a5,-24(s0)
ffffffc0503019f2:	2785                	addiw	a5,a5,1
ffffffc0503019f4:	fef42423          	sw	a5,-24(s0)
ffffffc0503019f8:	fe842783          	lw	a5,-24(s0)
ffffffc0503019fc:	0007871b          	sext.w	a4,a5
ffffffc050301a00:	04f00793          	li	a5,79
ffffffc050301a04:	eee7dde3          	bge	a5,a4,ffffffc0503018fe <screen_reflush+0x4c>
ffffffc050301a08:	fec42783          	lw	a5,-20(s0)
ffffffc050301a0c:	2785                	addiw	a5,a5,1
ffffffc050301a0e:	fef42623          	sw	a5,-20(s0)
ffffffc050301a12:	fec42783          	lw	a5,-20(s0)
ffffffc050301a16:	0007871b          	sext.w	a4,a5
ffffffc050301a1a:	03100793          	li	a5,49
ffffffc050301a1e:	ece7dde3          	bge	a5,a4,ffffffc0503018f8 <screen_reflush+0x46>
ffffffc050301a22:	00047717          	auipc	a4,0x47
ffffffc050301a26:	b7670713          	addi	a4,a4,-1162 # ffffffc050348598 <current_running>
ffffffc050301a2a:	fe043783          	ld	a5,-32(s0)
ffffffc050301a2e:	078e                	slli	a5,a5,0x3
ffffffc050301a30:	97ba                	add	a5,a5,a4
ffffffc050301a32:	639c                	ld	a5,0(a5)
ffffffc050301a34:	4fb4                	lw	a3,88(a5)
ffffffc050301a36:	00047717          	auipc	a4,0x47
ffffffc050301a3a:	b6270713          	addi	a4,a4,-1182 # ffffffc050348598 <current_running>
ffffffc050301a3e:	fe043783          	ld	a5,-32(s0)
ffffffc050301a42:	078e                	slli	a5,a5,0x3
ffffffc050301a44:	97ba                	add	a5,a5,a4
ffffffc050301a46:	639c                	ld	a5,0(a5)
ffffffc050301a48:	4ffc                	lw	a5,92(a5)
ffffffc050301a4a:	85be                	mv	a1,a5
ffffffc050301a4c:	8536                	mv	a0,a3
ffffffc050301a4e:	b53ff0ef          	jal	ra,ffffffc0503015a0 <vt100_move_cursor>
ffffffc050301a52:	00047717          	auipc	a4,0x47
ffffffc050301a56:	b4670713          	addi	a4,a4,-1210 # ffffffc050348598 <current_running>
ffffffc050301a5a:	fe043783          	ld	a5,-32(s0)
ffffffc050301a5e:	078e                	slli	a5,a5,0x3
ffffffc050301a60:	97ba                	add	a5,a5,a4
ffffffc050301a62:	639c                	ld	a5,0(a5)
ffffffc050301a64:	fdc42703          	lw	a4,-36(s0)
ffffffc050301a68:	cfb8                	sw	a4,88(a5)
ffffffc050301a6a:	00047717          	auipc	a4,0x47
ffffffc050301a6e:	b2e70713          	addi	a4,a4,-1234 # ffffffc050348598 <current_running>
ffffffc050301a72:	fe043783          	ld	a5,-32(s0)
ffffffc050301a76:	078e                	slli	a5,a5,0x3
ffffffc050301a78:	97ba                	add	a5,a5,a4
ffffffc050301a7a:	639c                	ld	a5,0(a5)
ffffffc050301a7c:	fd842703          	lw	a4,-40(s0)
ffffffc050301a80:	cff8                	sw	a4,92(a5)
ffffffc050301a82:	0001                	nop
ffffffc050301a84:	70a2                	ld	ra,40(sp)
ffffffc050301a86:	7402                	ld	s0,32(sp)
ffffffc050301a88:	6145                	addi	sp,sp,48
ffffffc050301a8a:	8082                	ret

ffffffc050301a8c <XEmacPs_BdRingCreate>:
ffffffc050301a8c:	711d                	addi	sp,sp,-96
ffffffc050301a8e:	ec86                	sd	ra,88(sp)
ffffffc050301a90:	e8a2                	sd	s0,80(sp)
ffffffc050301a92:	1080                	addi	s0,sp,96
ffffffc050301a94:	fca43423          	sd	a0,-56(s0)
ffffffc050301a98:	fcb43023          	sd	a1,-64(s0)
ffffffc050301a9c:	fac43c23          	sd	a2,-72(s0)
ffffffc050301aa0:	faf43423          	sd	a5,-88(s0)
ffffffc050301aa4:	87b6                	mv	a5,a3
ffffffc050301aa6:	faf42a23          	sw	a5,-76(s0)
ffffffc050301aaa:	87ba                	mv	a5,a4
ffffffc050301aac:	faf42823          	sw	a5,-80(s0)
ffffffc050301ab0:	fb843783          	ld	a5,-72(s0)
ffffffc050301ab4:	fcf43823          	sd	a5,-48(s0)
ffffffc050301ab8:	fc843783          	ld	a5,-56(s0)
ffffffc050301abc:	0607a423          	sw	zero,104(a5)
ffffffc050301ac0:	fc843783          	ld	a5,-56(s0)
ffffffc050301ac4:	0607a023          	sw	zero,96(a5)
ffffffc050301ac8:	fc843783          	ld	a5,-56(s0)
ffffffc050301acc:	0407ac23          	sw	zero,88(a5)
ffffffc050301ad0:	fc843783          	ld	a5,-56(s0)
ffffffc050301ad4:	0407ae23          	sw	zero,92(a5)
ffffffc050301ad8:	fc843783          	ld	a5,-56(s0)
ffffffc050301adc:	0607a223          	sw	zero,100(a5)
ffffffc050301ae0:	fb442783          	lw	a5,-76(s0)
ffffffc050301ae4:	0007871b          	sext.w	a4,a5
ffffffc050301ae8:	03f00793          	li	a5,63
ffffffc050301aec:	00e7e463          	bltu	a5,a4,ffffffc050301af4 <XEmacPs_BdRingCreate+0x68>
ffffffc050301af0:	47bd                	li	a5,15
ffffffc050301af2:	a255                	j	ffffffc050301c96 <XEmacPs_BdRingCreate+0x20a>
ffffffc050301af4:	fb442783          	lw	a5,-76(s0)
ffffffc050301af8:	37fd                	addiw	a5,a5,-1
ffffffc050301afa:	0007871b          	sext.w	a4,a5
ffffffc050301afe:	fb442783          	lw	a5,-76(s0)
ffffffc050301b02:	8ff9                	and	a5,a5,a4
ffffffc050301b04:	2781                	sext.w	a5,a5
ffffffc050301b06:	c399                	beqz	a5,ffffffc050301b0c <XEmacPs_BdRingCreate+0x80>
ffffffc050301b08:	47bd                	li	a5,15
ffffffc050301b0a:	a271                	j	ffffffc050301c96 <XEmacPs_BdRingCreate+0x20a>
ffffffc050301b0c:	fb446783          	lwu	a5,-76(s0)
ffffffc050301b10:	fc043703          	ld	a4,-64(s0)
ffffffc050301b14:	02f777b3          	remu	a5,a4,a5
ffffffc050301b18:	eb81                	bnez	a5,ffffffc050301b28 <XEmacPs_BdRingCreate+0x9c>
ffffffc050301b1a:	fb446783          	lwu	a5,-76(s0)
ffffffc050301b1e:	fd043703          	ld	a4,-48(s0)
ffffffc050301b22:	02f777b3          	remu	a5,a4,a5
ffffffc050301b26:	c399                	beqz	a5,ffffffc050301b2c <XEmacPs_BdRingCreate+0xa0>
ffffffc050301b28:	47bd                	li	a5,15
ffffffc050301b2a:	a2b5                	j	ffffffc050301c96 <XEmacPs_BdRingCreate+0x20a>
ffffffc050301b2c:	fb042783          	lw	a5,-80(s0)
ffffffc050301b30:	2781                	sext.w	a5,a5
ffffffc050301b32:	e399                	bnez	a5,ffffffc050301b38 <XEmacPs_BdRingCreate+0xac>
ffffffc050301b34:	47bd                	li	a5,15
ffffffc050301b36:	a285                	j	ffffffc050301c96 <XEmacPs_BdRingCreate+0x20a>
ffffffc050301b38:	fc843783          	ld	a5,-56(s0)
ffffffc050301b3c:	4721                	li	a4,8
ffffffc050301b3e:	d398                	sw	a4,32(a5)
ffffffc050301b40:	fc843783          	ld	a5,-56(s0)
ffffffc050301b44:	539c                	lw	a5,32(a5)
ffffffc050301b46:	fb042703          	lw	a4,-80(s0)
ffffffc050301b4a:	02f707bb          	mulw	a5,a4,a5
ffffffc050301b4e:	2781                	sext.w	a5,a5
ffffffc050301b50:	02079713          	slli	a4,a5,0x20
ffffffc050301b54:	9301                	srli	a4,a4,0x20
ffffffc050301b56:	fd043783          	ld	a5,-48(s0)
ffffffc050301b5a:	97ba                	add	a5,a5,a4
ffffffc050301b5c:	17fd                	addi	a5,a5,-1
ffffffc050301b5e:	fd043703          	ld	a4,-48(s0)
ffffffc050301b62:	00e7f563          	bgeu	a5,a4,ffffffc050301b6c <XEmacPs_BdRingCreate+0xe0>
ffffffc050301b66:	20e00793          	li	a5,526
ffffffc050301b6a:	a235                	j	ffffffc050301c96 <XEmacPs_BdRingCreate+0x20a>
ffffffc050301b6c:	fd043683          	ld	a3,-48(s0)
ffffffc050301b70:	fc843783          	ld	a5,-56(s0)
ffffffc050301b74:	539c                	lw	a5,32(a5)
ffffffc050301b76:	fb042703          	lw	a4,-80(s0)
ffffffc050301b7a:	02f707bb          	mulw	a5,a4,a5
ffffffc050301b7e:	2781                	sext.w	a5,a5
ffffffc050301b80:	863e                	mv	a2,a5
ffffffc050301b82:	4581                	li	a1,0
ffffffc050301b84:	8536                	mv	a0,a3
ffffffc050301b86:	65e080ef          	jal	ra,ffffffc05030a1e4 <memset>
ffffffc050301b8a:	fd043783          	ld	a5,-48(s0)
ffffffc050301b8e:	fef43023          	sd	a5,-32(s0)
ffffffc050301b92:	fc843783          	ld	a5,-56(s0)
ffffffc050301b96:	539c                	lw	a5,32(a5)
ffffffc050301b98:	1782                	slli	a5,a5,0x20
ffffffc050301b9a:	9381                	srli	a5,a5,0x20
ffffffc050301b9c:	fc043703          	ld	a4,-64(s0)
ffffffc050301ba0:	97ba                	add	a5,a5,a4
ffffffc050301ba2:	fcf43c23          	sd	a5,-40(s0)
ffffffc050301ba6:	4785                	li	a5,1
ffffffc050301ba8:	fef42623          	sw	a5,-20(s0)
ffffffc050301bac:	a815                	j	ffffffc050301be0 <XEmacPs_BdRingCreate+0x154>
ffffffc050301bae:	fc843783          	ld	a5,-56(s0)
ffffffc050301bb2:	539c                	lw	a5,32(a5)
ffffffc050301bb4:	1782                	slli	a5,a5,0x20
ffffffc050301bb6:	9381                	srli	a5,a5,0x20
ffffffc050301bb8:	fe043703          	ld	a4,-32(s0)
ffffffc050301bbc:	97ba                	add	a5,a5,a4
ffffffc050301bbe:	fef43023          	sd	a5,-32(s0)
ffffffc050301bc2:	fc843783          	ld	a5,-56(s0)
ffffffc050301bc6:	539c                	lw	a5,32(a5)
ffffffc050301bc8:	1782                	slli	a5,a5,0x20
ffffffc050301bca:	9381                	srli	a5,a5,0x20
ffffffc050301bcc:	fd843703          	ld	a4,-40(s0)
ffffffc050301bd0:	97ba                	add	a5,a5,a4
ffffffc050301bd2:	fcf43c23          	sd	a5,-40(s0)
ffffffc050301bd6:	fec42783          	lw	a5,-20(s0)
ffffffc050301bda:	2785                	addiw	a5,a5,1
ffffffc050301bdc:	fef42623          	sw	a5,-20(s0)
ffffffc050301be0:	fec42703          	lw	a4,-20(s0)
ffffffc050301be4:	fb042783          	lw	a5,-80(s0)
ffffffc050301be8:	2701                	sext.w	a4,a4
ffffffc050301bea:	2781                	sext.w	a5,a5
ffffffc050301bec:	fcf761e3          	bltu	a4,a5,ffffffc050301bae <XEmacPs_BdRingCreate+0x122>
ffffffc050301bf0:	fc843783          	ld	a5,-56(s0)
ffffffc050301bf4:	20300713          	li	a4,515
ffffffc050301bf8:	cfd8                	sw	a4,28(a5)
ffffffc050301bfa:	fc843783          	ld	a5,-56(s0)
ffffffc050301bfe:	fd043703          	ld	a4,-48(s0)
ffffffc050301c02:	e798                	sd	a4,8(a5)
ffffffc050301c04:	fc843783          	ld	a5,-56(s0)
ffffffc050301c08:	fc043703          	ld	a4,-64(s0)
ffffffc050301c0c:	e398                	sd	a4,0(a5)
ffffffc050301c0e:	fc843783          	ld	a5,-56(s0)
ffffffc050301c12:	fe043703          	ld	a4,-32(s0)
ffffffc050301c16:	eb98                	sd	a4,16(a5)
ffffffc050301c18:	fc843783          	ld	a5,-56(s0)
ffffffc050301c1c:	6b9c                	ld	a5,16(a5)
ffffffc050301c1e:	0007871b          	sext.w	a4,a5
ffffffc050301c22:	fc843783          	ld	a5,-56(s0)
ffffffc050301c26:	679c                	ld	a5,8(a5)
ffffffc050301c28:	2781                	sext.w	a5,a5
ffffffc050301c2a:	40f707bb          	subw	a5,a4,a5
ffffffc050301c2e:	0007871b          	sext.w	a4,a5
ffffffc050301c32:	fc843783          	ld	a5,-56(s0)
ffffffc050301c36:	539c                	lw	a5,32(a5)
ffffffc050301c38:	9fb9                	addw	a5,a5,a4
ffffffc050301c3a:	0007871b          	sext.w	a4,a5
ffffffc050301c3e:	fc843783          	ld	a5,-56(s0)
ffffffc050301c42:	cf98                	sw	a4,24(a5)
ffffffc050301c44:	fc843783          	ld	a5,-56(s0)
ffffffc050301c48:	fb042703          	lw	a4,-80(s0)
ffffffc050301c4c:	d7b8                	sw	a4,104(a5)
ffffffc050301c4e:	fc843783          	ld	a5,-56(s0)
ffffffc050301c52:	fb042703          	lw	a4,-80(s0)
ffffffc050301c56:	d3b8                	sw	a4,96(a5)
ffffffc050301c58:	fd043703          	ld	a4,-48(s0)
ffffffc050301c5c:	fc843783          	ld	a5,-56(s0)
ffffffc050301c60:	f798                	sd	a4,40(a5)
ffffffc050301c62:	fd043703          	ld	a4,-48(s0)
ffffffc050301c66:	fc843783          	ld	a5,-56(s0)
ffffffc050301c6a:	fb98                	sd	a4,48(a5)
ffffffc050301c6c:	fd043703          	ld	a4,-48(s0)
ffffffc050301c70:	fc843783          	ld	a5,-56(s0)
ffffffc050301c74:	ff98                	sd	a4,56(a5)
ffffffc050301c76:	fd043703          	ld	a4,-48(s0)
ffffffc050301c7a:	fc843783          	ld	a5,-56(s0)
ffffffc050301c7e:	e3b8                	sd	a4,64(a5)
ffffffc050301c80:	fd043703          	ld	a4,-48(s0)
ffffffc050301c84:	fc843783          	ld	a5,-56(s0)
ffffffc050301c88:	e7b8                	sd	a4,72(a5)
ffffffc050301c8a:	fc043703          	ld	a4,-64(s0)
ffffffc050301c8e:	fc843783          	ld	a5,-56(s0)
ffffffc050301c92:	ebb8                	sd	a4,80(a5)
ffffffc050301c94:	4781                	li	a5,0
ffffffc050301c96:	853e                	mv	a0,a5
ffffffc050301c98:	60e6                	ld	ra,88(sp)
ffffffc050301c9a:	6446                	ld	s0,80(sp)
ffffffc050301c9c:	6125                	addi	sp,sp,96
ffffffc050301c9e:	8082                	ret

ffffffc050301ca0 <XEmacPs_BdRingClone>:
ffffffc050301ca0:	7139                	addi	sp,sp,-64
ffffffc050301ca2:	fc06                	sd	ra,56(sp)
ffffffc050301ca4:	f822                	sd	s0,48(sp)
ffffffc050301ca6:	0080                	addi	s0,sp,64
ffffffc050301ca8:	fca43c23          	sd	a0,-40(s0)
ffffffc050301cac:	fcb43823          	sd	a1,-48(s0)
ffffffc050301cb0:	87b2                	mv	a5,a2
ffffffc050301cb2:	fcf407a3          	sb	a5,-49(s0)
ffffffc050301cb6:	fd843783          	ld	a5,-40(s0)
ffffffc050301cba:	57bc                	lw	a5,104(a5)
ffffffc050301cbc:	e781                	bnez	a5,ffffffc050301cc4 <XEmacPs_BdRingClone+0x24>
ffffffc050301cbe:	20b00793          	li	a5,523
ffffffc050301cc2:	a8c9                	j	ffffffc050301d94 <XEmacPs_BdRingClone+0xf4>
ffffffc050301cc4:	fd843783          	ld	a5,-40(s0)
ffffffc050301cc8:	4fdc                	lw	a5,28(a5)
ffffffc050301cca:	873e                	mv	a4,a5
ffffffc050301ccc:	20200793          	li	a5,514
ffffffc050301cd0:	00f71463          	bne	a4,a5,ffffffc050301cd8 <XEmacPs_BdRingClone+0x38>
ffffffc050301cd4:	4795                	li	a5,5
ffffffc050301cd6:	a87d                	j	ffffffc050301d94 <XEmacPs_BdRingClone+0xf4>
ffffffc050301cd8:	fd843783          	ld	a5,-40(s0)
ffffffc050301cdc:	53b8                	lw	a4,96(a5)
ffffffc050301cde:	fd843783          	ld	a5,-40(s0)
ffffffc050301ce2:	57bc                	lw	a5,104(a5)
ffffffc050301ce4:	00f70563          	beq	a4,a5,ffffffc050301cee <XEmacPs_BdRingClone+0x4e>
ffffffc050301ce8:	20e00793          	li	a5,526
ffffffc050301cec:	a065                	j	ffffffc050301d94 <XEmacPs_BdRingClone+0xf4>
ffffffc050301cee:	fcf44783          	lbu	a5,-49(s0)
ffffffc050301cf2:	0ff7f713          	andi	a4,a5,255
ffffffc050301cf6:	4785                	li	a5,1
ffffffc050301cf8:	00f70b63          	beq	a4,a5,ffffffc050301d0e <XEmacPs_BdRingClone+0x6e>
ffffffc050301cfc:	fcf44783          	lbu	a5,-49(s0)
ffffffc050301d00:	0ff7f713          	andi	a4,a5,255
ffffffc050301d04:	4789                	li	a5,2
ffffffc050301d06:	00f70463          	beq	a4,a5,ffffffc050301d0e <XEmacPs_BdRingClone+0x6e>
ffffffc050301d0a:	47bd                	li	a5,15
ffffffc050301d0c:	a061                	j	ffffffc050301d94 <XEmacPs_BdRingClone+0xf4>
ffffffc050301d0e:	fd843783          	ld	a5,-40(s0)
ffffffc050301d12:	679c                	ld	a5,8(a5)
ffffffc050301d14:	fef43023          	sd	a5,-32(s0)
ffffffc050301d18:	fe042623          	sw	zero,-20(s0)
ffffffc050301d1c:	a805                	j	ffffffc050301d4c <XEmacPs_BdRingClone+0xac>
ffffffc050301d1e:	fe043783          	ld	a5,-32(s0)
ffffffc050301d22:	4621                	li	a2,8
ffffffc050301d24:	fd043583          	ld	a1,-48(s0)
ffffffc050301d28:	853e                	mv	a0,a5
ffffffc050301d2a:	468080ef          	jal	ra,ffffffc05030a192 <memcpy>
ffffffc050301d2e:	fd843783          	ld	a5,-40(s0)
ffffffc050301d32:	539c                	lw	a5,32(a5)
ffffffc050301d34:	1782                	slli	a5,a5,0x20
ffffffc050301d36:	9381                	srli	a5,a5,0x20
ffffffc050301d38:	fe043703          	ld	a4,-32(s0)
ffffffc050301d3c:	97ba                	add	a5,a5,a4
ffffffc050301d3e:	fef43023          	sd	a5,-32(s0)
ffffffc050301d42:	fec42783          	lw	a5,-20(s0)
ffffffc050301d46:	2785                	addiw	a5,a5,1
ffffffc050301d48:	fef42623          	sw	a5,-20(s0)
ffffffc050301d4c:	fd843783          	ld	a5,-40(s0)
ffffffc050301d50:	57b8                	lw	a4,104(a5)
ffffffc050301d52:	fec42783          	lw	a5,-20(s0)
ffffffc050301d56:	2781                	sext.w	a5,a5
ffffffc050301d58:	fce7e3e3          	bltu	a5,a4,ffffffc050301d1e <XEmacPs_BdRingClone+0x7e>
ffffffc050301d5c:	fd843783          	ld	a5,-40(s0)
ffffffc050301d60:	539c                	lw	a5,32(a5)
ffffffc050301d62:	1782                	slli	a5,a5,0x20
ffffffc050301d64:	9381                	srli	a5,a5,0x20
ffffffc050301d66:	fe043703          	ld	a4,-32(s0)
ffffffc050301d6a:	40f707b3          	sub	a5,a4,a5
ffffffc050301d6e:	fef43023          	sd	a5,-32(s0)
ffffffc050301d72:	fcf44783          	lbu	a5,-49(s0)
ffffffc050301d76:	0ff7f713          	andi	a4,a5,255
ffffffc050301d7a:	4789                	li	a5,2
ffffffc050301d7c:	00f71763          	bne	a4,a5,ffffffc050301d8a <XEmacPs_BdRingClone+0xea>
ffffffc050301d80:	fe043503          	ld	a0,-32(s0)
ffffffc050301d84:	1e3000ef          	jal	ra,ffffffc050302766 <XEmacPs_BdSetRxWrap>
ffffffc050301d88:	a029                	j	ffffffc050301d92 <XEmacPs_BdRingClone+0xf2>
ffffffc050301d8a:	fe043503          	ld	a0,-32(s0)
ffffffc050301d8e:	219000ef          	jal	ra,ffffffc0503027a6 <XEmacPs_BdSetTxWrap>
ffffffc050301d92:	4781                	li	a5,0
ffffffc050301d94:	853e                	mv	a0,a5
ffffffc050301d96:	70e2                	ld	ra,56(sp)
ffffffc050301d98:	7442                	ld	s0,48(sp)
ffffffc050301d9a:	6121                	addi	sp,sp,64
ffffffc050301d9c:	8082                	ret

ffffffc050301d9e <XEmacPs_BdRingAlloc>:
ffffffc050301d9e:	7139                	addi	sp,sp,-64
ffffffc050301da0:	fc22                	sd	s0,56(sp)
ffffffc050301da2:	0080                	addi	s0,sp,64
ffffffc050301da4:	fca43c23          	sd	a0,-40(s0)
ffffffc050301da8:	87ae                	mv	a5,a1
ffffffc050301daa:	fcc43423          	sd	a2,-56(s0)
ffffffc050301dae:	fcf42a23          	sw	a5,-44(s0)
ffffffc050301db2:	fd843783          	ld	a5,-40(s0)
ffffffc050301db6:	53b8                	lw	a4,96(a5)
ffffffc050301db8:	fd442783          	lw	a5,-44(s0)
ffffffc050301dbc:	2781                	sext.w	a5,a5
ffffffc050301dbe:	00f77663          	bgeu	a4,a5,ffffffc050301dca <XEmacPs_BdRingAlloc+0x2c>
ffffffc050301dc2:	4785                	li	a5,1
ffffffc050301dc4:	fef43423          	sd	a5,-24(s0)
ffffffc050301dc8:	a05d                	j	ffffffc050301e6e <XEmacPs_BdRingAlloc+0xd0>
ffffffc050301dca:	fd843783          	ld	a5,-40(s0)
ffffffc050301dce:	7798                	ld	a4,40(a5)
ffffffc050301dd0:	fc843783          	ld	a5,-56(s0)
ffffffc050301dd4:	e398                	sd	a4,0(a5)
ffffffc050301dd6:	fd843783          	ld	a5,-40(s0)
ffffffc050301dda:	779c                	ld	a5,40(a5)
ffffffc050301ddc:	fef43023          	sd	a5,-32(s0)
ffffffc050301de0:	fd843783          	ld	a5,-40(s0)
ffffffc050301de4:	539c                	lw	a5,32(a5)
ffffffc050301de6:	fd442703          	lw	a4,-44(s0)
ffffffc050301dea:	02f707bb          	mulw	a5,a4,a5
ffffffc050301dee:	2781                	sext.w	a5,a5
ffffffc050301df0:	1782                	slli	a5,a5,0x20
ffffffc050301df2:	9381                	srli	a5,a5,0x20
ffffffc050301df4:	fe043703          	ld	a4,-32(s0)
ffffffc050301df8:	97ba                	add	a5,a5,a4
ffffffc050301dfa:	fef43023          	sd	a5,-32(s0)
ffffffc050301dfe:	fd843783          	ld	a5,-40(s0)
ffffffc050301e02:	6b9c                	ld	a5,16(a5)
ffffffc050301e04:	fe043703          	ld	a4,-32(s0)
ffffffc050301e08:	00e7ea63          	bltu	a5,a4,ffffffc050301e1c <XEmacPs_BdRingAlloc+0x7e>
ffffffc050301e0c:	fd843783          	ld	a5,-40(s0)
ffffffc050301e10:	779c                	ld	a5,40(a5)
ffffffc050301e12:	873e                	mv	a4,a5
ffffffc050301e14:	fe043783          	ld	a5,-32(s0)
ffffffc050301e18:	00e7fd63          	bgeu	a5,a4,ffffffc050301e32 <XEmacPs_BdRingAlloc+0x94>
ffffffc050301e1c:	fd843783          	ld	a5,-40(s0)
ffffffc050301e20:	4f9c                	lw	a5,24(a5)
ffffffc050301e22:	1782                	slli	a5,a5,0x20
ffffffc050301e24:	9381                	srli	a5,a5,0x20
ffffffc050301e26:	fe043703          	ld	a4,-32(s0)
ffffffc050301e2a:	40f707b3          	sub	a5,a4,a5
ffffffc050301e2e:	fef43023          	sd	a5,-32(s0)
ffffffc050301e32:	fe043703          	ld	a4,-32(s0)
ffffffc050301e36:	fd843783          	ld	a5,-40(s0)
ffffffc050301e3a:	f798                	sd	a4,40(a5)
ffffffc050301e3c:	fd843783          	ld	a5,-40(s0)
ffffffc050301e40:	53b8                	lw	a4,96(a5)
ffffffc050301e42:	fd442783          	lw	a5,-44(s0)
ffffffc050301e46:	40f707bb          	subw	a5,a4,a5
ffffffc050301e4a:	0007871b          	sext.w	a4,a5
ffffffc050301e4e:	fd843783          	ld	a5,-40(s0)
ffffffc050301e52:	d3b8                	sw	a4,96(a5)
ffffffc050301e54:	fd843783          	ld	a5,-40(s0)
ffffffc050301e58:	4ffc                	lw	a5,92(a5)
ffffffc050301e5a:	fd442703          	lw	a4,-44(s0)
ffffffc050301e5e:	9fb9                	addw	a5,a5,a4
ffffffc050301e60:	0007871b          	sext.w	a4,a5
ffffffc050301e64:	fd843783          	ld	a5,-40(s0)
ffffffc050301e68:	cff8                	sw	a4,92(a5)
ffffffc050301e6a:	fe043423          	sd	zero,-24(s0)
ffffffc050301e6e:	fe843783          	ld	a5,-24(s0)
ffffffc050301e72:	853e                	mv	a0,a5
ffffffc050301e74:	7462                	ld	s0,56(sp)
ffffffc050301e76:	6121                	addi	sp,sp,64
ffffffc050301e78:	8082                	ret

ffffffc050301e7a <XEmacPs_BdRingUnAlloc>:
ffffffc050301e7a:	7139                	addi	sp,sp,-64
ffffffc050301e7c:	fc22                	sd	s0,56(sp)
ffffffc050301e7e:	0080                	addi	s0,sp,64
ffffffc050301e80:	fca43c23          	sd	a0,-40(s0)
ffffffc050301e84:	87ae                	mv	a5,a1
ffffffc050301e86:	fcc43423          	sd	a2,-56(s0)
ffffffc050301e8a:	fcf42a23          	sw	a5,-44(s0)
ffffffc050301e8e:	fd843783          	ld	a5,-40(s0)
ffffffc050301e92:	4ff8                	lw	a4,92(a5)
ffffffc050301e94:	fd442783          	lw	a5,-44(s0)
ffffffc050301e98:	2781                	sext.w	a5,a5
ffffffc050301e9a:	00f77663          	bgeu	a4,a5,ffffffc050301ea6 <XEmacPs_BdRingUnAlloc+0x2c>
ffffffc050301e9e:	4785                	li	a5,1
ffffffc050301ea0:	fef43423          	sd	a5,-24(s0)
ffffffc050301ea4:	a869                	j	ffffffc050301f3e <XEmacPs_BdRingUnAlloc+0xc4>
ffffffc050301ea6:	fd843783          	ld	a5,-40(s0)
ffffffc050301eaa:	779c                	ld	a5,40(a5)
ffffffc050301eac:	fef43023          	sd	a5,-32(s0)
ffffffc050301eb0:	fd843783          	ld	a5,-40(s0)
ffffffc050301eb4:	539c                	lw	a5,32(a5)
ffffffc050301eb6:	fd442703          	lw	a4,-44(s0)
ffffffc050301eba:	02f707bb          	mulw	a5,a4,a5
ffffffc050301ebe:	2781                	sext.w	a5,a5
ffffffc050301ec0:	1782                	slli	a5,a5,0x20
ffffffc050301ec2:	9381                	srli	a5,a5,0x20
ffffffc050301ec4:	fe043703          	ld	a4,-32(s0)
ffffffc050301ec8:	40f707b3          	sub	a5,a4,a5
ffffffc050301ecc:	fef43023          	sd	a5,-32(s0)
ffffffc050301ed0:	fd843783          	ld	a5,-40(s0)
ffffffc050301ed4:	679c                	ld	a5,8(a5)
ffffffc050301ed6:	fe043703          	ld	a4,-32(s0)
ffffffc050301eda:	00f76a63          	bltu	a4,a5,ffffffc050301eee <XEmacPs_BdRingUnAlloc+0x74>
ffffffc050301ede:	fd843783          	ld	a5,-40(s0)
ffffffc050301ee2:	779c                	ld	a5,40(a5)
ffffffc050301ee4:	873e                	mv	a4,a5
ffffffc050301ee6:	fe043783          	ld	a5,-32(s0)
ffffffc050301eea:	00f77c63          	bgeu	a4,a5,ffffffc050301f02 <XEmacPs_BdRingUnAlloc+0x88>
ffffffc050301eee:	fd843783          	ld	a5,-40(s0)
ffffffc050301ef2:	4f9c                	lw	a5,24(a5)
ffffffc050301ef4:	1782                	slli	a5,a5,0x20
ffffffc050301ef6:	9381                	srli	a5,a5,0x20
ffffffc050301ef8:	fe043703          	ld	a4,-32(s0)
ffffffc050301efc:	97ba                	add	a5,a5,a4
ffffffc050301efe:	fef43023          	sd	a5,-32(s0)
ffffffc050301f02:	fe043703          	ld	a4,-32(s0)
ffffffc050301f06:	fd843783          	ld	a5,-40(s0)
ffffffc050301f0a:	f798                	sd	a4,40(a5)
ffffffc050301f0c:	fd843783          	ld	a5,-40(s0)
ffffffc050301f10:	53bc                	lw	a5,96(a5)
ffffffc050301f12:	fd442703          	lw	a4,-44(s0)
ffffffc050301f16:	9fb9                	addw	a5,a5,a4
ffffffc050301f18:	0007871b          	sext.w	a4,a5
ffffffc050301f1c:	fd843783          	ld	a5,-40(s0)
ffffffc050301f20:	d3b8                	sw	a4,96(a5)
ffffffc050301f22:	fd843783          	ld	a5,-40(s0)
ffffffc050301f26:	4ff8                	lw	a4,92(a5)
ffffffc050301f28:	fd442783          	lw	a5,-44(s0)
ffffffc050301f2c:	40f707bb          	subw	a5,a4,a5
ffffffc050301f30:	0007871b          	sext.w	a4,a5
ffffffc050301f34:	fd843783          	ld	a5,-40(s0)
ffffffc050301f38:	cff8                	sw	a4,92(a5)
ffffffc050301f3a:	fe043423          	sd	zero,-24(s0)
ffffffc050301f3e:	fe843783          	ld	a5,-24(s0)
ffffffc050301f42:	853e                	mv	a0,a5
ffffffc050301f44:	7462                	ld	s0,56(sp)
ffffffc050301f46:	6121                	addi	sp,sp,64
ffffffc050301f48:	8082                	ret

ffffffc050301f4a <XEmacPs_BdRingToHw>:
ffffffc050301f4a:	715d                	addi	sp,sp,-80
ffffffc050301f4c:	e4a2                	sd	s0,72(sp)
ffffffc050301f4e:	0880                	addi	s0,sp,80
ffffffc050301f50:	fca43423          	sd	a0,-56(s0)
ffffffc050301f54:	87ae                	mv	a5,a1
ffffffc050301f56:	fac43c23          	sd	a2,-72(s0)
ffffffc050301f5a:	fcf42223          	sw	a5,-60(s0)
ffffffc050301f5e:	fc442783          	lw	a5,-60(s0)
ffffffc050301f62:	2781                	sext.w	a5,a5
ffffffc050301f64:	e781                	bnez	a5,ffffffc050301f6c <XEmacPs_BdRingToHw+0x22>
ffffffc050301f66:	fc043c23          	sd	zero,-40(s0)
ffffffc050301f6a:	a20d                	j	ffffffc05030208c <XEmacPs_BdRingToHw+0x142>
ffffffc050301f6c:	fc843783          	ld	a5,-56(s0)
ffffffc050301f70:	4ff8                	lw	a4,92(a5)
ffffffc050301f72:	fc442783          	lw	a5,-60(s0)
ffffffc050301f76:	2781                	sext.w	a5,a5
ffffffc050301f78:	00f76963          	bltu	a4,a5,ffffffc050301f8a <XEmacPs_BdRingToHw+0x40>
ffffffc050301f7c:	fc843783          	ld	a5,-56(s0)
ffffffc050301f80:	7b9c                	ld	a5,48(a5)
ffffffc050301f82:	fb843703          	ld	a4,-72(s0)
ffffffc050301f86:	00f70763          	beq	a4,a5,ffffffc050301f94 <XEmacPs_BdRingToHw+0x4a>
ffffffc050301f8a:	20e00793          	li	a5,526
ffffffc050301f8e:	fcf43c23          	sd	a5,-40(s0)
ffffffc050301f92:	a8ed                	j	ffffffc05030208c <XEmacPs_BdRingToHw+0x142>
ffffffc050301f94:	fb843783          	ld	a5,-72(s0)
ffffffc050301f98:	fef43423          	sd	a5,-24(s0)
ffffffc050301f9c:	fe042223          	sw	zero,-28(s0)
ffffffc050301fa0:	a825                	j	ffffffc050301fd8 <XEmacPs_BdRingToHw+0x8e>
ffffffc050301fa2:	fc843783          	ld	a5,-56(s0)
ffffffc050301fa6:	6b98                	ld	a4,16(a5)
ffffffc050301fa8:	fe843783          	ld	a5,-24(s0)
ffffffc050301fac:	00e7e663          	bltu	a5,a4,ffffffc050301fb8 <XEmacPs_BdRingToHw+0x6e>
ffffffc050301fb0:	fc843783          	ld	a5,-56(s0)
ffffffc050301fb4:	679c                	ld	a5,8(a5)
ffffffc050301fb6:	a811                	j	ffffffc050301fca <XEmacPs_BdRingToHw+0x80>
ffffffc050301fb8:	fc843783          	ld	a5,-56(s0)
ffffffc050301fbc:	539c                	lw	a5,32(a5)
ffffffc050301fbe:	02079713          	slli	a4,a5,0x20
ffffffc050301fc2:	9301                	srli	a4,a4,0x20
ffffffc050301fc4:	fe843783          	ld	a5,-24(s0)
ffffffc050301fc8:	97ba                	add	a5,a5,a4
ffffffc050301fca:	fef43423          	sd	a5,-24(s0)
ffffffc050301fce:	fe442783          	lw	a5,-28(s0)
ffffffc050301fd2:	2785                	addiw	a5,a5,1
ffffffc050301fd4:	fef42223          	sw	a5,-28(s0)
ffffffc050301fd8:	fe442703          	lw	a4,-28(s0)
ffffffc050301fdc:	fc442783          	lw	a5,-60(s0)
ffffffc050301fe0:	2701                	sext.w	a4,a4
ffffffc050301fe2:	2781                	sext.w	a5,a5
ffffffc050301fe4:	faf76fe3          	bltu	a4,a5,ffffffc050301fa2 <XEmacPs_BdRingToHw+0x58>
ffffffc050301fe8:	fc843783          	ld	a5,-56(s0)
ffffffc050301fec:	7b9c                	ld	a5,48(a5)
ffffffc050301fee:	fcf43823          	sd	a5,-48(s0)
ffffffc050301ff2:	fc843783          	ld	a5,-56(s0)
ffffffc050301ff6:	539c                	lw	a5,32(a5)
ffffffc050301ff8:	fc442703          	lw	a4,-60(s0)
ffffffc050301ffc:	02f707bb          	mulw	a5,a4,a5
ffffffc050302000:	2781                	sext.w	a5,a5
ffffffc050302002:	1782                	slli	a5,a5,0x20
ffffffc050302004:	9381                	srli	a5,a5,0x20
ffffffc050302006:	fd043703          	ld	a4,-48(s0)
ffffffc05030200a:	97ba                	add	a5,a5,a4
ffffffc05030200c:	fcf43823          	sd	a5,-48(s0)
ffffffc050302010:	fc843783          	ld	a5,-56(s0)
ffffffc050302014:	6b9c                	ld	a5,16(a5)
ffffffc050302016:	fd043703          	ld	a4,-48(s0)
ffffffc05030201a:	00e7ea63          	bltu	a5,a4,ffffffc05030202e <XEmacPs_BdRingToHw+0xe4>
ffffffc05030201e:	fc843783          	ld	a5,-56(s0)
ffffffc050302022:	7b9c                	ld	a5,48(a5)
ffffffc050302024:	873e                	mv	a4,a5
ffffffc050302026:	fd043783          	ld	a5,-48(s0)
ffffffc05030202a:	00e7fd63          	bgeu	a5,a4,ffffffc050302044 <XEmacPs_BdRingToHw+0xfa>
ffffffc05030202e:	fc843783          	ld	a5,-56(s0)
ffffffc050302032:	4f9c                	lw	a5,24(a5)
ffffffc050302034:	1782                	slli	a5,a5,0x20
ffffffc050302036:	9381                	srli	a5,a5,0x20
ffffffc050302038:	fd043703          	ld	a4,-48(s0)
ffffffc05030203c:	40f707b3          	sub	a5,a4,a5
ffffffc050302040:	fcf43823          	sd	a5,-48(s0)
ffffffc050302044:	fd043703          	ld	a4,-48(s0)
ffffffc050302048:	fc843783          	ld	a5,-56(s0)
ffffffc05030204c:	fb98                	sd	a4,48(a5)
ffffffc05030204e:	fc843783          	ld	a5,-56(s0)
ffffffc050302052:	4ff8                	lw	a4,92(a5)
ffffffc050302054:	fc442783          	lw	a5,-60(s0)
ffffffc050302058:	40f707bb          	subw	a5,a4,a5
ffffffc05030205c:	0007871b          	sext.w	a4,a5
ffffffc050302060:	fc843783          	ld	a5,-56(s0)
ffffffc050302064:	cff8                	sw	a4,92(a5)
ffffffc050302066:	fc843783          	ld	a5,-56(s0)
ffffffc05030206a:	fe843703          	ld	a4,-24(s0)
ffffffc05030206e:	e3b8                	sd	a4,64(a5)
ffffffc050302070:	fc843783          	ld	a5,-56(s0)
ffffffc050302074:	4fbc                	lw	a5,88(a5)
ffffffc050302076:	2781                	sext.w	a5,a5
ffffffc050302078:	fc442703          	lw	a4,-60(s0)
ffffffc05030207c:	9fb9                	addw	a5,a5,a4
ffffffc05030207e:	0007871b          	sext.w	a4,a5
ffffffc050302082:	fc843783          	ld	a5,-56(s0)
ffffffc050302086:	cfb8                	sw	a4,88(a5)
ffffffc050302088:	fc043c23          	sd	zero,-40(s0)
ffffffc05030208c:	fd843783          	ld	a5,-40(s0)
ffffffc050302090:	853e                	mv	a0,a5
ffffffc050302092:	6426                	ld	s0,72(sp)
ffffffc050302094:	6161                	addi	sp,sp,80
ffffffc050302096:	8082                	ret

ffffffc050302098 <XEmacPs_BdRingFromHwTx>:
ffffffc050302098:	711d                	addi	sp,sp,-96
ffffffc05030209a:	eca2                	sd	s0,88(sp)
ffffffc05030209c:	1080                	addi	s0,sp,96
ffffffc05030209e:	faa43c23          	sd	a0,-72(s0)
ffffffc0503020a2:	87ae                	mv	a5,a1
ffffffc0503020a4:	fac43423          	sd	a2,-88(s0)
ffffffc0503020a8:	faf42a23          	sw	a5,-76(s0)
ffffffc0503020ac:	fe042223          	sw	zero,-28(s0)
ffffffc0503020b0:	fc042c23          	sw	zero,-40(s0)
ffffffc0503020b4:	fb442783          	lw	a5,-76(s0)
ffffffc0503020b8:	fcf42823          	sw	a5,-48(s0)
ffffffc0503020bc:	fb843783          	ld	a5,-72(s0)
ffffffc0503020c0:	7f9c                	ld	a5,56(a5)
ffffffc0503020c2:	fef43423          	sd	a5,-24(s0)
ffffffc0503020c6:	fe042023          	sw	zero,-32(s0)
ffffffc0503020ca:	fc042e23          	sw	zero,-36(s0)
ffffffc0503020ce:	fb843783          	ld	a5,-72(s0)
ffffffc0503020d2:	4fbc                	lw	a5,88(a5)
ffffffc0503020d4:	2781                	sext.w	a5,a5
ffffffc0503020d6:	eb81                	bnez	a5,ffffffc0503020e6 <XEmacPs_BdRingFromHwTx+0x4e>
ffffffc0503020d8:	fa843783          	ld	a5,-88(s0)
ffffffc0503020dc:	0007b023          	sd	zero,0(a5)
ffffffc0503020e0:	fc042a23          	sw	zero,-44(s0)
ffffffc0503020e4:	aa71                	j	ffffffc050302280 <XEmacPs_BdRingFromHwTx+0x1e8>
ffffffc0503020e6:	fb843783          	ld	a5,-72(s0)
ffffffc0503020ea:	4fbc                	lw	a5,88(a5)
ffffffc0503020ec:	0007871b          	sext.w	a4,a5
ffffffc0503020f0:	fd042783          	lw	a5,-48(s0)
ffffffc0503020f4:	2781                	sext.w	a5,a5
ffffffc0503020f6:	0af77463          	bgeu	a4,a5,ffffffc05030219e <XEmacPs_BdRingFromHwTx+0x106>
ffffffc0503020fa:	fb843783          	ld	a5,-72(s0)
ffffffc0503020fe:	4fbc                	lw	a5,88(a5)
ffffffc050302100:	fcf42823          	sw	a5,-48(s0)
ffffffc050302104:	a869                	j	ffffffc05030219e <XEmacPs_BdRingFromHwTx+0x106>
ffffffc050302106:	fe843783          	ld	a5,-24(s0)
ffffffc05030210a:	c799                	beqz	a5,ffffffc050302118 <XEmacPs_BdRingFromHwTx+0x80>
ffffffc05030210c:	fe843783          	ld	a5,-24(s0)
ffffffc050302110:	0791                	addi	a5,a5,4
ffffffc050302112:	439c                	lw	a5,0(a5)
ffffffc050302114:	fef42223          	sw	a5,-28(s0)
ffffffc050302118:	fd842783          	lw	a5,-40(s0)
ffffffc05030211c:	2781                	sext.w	a5,a5
ffffffc05030211e:	eb81                	bnez	a5,ffffffc05030212e <XEmacPs_BdRingFromHwTx+0x96>
ffffffc050302120:	fe442783          	lw	a5,-28(s0)
ffffffc050302124:	0007d563          	bgez	a5,ffffffc05030212e <XEmacPs_BdRingFromHwTx+0x96>
ffffffc050302128:	4785                	li	a5,1
ffffffc05030212a:	fcf42c23          	sw	a5,-40(s0)
ffffffc05030212e:	fd842783          	lw	a5,-40(s0)
ffffffc050302132:	0007871b          	sext.w	a4,a5
ffffffc050302136:	4785                	li	a5,1
ffffffc050302138:	00f71c63          	bne	a4,a5,ffffffc050302150 <XEmacPs_BdRingFromHwTx+0xb8>
ffffffc05030213c:	fe042783          	lw	a5,-32(s0)
ffffffc050302140:	2785                	addiw	a5,a5,1
ffffffc050302142:	fef42023          	sw	a5,-32(s0)
ffffffc050302146:	fdc42783          	lw	a5,-36(s0)
ffffffc05030214a:	2785                	addiw	a5,a5,1
ffffffc05030214c:	fcf42e23          	sw	a5,-36(s0)
ffffffc050302150:	fd842783          	lw	a5,-40(s0)
ffffffc050302154:	0007871b          	sext.w	a4,a5
ffffffc050302158:	4785                	li	a5,1
ffffffc05030215a:	00f71c63          	bne	a4,a5,ffffffc050302172 <XEmacPs_BdRingFromHwTx+0xda>
ffffffc05030215e:	fe442703          	lw	a4,-28(s0)
ffffffc050302162:	67a1                	lui	a5,0x8
ffffffc050302164:	8ff9                	and	a5,a5,a4
ffffffc050302166:	2781                	sext.w	a5,a5
ffffffc050302168:	c789                	beqz	a5,ffffffc050302172 <XEmacPs_BdRingFromHwTx+0xda>
ffffffc05030216a:	fc042c23          	sw	zero,-40(s0)
ffffffc05030216e:	fc042e23          	sw	zero,-36(s0)
ffffffc050302172:	fb843783          	ld	a5,-72(s0)
ffffffc050302176:	6b98                	ld	a4,16(a5)
ffffffc050302178:	fe843783          	ld	a5,-24(s0)
ffffffc05030217c:	00e7e663          	bltu	a5,a4,ffffffc050302188 <XEmacPs_BdRingFromHwTx+0xf0>
ffffffc050302180:	fb843783          	ld	a5,-72(s0)
ffffffc050302184:	679c                	ld	a5,8(a5)
ffffffc050302186:	a811                	j	ffffffc05030219a <XEmacPs_BdRingFromHwTx+0x102>
ffffffc050302188:	fb843783          	ld	a5,-72(s0)
ffffffc05030218c:	539c                	lw	a5,32(a5)
ffffffc05030218e:	02079713          	slli	a4,a5,0x20
ffffffc050302192:	9301                	srli	a4,a4,0x20
ffffffc050302194:	fe843783          	ld	a5,-24(s0)
ffffffc050302198:	97ba                	add	a5,a5,a4
ffffffc05030219a:	fef43423          	sd	a5,-24(s0)
ffffffc05030219e:	fe042703          	lw	a4,-32(s0)
ffffffc0503021a2:	fd042783          	lw	a5,-48(s0)
ffffffc0503021a6:	2701                	sext.w	a4,a4
ffffffc0503021a8:	2781                	sext.w	a5,a5
ffffffc0503021aa:	f4f76ee3          	bltu	a4,a5,ffffffc050302106 <XEmacPs_BdRingFromHwTx+0x6e>
ffffffc0503021ae:	fe042703          	lw	a4,-32(s0)
ffffffc0503021b2:	fdc42783          	lw	a5,-36(s0)
ffffffc0503021b6:	40f707bb          	subw	a5,a4,a5
ffffffc0503021ba:	fef42023          	sw	a5,-32(s0)
ffffffc0503021be:	fe042783          	lw	a5,-32(s0)
ffffffc0503021c2:	2781                	sext.w	a5,a5
ffffffc0503021c4:	cbc5                	beqz	a5,ffffffc050302274 <XEmacPs_BdRingFromHwTx+0x1dc>
ffffffc0503021c6:	fb843783          	ld	a5,-72(s0)
ffffffc0503021ca:	7f98                	ld	a4,56(a5)
ffffffc0503021cc:	fa843783          	ld	a5,-88(s0)
ffffffc0503021d0:	e398                	sd	a4,0(a5)
ffffffc0503021d2:	fb843783          	ld	a5,-72(s0)
ffffffc0503021d6:	4fbc                	lw	a5,88(a5)
ffffffc0503021d8:	0007871b          	sext.w	a4,a5
ffffffc0503021dc:	fe042783          	lw	a5,-32(s0)
ffffffc0503021e0:	40f707bb          	subw	a5,a4,a5
ffffffc0503021e4:	0007871b          	sext.w	a4,a5
ffffffc0503021e8:	fb843783          	ld	a5,-72(s0)
ffffffc0503021ec:	cfb8                	sw	a4,88(a5)
ffffffc0503021ee:	fb843783          	ld	a5,-72(s0)
ffffffc0503021f2:	53fc                	lw	a5,100(a5)
ffffffc0503021f4:	fe042703          	lw	a4,-32(s0)
ffffffc0503021f8:	9fb9                	addw	a5,a5,a4
ffffffc0503021fa:	0007871b          	sext.w	a4,a5
ffffffc0503021fe:	fb843783          	ld	a5,-72(s0)
ffffffc050302202:	d3f8                	sw	a4,100(a5)
ffffffc050302204:	fb843783          	ld	a5,-72(s0)
ffffffc050302208:	7f9c                	ld	a5,56(a5)
ffffffc05030220a:	fcf43423          	sd	a5,-56(s0)
ffffffc05030220e:	fb843783          	ld	a5,-72(s0)
ffffffc050302212:	539c                	lw	a5,32(a5)
ffffffc050302214:	fe042703          	lw	a4,-32(s0)
ffffffc050302218:	02f707bb          	mulw	a5,a4,a5
ffffffc05030221c:	2781                	sext.w	a5,a5
ffffffc05030221e:	1782                	slli	a5,a5,0x20
ffffffc050302220:	9381                	srli	a5,a5,0x20
ffffffc050302222:	fc843703          	ld	a4,-56(s0)
ffffffc050302226:	97ba                	add	a5,a5,a4
ffffffc050302228:	fcf43423          	sd	a5,-56(s0)
ffffffc05030222c:	fb843783          	ld	a5,-72(s0)
ffffffc050302230:	6b9c                	ld	a5,16(a5)
ffffffc050302232:	fc843703          	ld	a4,-56(s0)
ffffffc050302236:	00e7ea63          	bltu	a5,a4,ffffffc05030224a <XEmacPs_BdRingFromHwTx+0x1b2>
ffffffc05030223a:	fb843783          	ld	a5,-72(s0)
ffffffc05030223e:	7f9c                	ld	a5,56(a5)
ffffffc050302240:	873e                	mv	a4,a5
ffffffc050302242:	fc843783          	ld	a5,-56(s0)
ffffffc050302246:	00e7fd63          	bgeu	a5,a4,ffffffc050302260 <XEmacPs_BdRingFromHwTx+0x1c8>
ffffffc05030224a:	fb843783          	ld	a5,-72(s0)
ffffffc05030224e:	4f9c                	lw	a5,24(a5)
ffffffc050302250:	1782                	slli	a5,a5,0x20
ffffffc050302252:	9381                	srli	a5,a5,0x20
ffffffc050302254:	fc843703          	ld	a4,-56(s0)
ffffffc050302258:	40f707b3          	sub	a5,a4,a5
ffffffc05030225c:	fcf43423          	sd	a5,-56(s0)
ffffffc050302260:	fc843703          	ld	a4,-56(s0)
ffffffc050302264:	fb843783          	ld	a5,-72(s0)
ffffffc050302268:	ff98                	sd	a4,56(a5)
ffffffc05030226a:	fe042783          	lw	a5,-32(s0)
ffffffc05030226e:	fcf42a23          	sw	a5,-44(s0)
ffffffc050302272:	a039                	j	ffffffc050302280 <XEmacPs_BdRingFromHwTx+0x1e8>
ffffffc050302274:	fa843783          	ld	a5,-88(s0)
ffffffc050302278:	0007b023          	sd	zero,0(a5) # 8000 <_start-0xffffffc0502f8000>
ffffffc05030227c:	fc042a23          	sw	zero,-44(s0)
ffffffc050302280:	fd442783          	lw	a5,-44(s0)
ffffffc050302284:	853e                	mv	a0,a5
ffffffc050302286:	6466                	ld	s0,88(sp)
ffffffc050302288:	6125                	addi	sp,sp,96
ffffffc05030228a:	8082                	ret

ffffffc05030228c <XEmacPs_BdRingFromHwRx>:
ffffffc05030228c:	715d                	addi	sp,sp,-80
ffffffc05030228e:	e4a2                	sd	s0,72(sp)
ffffffc050302290:	0880                	addi	s0,sp,80
ffffffc050302292:	fca43423          	sd	a0,-56(s0)
ffffffc050302296:	87ae                	mv	a5,a1
ffffffc050302298:	fac43c23          	sd	a2,-72(s0)
ffffffc05030229c:	fcf42223          	sw	a5,-60(s0)
ffffffc0503022a0:	fe042223          	sw	zero,-28(s0)
ffffffc0503022a4:	fc843783          	ld	a5,-56(s0)
ffffffc0503022a8:	7f9c                	ld	a5,56(a5)
ffffffc0503022aa:	fef43423          	sd	a5,-24(s0)
ffffffc0503022ae:	fe042023          	sw	zero,-32(s0)
ffffffc0503022b2:	fc042e23          	sw	zero,-36(s0)
ffffffc0503022b6:	fc843783          	ld	a5,-56(s0)
ffffffc0503022ba:	4fbc                	lw	a5,88(a5)
ffffffc0503022bc:	2781                	sext.w	a5,a5
ffffffc0503022be:	e3c1                	bnez	a5,ffffffc05030233e <XEmacPs_BdRingFromHwRx+0xb2>
ffffffc0503022c0:	fb843783          	ld	a5,-72(s0)
ffffffc0503022c4:	0007b023          	sd	zero,0(a5)
ffffffc0503022c8:	fc042c23          	sw	zero,-40(s0)
ffffffc0503022cc:	aaa1                	j	ffffffc050302424 <XEmacPs_BdRingFromHwRx+0x198>
ffffffc0503022ce:	fe843783          	ld	a5,-24(s0)
ffffffc0503022d2:	c799                	beqz	a5,ffffffc0503022e0 <XEmacPs_BdRingFromHwRx+0x54>
ffffffc0503022d4:	fe843783          	ld	a5,-24(s0)
ffffffc0503022d8:	0791                	addi	a5,a5,4
ffffffc0503022da:	439c                	lw	a5,0(a5)
ffffffc0503022dc:	fef42223          	sw	a5,-28(s0)
ffffffc0503022e0:	fe843783          	ld	a5,-24(s0)
ffffffc0503022e4:	439c                	lw	a5,0(a5)
ffffffc0503022e6:	8b85                	andi	a5,a5,1
ffffffc0503022e8:	2781                	sext.w	a5,a5
ffffffc0503022ea:	c3bd                	beqz	a5,ffffffc050302350 <XEmacPs_BdRingFromHwRx+0xc4>
ffffffc0503022ec:	fe042783          	lw	a5,-32(s0)
ffffffc0503022f0:	2785                	addiw	a5,a5,1
ffffffc0503022f2:	fef42023          	sw	a5,-32(s0)
ffffffc0503022f6:	fe442703          	lw	a4,-28(s0)
ffffffc0503022fa:	67a1                	lui	a5,0x8
ffffffc0503022fc:	8ff9                	and	a5,a5,a4
ffffffc0503022fe:	2781                	sext.w	a5,a5
ffffffc050302300:	c781                	beqz	a5,ffffffc050302308 <XEmacPs_BdRingFromHwRx+0x7c>
ffffffc050302302:	fc042e23          	sw	zero,-36(s0)
ffffffc050302306:	a031                	j	ffffffc050302312 <XEmacPs_BdRingFromHwRx+0x86>
ffffffc050302308:	fdc42783          	lw	a5,-36(s0)
ffffffc05030230c:	2785                	addiw	a5,a5,1
ffffffc05030230e:	fcf42e23          	sw	a5,-36(s0)
ffffffc050302312:	fc843783          	ld	a5,-56(s0)
ffffffc050302316:	6b98                	ld	a4,16(a5)
ffffffc050302318:	fe843783          	ld	a5,-24(s0)
ffffffc05030231c:	00e7e663          	bltu	a5,a4,ffffffc050302328 <XEmacPs_BdRingFromHwRx+0x9c>
ffffffc050302320:	fc843783          	ld	a5,-56(s0)
ffffffc050302324:	679c                	ld	a5,8(a5)
ffffffc050302326:	a811                	j	ffffffc05030233a <XEmacPs_BdRingFromHwRx+0xae>
ffffffc050302328:	fc843783          	ld	a5,-56(s0)
ffffffc05030232c:	539c                	lw	a5,32(a5)
ffffffc05030232e:	02079713          	slli	a4,a5,0x20
ffffffc050302332:	9301                	srli	a4,a4,0x20
ffffffc050302334:	fe843783          	ld	a5,-24(s0)
ffffffc050302338:	97ba                	add	a5,a5,a4
ffffffc05030233a:	fef43423          	sd	a5,-24(s0)
ffffffc05030233e:	fe042703          	lw	a4,-32(s0)
ffffffc050302342:	fc442783          	lw	a5,-60(s0)
ffffffc050302346:	2701                	sext.w	a4,a4
ffffffc050302348:	2781                	sext.w	a5,a5
ffffffc05030234a:	f8f762e3          	bltu	a4,a5,ffffffc0503022ce <XEmacPs_BdRingFromHwRx+0x42>
ffffffc05030234e:	a011                	j	ffffffc050302352 <XEmacPs_BdRingFromHwRx+0xc6>
ffffffc050302350:	0001                	nop
ffffffc050302352:	fe042703          	lw	a4,-32(s0)
ffffffc050302356:	fdc42783          	lw	a5,-36(s0)
ffffffc05030235a:	40f707bb          	subw	a5,a4,a5
ffffffc05030235e:	fef42023          	sw	a5,-32(s0)
ffffffc050302362:	fe042783          	lw	a5,-32(s0)
ffffffc050302366:	2781                	sext.w	a5,a5
ffffffc050302368:	cbc5                	beqz	a5,ffffffc050302418 <XEmacPs_BdRingFromHwRx+0x18c>
ffffffc05030236a:	fc843783          	ld	a5,-56(s0)
ffffffc05030236e:	7f98                	ld	a4,56(a5)
ffffffc050302370:	fb843783          	ld	a5,-72(s0)
ffffffc050302374:	e398                	sd	a4,0(a5)
ffffffc050302376:	fc843783          	ld	a5,-56(s0)
ffffffc05030237a:	4fbc                	lw	a5,88(a5)
ffffffc05030237c:	0007871b          	sext.w	a4,a5
ffffffc050302380:	fe042783          	lw	a5,-32(s0)
ffffffc050302384:	40f707bb          	subw	a5,a4,a5
ffffffc050302388:	0007871b          	sext.w	a4,a5
ffffffc05030238c:	fc843783          	ld	a5,-56(s0)
ffffffc050302390:	cfb8                	sw	a4,88(a5)
ffffffc050302392:	fc843783          	ld	a5,-56(s0)
ffffffc050302396:	53fc                	lw	a5,100(a5)
ffffffc050302398:	fe042703          	lw	a4,-32(s0)
ffffffc05030239c:	9fb9                	addw	a5,a5,a4
ffffffc05030239e:	0007871b          	sext.w	a4,a5
ffffffc0503023a2:	fc843783          	ld	a5,-56(s0)
ffffffc0503023a6:	d3f8                	sw	a4,100(a5)
ffffffc0503023a8:	fc843783          	ld	a5,-56(s0)
ffffffc0503023ac:	7f9c                	ld	a5,56(a5)
ffffffc0503023ae:	fcf43823          	sd	a5,-48(s0)
ffffffc0503023b2:	fc843783          	ld	a5,-56(s0)
ffffffc0503023b6:	539c                	lw	a5,32(a5)
ffffffc0503023b8:	fe042703          	lw	a4,-32(s0)
ffffffc0503023bc:	02f707bb          	mulw	a5,a4,a5
ffffffc0503023c0:	2781                	sext.w	a5,a5
ffffffc0503023c2:	1782                	slli	a5,a5,0x20
ffffffc0503023c4:	9381                	srli	a5,a5,0x20
ffffffc0503023c6:	fd043703          	ld	a4,-48(s0)
ffffffc0503023ca:	97ba                	add	a5,a5,a4
ffffffc0503023cc:	fcf43823          	sd	a5,-48(s0)
ffffffc0503023d0:	fc843783          	ld	a5,-56(s0)
ffffffc0503023d4:	6b9c                	ld	a5,16(a5)
ffffffc0503023d6:	fd043703          	ld	a4,-48(s0)
ffffffc0503023da:	00e7ea63          	bltu	a5,a4,ffffffc0503023ee <XEmacPs_BdRingFromHwRx+0x162>
ffffffc0503023de:	fc843783          	ld	a5,-56(s0)
ffffffc0503023e2:	7f9c                	ld	a5,56(a5)
ffffffc0503023e4:	873e                	mv	a4,a5
ffffffc0503023e6:	fd043783          	ld	a5,-48(s0)
ffffffc0503023ea:	00e7fd63          	bgeu	a5,a4,ffffffc050302404 <XEmacPs_BdRingFromHwRx+0x178>
ffffffc0503023ee:	fc843783          	ld	a5,-56(s0)
ffffffc0503023f2:	4f9c                	lw	a5,24(a5)
ffffffc0503023f4:	1782                	slli	a5,a5,0x20
ffffffc0503023f6:	9381                	srli	a5,a5,0x20
ffffffc0503023f8:	fd043703          	ld	a4,-48(s0)
ffffffc0503023fc:	40f707b3          	sub	a5,a4,a5
ffffffc050302400:	fcf43823          	sd	a5,-48(s0)
ffffffc050302404:	fd043703          	ld	a4,-48(s0)
ffffffc050302408:	fc843783          	ld	a5,-56(s0)
ffffffc05030240c:	ff98                	sd	a4,56(a5)
ffffffc05030240e:	fe042783          	lw	a5,-32(s0)
ffffffc050302412:	fcf42c23          	sw	a5,-40(s0)
ffffffc050302416:	a039                	j	ffffffc050302424 <XEmacPs_BdRingFromHwRx+0x198>
ffffffc050302418:	fb843783          	ld	a5,-72(s0)
ffffffc05030241c:	0007b023          	sd	zero,0(a5) # 8000 <_start-0xffffffc0502f8000>
ffffffc050302420:	fc042c23          	sw	zero,-40(s0)
ffffffc050302424:	fd842783          	lw	a5,-40(s0)
ffffffc050302428:	853e                	mv	a0,a5
ffffffc05030242a:	6426                	ld	s0,72(sp)
ffffffc05030242c:	6161                	addi	sp,sp,80
ffffffc05030242e:	8082                	ret

ffffffc050302430 <XEmacPs_BdRingFree>:
ffffffc050302430:	7139                	addi	sp,sp,-64
ffffffc050302432:	fc22                	sd	s0,56(sp)
ffffffc050302434:	0080                	addi	s0,sp,64
ffffffc050302436:	fca43c23          	sd	a0,-40(s0)
ffffffc05030243a:	87ae                	mv	a5,a1
ffffffc05030243c:	fcc43423          	sd	a2,-56(s0)
ffffffc050302440:	fcf42a23          	sw	a5,-44(s0)
ffffffc050302444:	fd442783          	lw	a5,-44(s0)
ffffffc050302448:	2781                	sext.w	a5,a5
ffffffc05030244a:	e781                	bnez	a5,ffffffc050302452 <XEmacPs_BdRingFree+0x22>
ffffffc05030244c:	fe043423          	sd	zero,-24(s0)
ffffffc050302450:	a0c9                	j	ffffffc050302512 <XEmacPs_BdRingFree+0xe2>
ffffffc050302452:	fd843783          	ld	a5,-40(s0)
ffffffc050302456:	53f8                	lw	a4,100(a5)
ffffffc050302458:	fd442783          	lw	a5,-44(s0)
ffffffc05030245c:	2781                	sext.w	a5,a5
ffffffc05030245e:	00f76963          	bltu	a4,a5,ffffffc050302470 <XEmacPs_BdRingFree+0x40>
ffffffc050302462:	fd843783          	ld	a5,-40(s0)
ffffffc050302466:	67bc                	ld	a5,72(a5)
ffffffc050302468:	fc843703          	ld	a4,-56(s0)
ffffffc05030246c:	00f70763          	beq	a4,a5,ffffffc05030247a <XEmacPs_BdRingFree+0x4a>
ffffffc050302470:	20e00793          	li	a5,526
ffffffc050302474:	fef43423          	sd	a5,-24(s0)
ffffffc050302478:	a869                	j	ffffffc050302512 <XEmacPs_BdRingFree+0xe2>
ffffffc05030247a:	fd843783          	ld	a5,-40(s0)
ffffffc05030247e:	53bc                	lw	a5,96(a5)
ffffffc050302480:	fd442703          	lw	a4,-44(s0)
ffffffc050302484:	9fb9                	addw	a5,a5,a4
ffffffc050302486:	0007871b          	sext.w	a4,a5
ffffffc05030248a:	fd843783          	ld	a5,-40(s0)
ffffffc05030248e:	d3b8                	sw	a4,96(a5)
ffffffc050302490:	fd843783          	ld	a5,-40(s0)
ffffffc050302494:	53f8                	lw	a4,100(a5)
ffffffc050302496:	fd442783          	lw	a5,-44(s0)
ffffffc05030249a:	40f707bb          	subw	a5,a4,a5
ffffffc05030249e:	0007871b          	sext.w	a4,a5
ffffffc0503024a2:	fd843783          	ld	a5,-40(s0)
ffffffc0503024a6:	d3f8                	sw	a4,100(a5)
ffffffc0503024a8:	fd843783          	ld	a5,-40(s0)
ffffffc0503024ac:	67bc                	ld	a5,72(a5)
ffffffc0503024ae:	fef43023          	sd	a5,-32(s0)
ffffffc0503024b2:	fd843783          	ld	a5,-40(s0)
ffffffc0503024b6:	539c                	lw	a5,32(a5)
ffffffc0503024b8:	fd442703          	lw	a4,-44(s0)
ffffffc0503024bc:	02f707bb          	mulw	a5,a4,a5
ffffffc0503024c0:	2781                	sext.w	a5,a5
ffffffc0503024c2:	1782                	slli	a5,a5,0x20
ffffffc0503024c4:	9381                	srli	a5,a5,0x20
ffffffc0503024c6:	fe043703          	ld	a4,-32(s0)
ffffffc0503024ca:	97ba                	add	a5,a5,a4
ffffffc0503024cc:	fef43023          	sd	a5,-32(s0)
ffffffc0503024d0:	fd843783          	ld	a5,-40(s0)
ffffffc0503024d4:	6b9c                	ld	a5,16(a5)
ffffffc0503024d6:	fe043703          	ld	a4,-32(s0)
ffffffc0503024da:	00e7ea63          	bltu	a5,a4,ffffffc0503024ee <XEmacPs_BdRingFree+0xbe>
ffffffc0503024de:	fd843783          	ld	a5,-40(s0)
ffffffc0503024e2:	67bc                	ld	a5,72(a5)
ffffffc0503024e4:	873e                	mv	a4,a5
ffffffc0503024e6:	fe043783          	ld	a5,-32(s0)
ffffffc0503024ea:	00e7fd63          	bgeu	a5,a4,ffffffc050302504 <XEmacPs_BdRingFree+0xd4>
ffffffc0503024ee:	fd843783          	ld	a5,-40(s0)
ffffffc0503024f2:	4f9c                	lw	a5,24(a5)
ffffffc0503024f4:	1782                	slli	a5,a5,0x20
ffffffc0503024f6:	9381                	srli	a5,a5,0x20
ffffffc0503024f8:	fe043703          	ld	a4,-32(s0)
ffffffc0503024fc:	40f707b3          	sub	a5,a4,a5
ffffffc050302500:	fef43023          	sd	a5,-32(s0)
ffffffc050302504:	fe043703          	ld	a4,-32(s0)
ffffffc050302508:	fd843783          	ld	a5,-40(s0)
ffffffc05030250c:	e7b8                	sd	a4,72(a5)
ffffffc05030250e:	fe043423          	sd	zero,-24(s0)
ffffffc050302512:	fe843783          	ld	a5,-24(s0)
ffffffc050302516:	853e                	mv	a0,a5
ffffffc050302518:	7462                	ld	s0,56(sp)
ffffffc05030251a:	6121                	addi	sp,sp,64
ffffffc05030251c:	8082                	ret

ffffffc05030251e <XEmacPs_BdRingCheck>:
ffffffc05030251e:	7139                	addi	sp,sp,-64
ffffffc050302520:	fc22                	sd	s0,56(sp)
ffffffc050302522:	0080                	addi	s0,sp,64
ffffffc050302524:	fca43423          	sd	a0,-56(s0)
ffffffc050302528:	87ae                	mv	a5,a1
ffffffc05030252a:	fcf403a3          	sb	a5,-57(s0)
ffffffc05030252e:	fc744783          	lbu	a5,-57(s0)
ffffffc050302532:	0ff7f713          	andi	a4,a5,255
ffffffc050302536:	4785                	li	a5,1
ffffffc050302538:	00f70b63          	beq	a4,a5,ffffffc05030254e <XEmacPs_BdRingCheck+0x30>
ffffffc05030253c:	fc744783          	lbu	a5,-57(s0)
ffffffc050302540:	0ff7f713          	andi	a4,a5,255
ffffffc050302544:	4789                	li	a5,2
ffffffc050302546:	00f70463          	beq	a4,a5,ffffffc05030254e <XEmacPs_BdRingCheck+0x30>
ffffffc05030254a:	47bd                	li	a5,15
ffffffc05030254c:	ac09                	j	ffffffc05030275e <XEmacPs_BdRingCheck+0x240>
ffffffc05030254e:	fc843783          	ld	a5,-56(s0)
ffffffc050302552:	57bc                	lw	a5,104(a5)
ffffffc050302554:	e781                	bnez	a5,ffffffc05030255c <XEmacPs_BdRingCheck+0x3e>
ffffffc050302556:	20b00793          	li	a5,523
ffffffc05030255a:	a411                	j	ffffffc05030275e <XEmacPs_BdRingCheck+0x240>
ffffffc05030255c:	fc843783          	ld	a5,-56(s0)
ffffffc050302560:	4fdc                	lw	a5,28(a5)
ffffffc050302562:	873e                	mv	a4,a5
ffffffc050302564:	20200793          	li	a5,514
ffffffc050302568:	00f71463          	bne	a4,a5,ffffffc050302570 <XEmacPs_BdRingCheck+0x52>
ffffffc05030256c:	47dd                	li	a5,23
ffffffc05030256e:	aac5                	j	ffffffc05030275e <XEmacPs_BdRingCheck+0x240>
ffffffc050302570:	fc843783          	ld	a5,-56(s0)
ffffffc050302574:	4fdc                	lw	a5,28(a5)
ffffffc050302576:	873e                	mv	a4,a5
ffffffc050302578:	20300793          	li	a5,515
ffffffc05030257c:	00f70563          	beq	a4,a5,ffffffc050302586 <XEmacPs_BdRingCheck+0x68>
ffffffc050302580:	20e00793          	li	a5,526
ffffffc050302584:	aae9                	j	ffffffc05030275e <XEmacPs_BdRingCheck+0x240>
ffffffc050302586:	fc843783          	ld	a5,-56(s0)
ffffffc05030258a:	779c                	ld	a5,40(a5)
ffffffc05030258c:	fef43423          	sd	a5,-24(s0)
ffffffc050302590:	fc843783          	ld	a5,-56(s0)
ffffffc050302594:	679c                	ld	a5,8(a5)
ffffffc050302596:	fe843703          	ld	a4,-24(s0)
ffffffc05030259a:	00f76963          	bltu	a4,a5,ffffffc0503025ac <XEmacPs_BdRingCheck+0x8e>
ffffffc05030259e:	fc843783          	ld	a5,-56(s0)
ffffffc0503025a2:	6b9c                	ld	a5,16(a5)
ffffffc0503025a4:	fe843703          	ld	a4,-24(s0)
ffffffc0503025a8:	00e7f563          	bgeu	a5,a4,ffffffc0503025b2 <XEmacPs_BdRingCheck+0x94>
ffffffc0503025ac:	20e00793          	li	a5,526
ffffffc0503025b0:	a27d                	j	ffffffc05030275e <XEmacPs_BdRingCheck+0x240>
ffffffc0503025b2:	fc843783          	ld	a5,-56(s0)
ffffffc0503025b6:	7b9c                	ld	a5,48(a5)
ffffffc0503025b8:	fef43423          	sd	a5,-24(s0)
ffffffc0503025bc:	fc843783          	ld	a5,-56(s0)
ffffffc0503025c0:	679c                	ld	a5,8(a5)
ffffffc0503025c2:	fe843703          	ld	a4,-24(s0)
ffffffc0503025c6:	00f76963          	bltu	a4,a5,ffffffc0503025d8 <XEmacPs_BdRingCheck+0xba>
ffffffc0503025ca:	fc843783          	ld	a5,-56(s0)
ffffffc0503025ce:	6b9c                	ld	a5,16(a5)
ffffffc0503025d0:	fe843703          	ld	a4,-24(s0)
ffffffc0503025d4:	00e7f563          	bgeu	a5,a4,ffffffc0503025de <XEmacPs_BdRingCheck+0xc0>
ffffffc0503025d8:	20e00793          	li	a5,526
ffffffc0503025dc:	a249                	j	ffffffc05030275e <XEmacPs_BdRingCheck+0x240>
ffffffc0503025de:	fc843783          	ld	a5,-56(s0)
ffffffc0503025e2:	7f9c                	ld	a5,56(a5)
ffffffc0503025e4:	fef43423          	sd	a5,-24(s0)
ffffffc0503025e8:	fc843783          	ld	a5,-56(s0)
ffffffc0503025ec:	679c                	ld	a5,8(a5)
ffffffc0503025ee:	fe843703          	ld	a4,-24(s0)
ffffffc0503025f2:	00f76963          	bltu	a4,a5,ffffffc050302604 <XEmacPs_BdRingCheck+0xe6>
ffffffc0503025f6:	fc843783          	ld	a5,-56(s0)
ffffffc0503025fa:	6b9c                	ld	a5,16(a5)
ffffffc0503025fc:	fe843703          	ld	a4,-24(s0)
ffffffc050302600:	00e7f563          	bgeu	a5,a4,ffffffc05030260a <XEmacPs_BdRingCheck+0xec>
ffffffc050302604:	20e00793          	li	a5,526
ffffffc050302608:	aa99                	j	ffffffc05030275e <XEmacPs_BdRingCheck+0x240>
ffffffc05030260a:	fc843783          	ld	a5,-56(s0)
ffffffc05030260e:	63bc                	ld	a5,64(a5)
ffffffc050302610:	fef43423          	sd	a5,-24(s0)
ffffffc050302614:	fc843783          	ld	a5,-56(s0)
ffffffc050302618:	679c                	ld	a5,8(a5)
ffffffc05030261a:	fe843703          	ld	a4,-24(s0)
ffffffc05030261e:	00f76963          	bltu	a4,a5,ffffffc050302630 <XEmacPs_BdRingCheck+0x112>
ffffffc050302622:	fc843783          	ld	a5,-56(s0)
ffffffc050302626:	6b9c                	ld	a5,16(a5)
ffffffc050302628:	fe843703          	ld	a4,-24(s0)
ffffffc05030262c:	00e7f563          	bgeu	a5,a4,ffffffc050302636 <XEmacPs_BdRingCheck+0x118>
ffffffc050302630:	20e00793          	li	a5,526
ffffffc050302634:	a22d                	j	ffffffc05030275e <XEmacPs_BdRingCheck+0x240>
ffffffc050302636:	fc843783          	ld	a5,-56(s0)
ffffffc05030263a:	67bc                	ld	a5,72(a5)
ffffffc05030263c:	fef43423          	sd	a5,-24(s0)
ffffffc050302640:	fc843783          	ld	a5,-56(s0)
ffffffc050302644:	679c                	ld	a5,8(a5)
ffffffc050302646:	fe843703          	ld	a4,-24(s0)
ffffffc05030264a:	00f76963          	bltu	a4,a5,ffffffc05030265c <XEmacPs_BdRingCheck+0x13e>
ffffffc05030264e:	fc843783          	ld	a5,-56(s0)
ffffffc050302652:	6b9c                	ld	a5,16(a5)
ffffffc050302654:	fe843703          	ld	a4,-24(s0)
ffffffc050302658:	00e7f563          	bgeu	a5,a4,ffffffc050302662 <XEmacPs_BdRingCheck+0x144>
ffffffc05030265c:	20e00793          	li	a5,526
ffffffc050302660:	a8fd                	j	ffffffc05030275e <XEmacPs_BdRingCheck+0x240>
ffffffc050302662:	fc843783          	ld	a5,-56(s0)
ffffffc050302666:	4fbc                	lw	a5,88(a5)
ffffffc050302668:	0007871b          	sext.w	a4,a5
ffffffc05030266c:	fc843783          	ld	a5,-56(s0)
ffffffc050302670:	4ffc                	lw	a5,92(a5)
ffffffc050302672:	9fb9                	addw	a5,a5,a4
ffffffc050302674:	0007871b          	sext.w	a4,a5
ffffffc050302678:	fc843783          	ld	a5,-56(s0)
ffffffc05030267c:	53bc                	lw	a5,96(a5)
ffffffc05030267e:	9fb9                	addw	a5,a5,a4
ffffffc050302680:	0007871b          	sext.w	a4,a5
ffffffc050302684:	fc843783          	ld	a5,-56(s0)
ffffffc050302688:	53fc                	lw	a5,100(a5)
ffffffc05030268a:	9fb9                	addw	a5,a5,a4
ffffffc05030268c:	0007871b          	sext.w	a4,a5
ffffffc050302690:	fc843783          	ld	a5,-56(s0)
ffffffc050302694:	57bc                	lw	a5,104(a5)
ffffffc050302696:	00f70563          	beq	a4,a5,ffffffc0503026a0 <XEmacPs_BdRingCheck+0x182>
ffffffc05030269a:	20e00793          	li	a5,526
ffffffc05030269e:	a0c1                	j	ffffffc05030275e <XEmacPs_BdRingCheck+0x240>
ffffffc0503026a0:	fc843783          	ld	a5,-56(s0)
ffffffc0503026a4:	679c                	ld	a5,8(a5)
ffffffc0503026a6:	fef43423          	sd	a5,-24(s0)
ffffffc0503026aa:	fc843783          	ld	a5,-56(s0)
ffffffc0503026ae:	6398                	ld	a4,0(a5)
ffffffc0503026b0:	fc843783          	ld	a5,-56(s0)
ffffffc0503026b4:	539c                	lw	a5,32(a5)
ffffffc0503026b6:	1782                	slli	a5,a5,0x20
ffffffc0503026b8:	9381                	srli	a5,a5,0x20
ffffffc0503026ba:	97ba                	add	a5,a5,a4
ffffffc0503026bc:	fef43023          	sd	a5,-32(s0)
ffffffc0503026c0:	4785                	li	a5,1
ffffffc0503026c2:	fcf42e23          	sw	a5,-36(s0)
ffffffc0503026c6:	a0b1                	j	ffffffc050302712 <XEmacPs_BdRingCheck+0x1f4>
ffffffc0503026c8:	fe843783          	ld	a5,-24(s0)
ffffffc0503026cc:	439c                	lw	a5,0(a5)
ffffffc0503026ce:	1782                	slli	a5,a5,0x20
ffffffc0503026d0:	9381                	srli	a5,a5,0x20
ffffffc0503026d2:	fe043703          	ld	a4,-32(s0)
ffffffc0503026d6:	00f70563          	beq	a4,a5,ffffffc0503026e0 <XEmacPs_BdRingCheck+0x1c2>
ffffffc0503026da:	20e00793          	li	a5,526
ffffffc0503026de:	a041                	j	ffffffc05030275e <XEmacPs_BdRingCheck+0x240>
ffffffc0503026e0:	fc843783          	ld	a5,-56(s0)
ffffffc0503026e4:	539c                	lw	a5,32(a5)
ffffffc0503026e6:	1782                	slli	a5,a5,0x20
ffffffc0503026e8:	9381                	srli	a5,a5,0x20
ffffffc0503026ea:	fe843703          	ld	a4,-24(s0)
ffffffc0503026ee:	97ba                	add	a5,a5,a4
ffffffc0503026f0:	fef43423          	sd	a5,-24(s0)
ffffffc0503026f4:	fc843783          	ld	a5,-56(s0)
ffffffc0503026f8:	539c                	lw	a5,32(a5)
ffffffc0503026fa:	1782                	slli	a5,a5,0x20
ffffffc0503026fc:	9381                	srli	a5,a5,0x20
ffffffc0503026fe:	fe043703          	ld	a4,-32(s0)
ffffffc050302702:	97ba                	add	a5,a5,a4
ffffffc050302704:	fef43023          	sd	a5,-32(s0)
ffffffc050302708:	fdc42783          	lw	a5,-36(s0)
ffffffc05030270c:	2785                	addiw	a5,a5,1
ffffffc05030270e:	fcf42e23          	sw	a5,-36(s0)
ffffffc050302712:	fc843783          	ld	a5,-56(s0)
ffffffc050302716:	57b8                	lw	a4,104(a5)
ffffffc050302718:	fdc42783          	lw	a5,-36(s0)
ffffffc05030271c:	2781                	sext.w	a5,a5
ffffffc05030271e:	fae7e5e3          	bltu	a5,a4,ffffffc0503026c8 <XEmacPs_BdRingCheck+0x1aa>
ffffffc050302722:	fc744783          	lbu	a5,-57(s0)
ffffffc050302726:	0ff7f713          	andi	a4,a5,255
ffffffc05030272a:	4785                	li	a5,1
ffffffc05030272c:	00f71f63          	bne	a4,a5,ffffffc05030274a <XEmacPs_BdRingCheck+0x22c>
ffffffc050302730:	fe843783          	ld	a5,-24(s0)
ffffffc050302734:	0791                	addi	a5,a5,4
ffffffc050302736:	439c                	lw	a5,0(a5)
ffffffc050302738:	873e                	mv	a4,a5
ffffffc05030273a:	400007b7          	lui	a5,0x40000
ffffffc05030273e:	8ff9                	and	a5,a5,a4
ffffffc050302740:	2781                	sext.w	a5,a5
ffffffc050302742:	ef89                	bnez	a5,ffffffc05030275c <XEmacPs_BdRingCheck+0x23e>
ffffffc050302744:	20e00793          	li	a5,526
ffffffc050302748:	a819                	j	ffffffc05030275e <XEmacPs_BdRingCheck+0x240>
ffffffc05030274a:	fe843783          	ld	a5,-24(s0)
ffffffc05030274e:	439c                	lw	a5,0(a5)
ffffffc050302750:	8b89                	andi	a5,a5,2
ffffffc050302752:	2781                	sext.w	a5,a5
ffffffc050302754:	e781                	bnez	a5,ffffffc05030275c <XEmacPs_BdRingCheck+0x23e>
ffffffc050302756:	20e00793          	li	a5,526
ffffffc05030275a:	a011                	j	ffffffc05030275e <XEmacPs_BdRingCheck+0x240>
ffffffc05030275c:	4781                	li	a5,0
ffffffc05030275e:	853e                	mv	a0,a5
ffffffc050302760:	7462                	ld	s0,56(sp)
ffffffc050302762:	6121                	addi	sp,sp,64
ffffffc050302764:	8082                	ret

ffffffc050302766 <XEmacPs_BdSetRxWrap>:
ffffffc050302766:	7179                	addi	sp,sp,-48
ffffffc050302768:	f422                	sd	s0,40(sp)
ffffffc05030276a:	1800                	addi	s0,sp,48
ffffffc05030276c:	fca43c23          	sd	a0,-40(s0)
ffffffc050302770:	fd843783          	ld	a5,-40(s0)
ffffffc050302774:	fef43423          	sd	a5,-24(s0)
ffffffc050302778:	fe843783          	ld	a5,-24(s0)
ffffffc05030277c:	c38d                	beqz	a5,ffffffc05030279e <XEmacPs_BdSetRxWrap+0x38>
ffffffc05030277e:	fe843783          	ld	a5,-24(s0)
ffffffc050302782:	439c                	lw	a5,0(a5)
ffffffc050302784:	fef42223          	sw	a5,-28(s0)
ffffffc050302788:	fe442783          	lw	a5,-28(s0)
ffffffc05030278c:	0027e793          	ori	a5,a5,2
ffffffc050302790:	fef42223          	sw	a5,-28(s0)
ffffffc050302794:	fe843783          	ld	a5,-24(s0)
ffffffc050302798:	fe442703          	lw	a4,-28(s0)
ffffffc05030279c:	c398                	sw	a4,0(a5)
ffffffc05030279e:	0001                	nop
ffffffc0503027a0:	7422                	ld	s0,40(sp)
ffffffc0503027a2:	6145                	addi	sp,sp,48
ffffffc0503027a4:	8082                	ret

ffffffc0503027a6 <XEmacPs_BdSetTxWrap>:
ffffffc0503027a6:	7179                	addi	sp,sp,-48
ffffffc0503027a8:	f422                	sd	s0,40(sp)
ffffffc0503027aa:	1800                	addi	s0,sp,48
ffffffc0503027ac:	fca43c23          	sd	a0,-40(s0)
ffffffc0503027b0:	fd843783          	ld	a5,-40(s0)
ffffffc0503027b4:	0791                	addi	a5,a5,4
ffffffc0503027b6:	fcf43c23          	sd	a5,-40(s0)
ffffffc0503027ba:	fd843783          	ld	a5,-40(s0)
ffffffc0503027be:	fef43423          	sd	a5,-24(s0)
ffffffc0503027c2:	fe843783          	ld	a5,-24(s0)
ffffffc0503027c6:	c395                	beqz	a5,ffffffc0503027ea <XEmacPs_BdSetTxWrap+0x44>
ffffffc0503027c8:	fe843783          	ld	a5,-24(s0)
ffffffc0503027cc:	439c                	lw	a5,0(a5)
ffffffc0503027ce:	fef42223          	sw	a5,-28(s0)
ffffffc0503027d2:	fe442703          	lw	a4,-28(s0)
ffffffc0503027d6:	400007b7          	lui	a5,0x40000
ffffffc0503027da:	8fd9                	or	a5,a5,a4
ffffffc0503027dc:	fef42223          	sw	a5,-28(s0)
ffffffc0503027e0:	fe843783          	ld	a5,-24(s0)
ffffffc0503027e4:	fe442703          	lw	a4,-28(s0)
ffffffc0503027e8:	c398                	sw	a4,0(a5)
ffffffc0503027ea:	0001                	nop
ffffffc0503027ec:	7422                	ld	s0,40(sp)
ffffffc0503027ee:	6145                	addi	sp,sp,48
ffffffc0503027f0:	8082                	ret

ffffffc0503027f2 <XEmacPs_BdRingPtrReset>:
ffffffc0503027f2:	1101                	addi	sp,sp,-32
ffffffc0503027f4:	ec22                	sd	s0,24(sp)
ffffffc0503027f6:	1000                	addi	s0,sp,32
ffffffc0503027f8:	fea43423          	sd	a0,-24(s0)
ffffffc0503027fc:	feb43023          	sd	a1,-32(s0)
ffffffc050302800:	fe843783          	ld	a5,-24(s0)
ffffffc050302804:	fe043703          	ld	a4,-32(s0)
ffffffc050302808:	f798                	sd	a4,40(a5)
ffffffc05030280a:	fe843783          	ld	a5,-24(s0)
ffffffc05030280e:	fe043703          	ld	a4,-32(s0)
ffffffc050302812:	fb98                	sd	a4,48(a5)
ffffffc050302814:	fe843783          	ld	a5,-24(s0)
ffffffc050302818:	fe043703          	ld	a4,-32(s0)
ffffffc05030281c:	ff98                	sd	a4,56(a5)
ffffffc05030281e:	fe843783          	ld	a5,-24(s0)
ffffffc050302822:	fe043703          	ld	a4,-32(s0)
ffffffc050302826:	e3b8                	sd	a4,64(a5)
ffffffc050302828:	fe843783          	ld	a5,-24(s0)
ffffffc05030282c:	fe043703          	ld	a4,-32(s0)
ffffffc050302830:	e7b8                	sd	a4,72(a5)
ffffffc050302832:	0001                	nop
ffffffc050302834:	6462                	ld	s0,24(sp)
ffffffc050302836:	6105                	addi	sp,sp,32
ffffffc050302838:	8082                	ret

ffffffc05030283a <writel>:
ffffffc05030283a:	1101                	addi	sp,sp,-32
ffffffc05030283c:	ec22                	sd	s0,24(sp)
ffffffc05030283e:	1000                	addi	s0,sp,32
ffffffc050302840:	87aa                	mv	a5,a0
ffffffc050302842:	feb43023          	sd	a1,-32(s0)
ffffffc050302846:	fef42623          	sw	a5,-20(s0)
ffffffc05030284a:	0550000f          	fence	ow,ow
ffffffc05030284e:	fe043783          	ld	a5,-32(s0)
ffffffc050302852:	fec42703          	lw	a4,-20(s0)
ffffffc050302856:	c398                	sw	a4,0(a5)
ffffffc050302858:	0001                	nop
ffffffc05030285a:	6462                	ld	s0,24(sp)
ffffffc05030285c:	6105                	addi	sp,sp,32
ffffffc05030285e:	8082                	ret

ffffffc050302860 <readl>:
ffffffc050302860:	7179                	addi	sp,sp,-48
ffffffc050302862:	f422                	sd	s0,40(sp)
ffffffc050302864:	1800                	addi	s0,sp,48
ffffffc050302866:	fca43c23          	sd	a0,-40(s0)
ffffffc05030286a:	fd843783          	ld	a5,-40(s0)
ffffffc05030286e:	439c                	lw	a5,0(a5)
ffffffc050302870:	fef42623          	sw	a5,-20(s0)
ffffffc050302874:	0aa0000f          	fence	ir,ir
ffffffc050302878:	fec42783          	lw	a5,-20(s0)
ffffffc05030287c:	853e                	mv	a0,a5
ffffffc05030287e:	7422                	ld	s0,40(sp)
ffffffc050302880:	6145                	addi	sp,sp,48
ffffffc050302882:	8082                	ret

ffffffc050302884 <Xil_Out32>:
ffffffc050302884:	1101                	addi	sp,sp,-32
ffffffc050302886:	ec06                	sd	ra,24(sp)
ffffffc050302888:	e822                	sd	s0,16(sp)
ffffffc05030288a:	1000                	addi	s0,sp,32
ffffffc05030288c:	fea43423          	sd	a0,-24(s0)
ffffffc050302890:	87ae                	mv	a5,a1
ffffffc050302892:	fef42223          	sw	a5,-28(s0)
ffffffc050302896:	fe843703          	ld	a4,-24(s0)
ffffffc05030289a:	fe442783          	lw	a5,-28(s0)
ffffffc05030289e:	85ba                	mv	a1,a4
ffffffc0503028a0:	853e                	mv	a0,a5
ffffffc0503028a2:	f99ff0ef          	jal	ra,ffffffc05030283a <writel>
ffffffc0503028a6:	0001                	nop
ffffffc0503028a8:	60e2                	ld	ra,24(sp)
ffffffc0503028aa:	6442                	ld	s0,16(sp)
ffffffc0503028ac:	6105                	addi	sp,sp,32
ffffffc0503028ae:	8082                	ret

ffffffc0503028b0 <Xil_In32>:
ffffffc0503028b0:	1101                	addi	sp,sp,-32
ffffffc0503028b2:	ec06                	sd	ra,24(sp)
ffffffc0503028b4:	e822                	sd	s0,16(sp)
ffffffc0503028b6:	1000                	addi	s0,sp,32
ffffffc0503028b8:	fea43423          	sd	a0,-24(s0)
ffffffc0503028bc:	fe843783          	ld	a5,-24(s0)
ffffffc0503028c0:	853e                	mv	a0,a5
ffffffc0503028c2:	f9fff0ef          	jal	ra,ffffffc050302860 <readl>
ffffffc0503028c6:	87aa                	mv	a5,a0
ffffffc0503028c8:	2781                	sext.w	a5,a5
ffffffc0503028ca:	853e                	mv	a0,a5
ffffffc0503028cc:	60e2                	ld	ra,24(sp)
ffffffc0503028ce:	6442                	ld	s0,16(sp)
ffffffc0503028d0:	6105                	addi	sp,sp,32
ffffffc0503028d2:	8082                	ret

ffffffc0503028d4 <XEmacPs_SetMacAddress>:
ffffffc0503028d4:	715d                	addi	sp,sp,-80
ffffffc0503028d6:	e486                	sd	ra,72(sp)
ffffffc0503028d8:	e0a2                	sd	s0,64(sp)
ffffffc0503028da:	0880                	addi	s0,sp,80
ffffffc0503028dc:	fca43423          	sd	a0,-56(s0)
ffffffc0503028e0:	fcb43023          	sd	a1,-64(s0)
ffffffc0503028e4:	87b2                	mv	a5,a2
ffffffc0503028e6:	faf40fa3          	sb	a5,-65(s0)
ffffffc0503028ea:	fc043783          	ld	a5,-64(s0)
ffffffc0503028ee:	fef43023          	sd	a5,-32(s0)
ffffffc0503028f2:	fbf44783          	lbu	a5,-65(s0)
ffffffc0503028f6:	fcf40fa3          	sb	a5,-33(s0)
ffffffc0503028fa:	fc843783          	ld	a5,-56(s0)
ffffffc0503028fe:	4f9c                	lw	a5,24(a5)
ffffffc050302900:	873e                	mv	a4,a5
ffffffc050302902:	222227b7          	lui	a5,0x22222
ffffffc050302906:	22278793          	addi	a5,a5,546 # 22222222 <_start-0xffffffc02e0dddde>
ffffffc05030290a:	00f71663          	bne	a4,a5,ffffffc050302916 <XEmacPs_SetMacAddress+0x42>
ffffffc05030290e:	4795                	li	a5,5
ffffffc050302910:	fef43423          	sd	a5,-24(s0)
ffffffc050302914:	aa15                	j	ffffffc050302a48 <XEmacPs_SetMacAddress+0x174>
ffffffc050302916:	fdf44783          	lbu	a5,-33(s0)
ffffffc05030291a:	37fd                	addiw	a5,a5,-1
ffffffc05030291c:	fcf40fa3          	sb	a5,-33(s0)
ffffffc050302920:	fe043783          	ld	a5,-32(s0)
ffffffc050302924:	0007c783          	lbu	a5,0(a5)
ffffffc050302928:	fcf42c23          	sw	a5,-40(s0)
ffffffc05030292c:	fe043783          	ld	a5,-32(s0)
ffffffc050302930:	0785                	addi	a5,a5,1
ffffffc050302932:	0007c783          	lbu	a5,0(a5)
ffffffc050302936:	2781                	sext.w	a5,a5
ffffffc050302938:	0087979b          	slliw	a5,a5,0x8
ffffffc05030293c:	0007871b          	sext.w	a4,a5
ffffffc050302940:	fd842783          	lw	a5,-40(s0)
ffffffc050302944:	8fd9                	or	a5,a5,a4
ffffffc050302946:	fcf42c23          	sw	a5,-40(s0)
ffffffc05030294a:	fe043783          	ld	a5,-32(s0)
ffffffc05030294e:	0789                	addi	a5,a5,2
ffffffc050302950:	0007c783          	lbu	a5,0(a5)
ffffffc050302954:	2781                	sext.w	a5,a5
ffffffc050302956:	0107979b          	slliw	a5,a5,0x10
ffffffc05030295a:	0007871b          	sext.w	a4,a5
ffffffc05030295e:	fd842783          	lw	a5,-40(s0)
ffffffc050302962:	8fd9                	or	a5,a5,a4
ffffffc050302964:	fcf42c23          	sw	a5,-40(s0)
ffffffc050302968:	fe043783          	ld	a5,-32(s0)
ffffffc05030296c:	078d                	addi	a5,a5,3
ffffffc05030296e:	0007c783          	lbu	a5,0(a5)
ffffffc050302972:	2781                	sext.w	a5,a5
ffffffc050302974:	0187979b          	slliw	a5,a5,0x18
ffffffc050302978:	0007871b          	sext.w	a4,a5
ffffffc05030297c:	fd842783          	lw	a5,-40(s0)
ffffffc050302980:	8fd9                	or	a5,a5,a4
ffffffc050302982:	fcf42c23          	sw	a5,-40(s0)
ffffffc050302986:	fc843783          	ld	a5,-56(s0)
ffffffc05030298a:	6798                	ld	a4,8(a5)
ffffffc05030298c:	fdf44783          	lbu	a5,-33(s0)
ffffffc050302990:	2781                	sext.w	a5,a5
ffffffc050302992:	27c5                	addiw	a5,a5,17
ffffffc050302994:	2781                	sext.w	a5,a5
ffffffc050302996:	0037979b          	slliw	a5,a5,0x3
ffffffc05030299a:	2781                	sext.w	a5,a5
ffffffc05030299c:	1782                	slli	a5,a5,0x20
ffffffc05030299e:	9381                	srli	a5,a5,0x20
ffffffc0503029a0:	97ba                	add	a5,a5,a4
ffffffc0503029a2:	fd842703          	lw	a4,-40(s0)
ffffffc0503029a6:	85ba                	mv	a1,a4
ffffffc0503029a8:	853e                	mv	a0,a5
ffffffc0503029aa:	edbff0ef          	jal	ra,ffffffc050302884 <Xil_Out32>
ffffffc0503029ae:	fc843783          	ld	a5,-56(s0)
ffffffc0503029b2:	6798                	ld	a4,8(a5)
ffffffc0503029b4:	fdf44783          	lbu	a5,-33(s0)
ffffffc0503029b8:	2781                	sext.w	a5,a5
ffffffc0503029ba:	0037979b          	slliw	a5,a5,0x3
ffffffc0503029be:	2781                	sext.w	a5,a5
ffffffc0503029c0:	08c7879b          	addiw	a5,a5,140
ffffffc0503029c4:	2781                	sext.w	a5,a5
ffffffc0503029c6:	1782                	slli	a5,a5,0x20
ffffffc0503029c8:	9381                	srli	a5,a5,0x20
ffffffc0503029ca:	97ba                	add	a5,a5,a4
ffffffc0503029cc:	853e                	mv	a0,a5
ffffffc0503029ce:	ee3ff0ef          	jal	ra,ffffffc0503028b0 <Xil_In32>
ffffffc0503029d2:	87aa                	mv	a5,a0
ffffffc0503029d4:	fcf42c23          	sw	a5,-40(s0)
ffffffc0503029d8:	fd842703          	lw	a4,-40(s0)
ffffffc0503029dc:	77c1                	lui	a5,0xffff0
ffffffc0503029de:	8ff9                	and	a5,a5,a4
ffffffc0503029e0:	fcf42c23          	sw	a5,-40(s0)
ffffffc0503029e4:	fe043783          	ld	a5,-32(s0)
ffffffc0503029e8:	0791                	addi	a5,a5,4
ffffffc0503029ea:	0007c783          	lbu	a5,0(a5) # ffffffffffff0000 <__BSS_END__+0x3fafca6fd0>
ffffffc0503029ee:	0007871b          	sext.w	a4,a5
ffffffc0503029f2:	fd842783          	lw	a5,-40(s0)
ffffffc0503029f6:	8fd9                	or	a5,a5,a4
ffffffc0503029f8:	fcf42c23          	sw	a5,-40(s0)
ffffffc0503029fc:	fe043783          	ld	a5,-32(s0)
ffffffc050302a00:	0795                	addi	a5,a5,5
ffffffc050302a02:	0007c783          	lbu	a5,0(a5)
ffffffc050302a06:	2781                	sext.w	a5,a5
ffffffc050302a08:	0087979b          	slliw	a5,a5,0x8
ffffffc050302a0c:	0007871b          	sext.w	a4,a5
ffffffc050302a10:	fd842783          	lw	a5,-40(s0)
ffffffc050302a14:	8fd9                	or	a5,a5,a4
ffffffc050302a16:	fcf42c23          	sw	a5,-40(s0)
ffffffc050302a1a:	fc843783          	ld	a5,-56(s0)
ffffffc050302a1e:	6798                	ld	a4,8(a5)
ffffffc050302a20:	fdf44783          	lbu	a5,-33(s0)
ffffffc050302a24:	2781                	sext.w	a5,a5
ffffffc050302a26:	0037979b          	slliw	a5,a5,0x3
ffffffc050302a2a:	2781                	sext.w	a5,a5
ffffffc050302a2c:	08c7879b          	addiw	a5,a5,140
ffffffc050302a30:	2781                	sext.w	a5,a5
ffffffc050302a32:	1782                	slli	a5,a5,0x20
ffffffc050302a34:	9381                	srli	a5,a5,0x20
ffffffc050302a36:	97ba                	add	a5,a5,a4
ffffffc050302a38:	fd842703          	lw	a4,-40(s0)
ffffffc050302a3c:	85ba                	mv	a1,a4
ffffffc050302a3e:	853e                	mv	a0,a5
ffffffc050302a40:	e45ff0ef          	jal	ra,ffffffc050302884 <Xil_Out32>
ffffffc050302a44:	fe043423          	sd	zero,-24(s0)
ffffffc050302a48:	fe843783          	ld	a5,-24(s0)
ffffffc050302a4c:	853e                	mv	a0,a5
ffffffc050302a4e:	60a6                	ld	ra,72(sp)
ffffffc050302a50:	6406                	ld	s0,64(sp)
ffffffc050302a52:	6161                	addi	sp,sp,80
ffffffc050302a54:	8082                	ret

ffffffc050302a56 <XEmacPs_GetMacAddress>:
ffffffc050302a56:	7139                	addi	sp,sp,-64
ffffffc050302a58:	fc06                	sd	ra,56(sp)
ffffffc050302a5a:	f822                	sd	s0,48(sp)
ffffffc050302a5c:	0080                	addi	s0,sp,64
ffffffc050302a5e:	fca43c23          	sd	a0,-40(s0)
ffffffc050302a62:	fcb43823          	sd	a1,-48(s0)
ffffffc050302a66:	87b2                	mv	a5,a2
ffffffc050302a68:	fcf407a3          	sb	a5,-49(s0)
ffffffc050302a6c:	fd043783          	ld	a5,-48(s0)
ffffffc050302a70:	fef43423          	sd	a5,-24(s0)
ffffffc050302a74:	fcf44783          	lbu	a5,-49(s0)
ffffffc050302a78:	fef403a3          	sb	a5,-25(s0)
ffffffc050302a7c:	fe744783          	lbu	a5,-25(s0)
ffffffc050302a80:	37fd                	addiw	a5,a5,-1
ffffffc050302a82:	fef403a3          	sb	a5,-25(s0)
ffffffc050302a86:	fd843783          	ld	a5,-40(s0)
ffffffc050302a8a:	6798                	ld	a4,8(a5)
ffffffc050302a8c:	fe744783          	lbu	a5,-25(s0)
ffffffc050302a90:	2781                	sext.w	a5,a5
ffffffc050302a92:	27c5                	addiw	a5,a5,17
ffffffc050302a94:	2781                	sext.w	a5,a5
ffffffc050302a96:	0037979b          	slliw	a5,a5,0x3
ffffffc050302a9a:	2781                	sext.w	a5,a5
ffffffc050302a9c:	1782                	slli	a5,a5,0x20
ffffffc050302a9e:	9381                	srli	a5,a5,0x20
ffffffc050302aa0:	97ba                	add	a5,a5,a4
ffffffc050302aa2:	853e                	mv	a0,a5
ffffffc050302aa4:	e0dff0ef          	jal	ra,ffffffc0503028b0 <Xil_In32>
ffffffc050302aa8:	87aa                	mv	a5,a0
ffffffc050302aaa:	fef42023          	sw	a5,-32(s0)
ffffffc050302aae:	fe042783          	lw	a5,-32(s0)
ffffffc050302ab2:	0ff7f713          	andi	a4,a5,255
ffffffc050302ab6:	fe843783          	ld	a5,-24(s0)
ffffffc050302aba:	00e78023          	sb	a4,0(a5)
ffffffc050302abe:	fe042783          	lw	a5,-32(s0)
ffffffc050302ac2:	0087d79b          	srliw	a5,a5,0x8
ffffffc050302ac6:	0007871b          	sext.w	a4,a5
ffffffc050302aca:	fe843783          	ld	a5,-24(s0)
ffffffc050302ace:	0785                	addi	a5,a5,1
ffffffc050302ad0:	0ff77713          	andi	a4,a4,255
ffffffc050302ad4:	00e78023          	sb	a4,0(a5)
ffffffc050302ad8:	fe042783          	lw	a5,-32(s0)
ffffffc050302adc:	0107d79b          	srliw	a5,a5,0x10
ffffffc050302ae0:	0007871b          	sext.w	a4,a5
ffffffc050302ae4:	fe843783          	ld	a5,-24(s0)
ffffffc050302ae8:	0789                	addi	a5,a5,2
ffffffc050302aea:	0ff77713          	andi	a4,a4,255
ffffffc050302aee:	00e78023          	sb	a4,0(a5)
ffffffc050302af2:	fe042783          	lw	a5,-32(s0)
ffffffc050302af6:	0187d79b          	srliw	a5,a5,0x18
ffffffc050302afa:	0007871b          	sext.w	a4,a5
ffffffc050302afe:	fe843783          	ld	a5,-24(s0)
ffffffc050302b02:	078d                	addi	a5,a5,3
ffffffc050302b04:	0ff77713          	andi	a4,a4,255
ffffffc050302b08:	00e78023          	sb	a4,0(a5)
ffffffc050302b0c:	fd843783          	ld	a5,-40(s0)
ffffffc050302b10:	6798                	ld	a4,8(a5)
ffffffc050302b12:	fe744783          	lbu	a5,-25(s0)
ffffffc050302b16:	2781                	sext.w	a5,a5
ffffffc050302b18:	0037979b          	slliw	a5,a5,0x3
ffffffc050302b1c:	2781                	sext.w	a5,a5
ffffffc050302b1e:	08c7879b          	addiw	a5,a5,140
ffffffc050302b22:	2781                	sext.w	a5,a5
ffffffc050302b24:	1782                	slli	a5,a5,0x20
ffffffc050302b26:	9381                	srli	a5,a5,0x20
ffffffc050302b28:	97ba                	add	a5,a5,a4
ffffffc050302b2a:	853e                	mv	a0,a5
ffffffc050302b2c:	d85ff0ef          	jal	ra,ffffffc0503028b0 <Xil_In32>
ffffffc050302b30:	87aa                	mv	a5,a0
ffffffc050302b32:	fef42023          	sw	a5,-32(s0)
ffffffc050302b36:	fe843783          	ld	a5,-24(s0)
ffffffc050302b3a:	0791                	addi	a5,a5,4
ffffffc050302b3c:	fe042703          	lw	a4,-32(s0)
ffffffc050302b40:	0ff77713          	andi	a4,a4,255
ffffffc050302b44:	00e78023          	sb	a4,0(a5)
ffffffc050302b48:	fe042783          	lw	a5,-32(s0)
ffffffc050302b4c:	0087d79b          	srliw	a5,a5,0x8
ffffffc050302b50:	0007871b          	sext.w	a4,a5
ffffffc050302b54:	fe843783          	ld	a5,-24(s0)
ffffffc050302b58:	0795                	addi	a5,a5,5
ffffffc050302b5a:	0ff77713          	andi	a4,a4,255
ffffffc050302b5e:	00e78023          	sb	a4,0(a5)
ffffffc050302b62:	0001                	nop
ffffffc050302b64:	70e2                	ld	ra,56(sp)
ffffffc050302b66:	7442                	ld	s0,48(sp)
ffffffc050302b68:	6121                	addi	sp,sp,64
ffffffc050302b6a:	8082                	ret

ffffffc050302b6c <XEmacPs_SetHash>:
ffffffc050302b6c:	7139                	addi	sp,sp,-64
ffffffc050302b6e:	fc06                	sd	ra,56(sp)
ffffffc050302b70:	f822                	sd	s0,48(sp)
ffffffc050302b72:	0080                	addi	s0,sp,64
ffffffc050302b74:	fca43423          	sd	a0,-56(s0)
ffffffc050302b78:	fcb43023          	sd	a1,-64(s0)
ffffffc050302b7c:	fc043783          	ld	a5,-64(s0)
ffffffc050302b80:	fef43023          	sd	a5,-32(s0)
ffffffc050302b84:	fc843783          	ld	a5,-56(s0)
ffffffc050302b88:	4f9c                	lw	a5,24(a5)
ffffffc050302b8a:	873e                	mv	a4,a5
ffffffc050302b8c:	222227b7          	lui	a5,0x22222
ffffffc050302b90:	22278793          	addi	a5,a5,546 # 22222222 <_start-0xffffffc02e0dddde>
ffffffc050302b94:	00f71663          	bne	a4,a5,ffffffc050302ba0 <XEmacPs_SetHash+0x34>
ffffffc050302b98:	4795                	li	a5,5
ffffffc050302b9a:	fef43423          	sd	a5,-24(s0)
ffffffc050302b9e:	ac19                	j	ffffffc050302db4 <XEmacPs_SetHash+0x248>
ffffffc050302ba0:	fe043783          	ld	a5,-32(s0)
ffffffc050302ba4:	0007c783          	lbu	a5,0(a5)
ffffffc050302ba8:	03f7f793          	andi	a5,a5,63
ffffffc050302bac:	fcf40fa3          	sb	a5,-33(s0)
ffffffc050302bb0:	fe043783          	ld	a5,-32(s0)
ffffffc050302bb4:	0007c783          	lbu	a5,0(a5)
ffffffc050302bb8:	0067d79b          	srliw	a5,a5,0x6
ffffffc050302bbc:	0ff7f713          	andi	a4,a5,255
ffffffc050302bc0:	fe043783          	ld	a5,-32(s0)
ffffffc050302bc4:	0785                	addi	a5,a5,1
ffffffc050302bc6:	0007c783          	lbu	a5,0(a5)
ffffffc050302bca:	0027979b          	slliw	a5,a5,0x2
ffffffc050302bce:	0ff7f793          	andi	a5,a5,255
ffffffc050302bd2:	03c7f793          	andi	a5,a5,60
ffffffc050302bd6:	0ff7f793          	andi	a5,a5,255
ffffffc050302bda:	8fd9                	or	a5,a5,a4
ffffffc050302bdc:	fcf40f23          	sb	a5,-34(s0)
ffffffc050302be0:	fe043783          	ld	a5,-32(s0)
ffffffc050302be4:	0785                	addi	a5,a5,1
ffffffc050302be6:	0007c783          	lbu	a5,0(a5)
ffffffc050302bea:	0047d79b          	srliw	a5,a5,0x4
ffffffc050302bee:	0ff7f713          	andi	a4,a5,255
ffffffc050302bf2:	fe043783          	ld	a5,-32(s0)
ffffffc050302bf6:	0789                	addi	a5,a5,2
ffffffc050302bf8:	0007c783          	lbu	a5,0(a5)
ffffffc050302bfc:	0047979b          	slliw	a5,a5,0x4
ffffffc050302c00:	0ff7f793          	andi	a5,a5,255
ffffffc050302c04:	0307f793          	andi	a5,a5,48
ffffffc050302c08:	0ff7f793          	andi	a5,a5,255
ffffffc050302c0c:	8fd9                	or	a5,a5,a4
ffffffc050302c0e:	fcf40ea3          	sb	a5,-35(s0)
ffffffc050302c12:	fe043783          	ld	a5,-32(s0)
ffffffc050302c16:	0789                	addi	a5,a5,2
ffffffc050302c18:	0007c783          	lbu	a5,0(a5)
ffffffc050302c1c:	0027d79b          	srliw	a5,a5,0x2
ffffffc050302c20:	fcf40e23          	sb	a5,-36(s0)
ffffffc050302c24:	fe043783          	ld	a5,-32(s0)
ffffffc050302c28:	078d                	addi	a5,a5,3
ffffffc050302c2a:	0007c783          	lbu	a5,0(a5)
ffffffc050302c2e:	03f7f793          	andi	a5,a5,63
ffffffc050302c32:	fcf40da3          	sb	a5,-37(s0)
ffffffc050302c36:	fe043783          	ld	a5,-32(s0)
ffffffc050302c3a:	078d                	addi	a5,a5,3
ffffffc050302c3c:	0007c783          	lbu	a5,0(a5)
ffffffc050302c40:	0067d79b          	srliw	a5,a5,0x6
ffffffc050302c44:	0ff7f713          	andi	a4,a5,255
ffffffc050302c48:	fe043783          	ld	a5,-32(s0)
ffffffc050302c4c:	0791                	addi	a5,a5,4
ffffffc050302c4e:	0007c783          	lbu	a5,0(a5)
ffffffc050302c52:	0027979b          	slliw	a5,a5,0x2
ffffffc050302c56:	0ff7f793          	andi	a5,a5,255
ffffffc050302c5a:	03c7f793          	andi	a5,a5,60
ffffffc050302c5e:	0ff7f793          	andi	a5,a5,255
ffffffc050302c62:	8fd9                	or	a5,a5,a4
ffffffc050302c64:	fcf40d23          	sb	a5,-38(s0)
ffffffc050302c68:	fe043783          	ld	a5,-32(s0)
ffffffc050302c6c:	0791                	addi	a5,a5,4
ffffffc050302c6e:	0007c783          	lbu	a5,0(a5)
ffffffc050302c72:	0047d79b          	srliw	a5,a5,0x4
ffffffc050302c76:	0ff7f713          	andi	a4,a5,255
ffffffc050302c7a:	fe043783          	ld	a5,-32(s0)
ffffffc050302c7e:	0795                	addi	a5,a5,5
ffffffc050302c80:	0007c783          	lbu	a5,0(a5)
ffffffc050302c84:	0047979b          	slliw	a5,a5,0x4
ffffffc050302c88:	0ff7f793          	andi	a5,a5,255
ffffffc050302c8c:	0307f793          	andi	a5,a5,48
ffffffc050302c90:	0ff7f793          	andi	a5,a5,255
ffffffc050302c94:	8fd9                	or	a5,a5,a4
ffffffc050302c96:	fcf40ca3          	sb	a5,-39(s0)
ffffffc050302c9a:	fe043783          	ld	a5,-32(s0)
ffffffc050302c9e:	0795                	addi	a5,a5,5
ffffffc050302ca0:	0007c783          	lbu	a5,0(a5)
ffffffc050302ca4:	0027d79b          	srliw	a5,a5,0x2
ffffffc050302ca8:	fcf40c23          	sb	a5,-40(s0)
ffffffc050302cac:	fdf44703          	lbu	a4,-33(s0)
ffffffc050302cb0:	fde44783          	lbu	a5,-34(s0)
ffffffc050302cb4:	8fb9                	xor	a5,a5,a4
ffffffc050302cb6:	0ff7f713          	andi	a4,a5,255
ffffffc050302cba:	fdd44783          	lbu	a5,-35(s0)
ffffffc050302cbe:	8fb9                	xor	a5,a5,a4
ffffffc050302cc0:	0ff7f713          	andi	a4,a5,255
ffffffc050302cc4:	fdc44783          	lbu	a5,-36(s0)
ffffffc050302cc8:	8fb9                	xor	a5,a5,a4
ffffffc050302cca:	0ff7f713          	andi	a4,a5,255
ffffffc050302cce:	fdb44783          	lbu	a5,-37(s0)
ffffffc050302cd2:	8fb9                	xor	a5,a5,a4
ffffffc050302cd4:	0ff7f713          	andi	a4,a5,255
ffffffc050302cd8:	fda44783          	lbu	a5,-38(s0)
ffffffc050302cdc:	8fb9                	xor	a5,a5,a4
ffffffc050302cde:	0ff7f713          	andi	a4,a5,255
ffffffc050302ce2:	fd944783          	lbu	a5,-39(s0)
ffffffc050302ce6:	8fb9                	xor	a5,a5,a4
ffffffc050302ce8:	0ff7f713          	andi	a4,a5,255
ffffffc050302cec:	fd844783          	lbu	a5,-40(s0)
ffffffc050302cf0:	8fb9                	xor	a5,a5,a4
ffffffc050302cf2:	0ff7f793          	andi	a5,a5,255
ffffffc050302cf6:	fcf42a23          	sw	a5,-44(s0)
ffffffc050302cfa:	fd442783          	lw	a5,-44(s0)
ffffffc050302cfe:	0007871b          	sext.w	a4,a5
ffffffc050302d02:	03f00793          	li	a5,63
ffffffc050302d06:	00e7f663          	bgeu	a5,a4,ffffffc050302d12 <XEmacPs_SetHash+0x1a6>
ffffffc050302d0a:	47bd                	li	a5,15
ffffffc050302d0c:	fef43423          	sd	a5,-24(s0)
ffffffc050302d10:	a055                	j	ffffffc050302db4 <XEmacPs_SetHash+0x248>
ffffffc050302d12:	fd442783          	lw	a5,-44(s0)
ffffffc050302d16:	0007871b          	sext.w	a4,a5
ffffffc050302d1a:	47fd                	li	a5,31
ffffffc050302d1c:	04e7e563          	bltu	a5,a4,ffffffc050302d66 <XEmacPs_SetHash+0x1fa>
ffffffc050302d20:	fc843783          	ld	a5,-56(s0)
ffffffc050302d24:	679c                	ld	a5,8(a5)
ffffffc050302d26:	08078793          	addi	a5,a5,128
ffffffc050302d2a:	853e                	mv	a0,a5
ffffffc050302d2c:	b85ff0ef          	jal	ra,ffffffc0503028b0 <Xil_In32>
ffffffc050302d30:	87aa                	mv	a5,a0
ffffffc050302d32:	fcf42823          	sw	a5,-48(s0)
ffffffc050302d36:	fd442783          	lw	a5,-44(s0)
ffffffc050302d3a:	4705                	li	a4,1
ffffffc050302d3c:	00f717bb          	sllw	a5,a4,a5
ffffffc050302d40:	0007871b          	sext.w	a4,a5
ffffffc050302d44:	fd042783          	lw	a5,-48(s0)
ffffffc050302d48:	8fd9                	or	a5,a5,a4
ffffffc050302d4a:	fcf42823          	sw	a5,-48(s0)
ffffffc050302d4e:	fc843783          	ld	a5,-56(s0)
ffffffc050302d52:	679c                	ld	a5,8(a5)
ffffffc050302d54:	08078793          	addi	a5,a5,128
ffffffc050302d58:	fd042703          	lw	a4,-48(s0)
ffffffc050302d5c:	85ba                	mv	a1,a4
ffffffc050302d5e:	853e                	mv	a0,a5
ffffffc050302d60:	b25ff0ef          	jal	ra,ffffffc050302884 <Xil_Out32>
ffffffc050302d64:	a0b1                	j	ffffffc050302db0 <XEmacPs_SetHash+0x244>
ffffffc050302d66:	fc843783          	ld	a5,-56(s0)
ffffffc050302d6a:	679c                	ld	a5,8(a5)
ffffffc050302d6c:	08478793          	addi	a5,a5,132
ffffffc050302d70:	853e                	mv	a0,a5
ffffffc050302d72:	b3fff0ef          	jal	ra,ffffffc0503028b0 <Xil_In32>
ffffffc050302d76:	87aa                	mv	a5,a0
ffffffc050302d78:	fcf42823          	sw	a5,-48(s0)
ffffffc050302d7c:	fd442783          	lw	a5,-44(s0)
ffffffc050302d80:	3781                	addiw	a5,a5,-32
ffffffc050302d82:	2781                	sext.w	a5,a5
ffffffc050302d84:	873e                	mv	a4,a5
ffffffc050302d86:	4785                	li	a5,1
ffffffc050302d88:	00e797bb          	sllw	a5,a5,a4
ffffffc050302d8c:	0007871b          	sext.w	a4,a5
ffffffc050302d90:	fd042783          	lw	a5,-48(s0)
ffffffc050302d94:	8fd9                	or	a5,a5,a4
ffffffc050302d96:	fcf42823          	sw	a5,-48(s0)
ffffffc050302d9a:	fc843783          	ld	a5,-56(s0)
ffffffc050302d9e:	679c                	ld	a5,8(a5)
ffffffc050302da0:	08478793          	addi	a5,a5,132
ffffffc050302da4:	fd042703          	lw	a4,-48(s0)
ffffffc050302da8:	85ba                	mv	a1,a4
ffffffc050302daa:	853e                	mv	a0,a5
ffffffc050302dac:	ad9ff0ef          	jal	ra,ffffffc050302884 <Xil_Out32>
ffffffc050302db0:	fe043423          	sd	zero,-24(s0)
ffffffc050302db4:	fe843783          	ld	a5,-24(s0)
ffffffc050302db8:	853e                	mv	a0,a5
ffffffc050302dba:	70e2                	ld	ra,56(sp)
ffffffc050302dbc:	7442                	ld	s0,48(sp)
ffffffc050302dbe:	6121                	addi	sp,sp,64
ffffffc050302dc0:	8082                	ret

ffffffc050302dc2 <XEmacPs_DeleteHash>:
ffffffc050302dc2:	7139                	addi	sp,sp,-64
ffffffc050302dc4:	fc06                	sd	ra,56(sp)
ffffffc050302dc6:	f822                	sd	s0,48(sp)
ffffffc050302dc8:	0080                	addi	s0,sp,64
ffffffc050302dca:	fca43423          	sd	a0,-56(s0)
ffffffc050302dce:	fcb43023          	sd	a1,-64(s0)
ffffffc050302dd2:	fc043783          	ld	a5,-64(s0)
ffffffc050302dd6:	fef43023          	sd	a5,-32(s0)
ffffffc050302dda:	fc843783          	ld	a5,-56(s0)
ffffffc050302dde:	4f9c                	lw	a5,24(a5)
ffffffc050302de0:	873e                	mv	a4,a5
ffffffc050302de2:	222227b7          	lui	a5,0x22222
ffffffc050302de6:	22278793          	addi	a5,a5,546 # 22222222 <_start-0xffffffc02e0dddde>
ffffffc050302dea:	00f71663          	bne	a4,a5,ffffffc050302df6 <XEmacPs_DeleteHash+0x34>
ffffffc050302dee:	4795                	li	a5,5
ffffffc050302df0:	fef43423          	sd	a5,-24(s0)
ffffffc050302df4:	a40d                	j	ffffffc050303016 <XEmacPs_DeleteHash+0x254>
ffffffc050302df6:	fe043783          	ld	a5,-32(s0)
ffffffc050302dfa:	0007c783          	lbu	a5,0(a5)
ffffffc050302dfe:	03f7f793          	andi	a5,a5,63
ffffffc050302e02:	fcf40fa3          	sb	a5,-33(s0)
ffffffc050302e06:	fe043783          	ld	a5,-32(s0)
ffffffc050302e0a:	0007c783          	lbu	a5,0(a5)
ffffffc050302e0e:	0067d79b          	srliw	a5,a5,0x6
ffffffc050302e12:	0ff7f713          	andi	a4,a5,255
ffffffc050302e16:	fe043783          	ld	a5,-32(s0)
ffffffc050302e1a:	0785                	addi	a5,a5,1
ffffffc050302e1c:	0007c783          	lbu	a5,0(a5)
ffffffc050302e20:	0027979b          	slliw	a5,a5,0x2
ffffffc050302e24:	0ff7f793          	andi	a5,a5,255
ffffffc050302e28:	03c7f793          	andi	a5,a5,60
ffffffc050302e2c:	0ff7f793          	andi	a5,a5,255
ffffffc050302e30:	8fd9                	or	a5,a5,a4
ffffffc050302e32:	fcf40f23          	sb	a5,-34(s0)
ffffffc050302e36:	fe043783          	ld	a5,-32(s0)
ffffffc050302e3a:	0785                	addi	a5,a5,1
ffffffc050302e3c:	0007c783          	lbu	a5,0(a5)
ffffffc050302e40:	0047d79b          	srliw	a5,a5,0x4
ffffffc050302e44:	0ff7f713          	andi	a4,a5,255
ffffffc050302e48:	fe043783          	ld	a5,-32(s0)
ffffffc050302e4c:	0789                	addi	a5,a5,2
ffffffc050302e4e:	0007c783          	lbu	a5,0(a5)
ffffffc050302e52:	0047979b          	slliw	a5,a5,0x4
ffffffc050302e56:	0ff7f793          	andi	a5,a5,255
ffffffc050302e5a:	0307f793          	andi	a5,a5,48
ffffffc050302e5e:	0ff7f793          	andi	a5,a5,255
ffffffc050302e62:	8fd9                	or	a5,a5,a4
ffffffc050302e64:	fcf40ea3          	sb	a5,-35(s0)
ffffffc050302e68:	fe043783          	ld	a5,-32(s0)
ffffffc050302e6c:	0789                	addi	a5,a5,2
ffffffc050302e6e:	0007c783          	lbu	a5,0(a5)
ffffffc050302e72:	0027d79b          	srliw	a5,a5,0x2
ffffffc050302e76:	fcf40e23          	sb	a5,-36(s0)
ffffffc050302e7a:	fe043783          	ld	a5,-32(s0)
ffffffc050302e7e:	078d                	addi	a5,a5,3
ffffffc050302e80:	0007c783          	lbu	a5,0(a5)
ffffffc050302e84:	03f7f793          	andi	a5,a5,63
ffffffc050302e88:	fcf40da3          	sb	a5,-37(s0)
ffffffc050302e8c:	fe043783          	ld	a5,-32(s0)
ffffffc050302e90:	078d                	addi	a5,a5,3
ffffffc050302e92:	0007c783          	lbu	a5,0(a5)
ffffffc050302e96:	0067d79b          	srliw	a5,a5,0x6
ffffffc050302e9a:	0ff7f713          	andi	a4,a5,255
ffffffc050302e9e:	fe043783          	ld	a5,-32(s0)
ffffffc050302ea2:	0791                	addi	a5,a5,4
ffffffc050302ea4:	0007c783          	lbu	a5,0(a5)
ffffffc050302ea8:	0027979b          	slliw	a5,a5,0x2
ffffffc050302eac:	0ff7f793          	andi	a5,a5,255
ffffffc050302eb0:	03c7f793          	andi	a5,a5,60
ffffffc050302eb4:	0ff7f793          	andi	a5,a5,255
ffffffc050302eb8:	8fd9                	or	a5,a5,a4
ffffffc050302eba:	fcf40d23          	sb	a5,-38(s0)
ffffffc050302ebe:	fe043783          	ld	a5,-32(s0)
ffffffc050302ec2:	0791                	addi	a5,a5,4
ffffffc050302ec4:	0007c783          	lbu	a5,0(a5)
ffffffc050302ec8:	0047d79b          	srliw	a5,a5,0x4
ffffffc050302ecc:	0ff7f713          	andi	a4,a5,255
ffffffc050302ed0:	fe043783          	ld	a5,-32(s0)
ffffffc050302ed4:	0795                	addi	a5,a5,5
ffffffc050302ed6:	0007c783          	lbu	a5,0(a5)
ffffffc050302eda:	0047979b          	slliw	a5,a5,0x4
ffffffc050302ede:	0ff7f793          	andi	a5,a5,255
ffffffc050302ee2:	0307f793          	andi	a5,a5,48
ffffffc050302ee6:	0ff7f793          	andi	a5,a5,255
ffffffc050302eea:	8fd9                	or	a5,a5,a4
ffffffc050302eec:	fcf40ca3          	sb	a5,-39(s0)
ffffffc050302ef0:	fe043783          	ld	a5,-32(s0)
ffffffc050302ef4:	0795                	addi	a5,a5,5
ffffffc050302ef6:	0007c783          	lbu	a5,0(a5)
ffffffc050302efa:	0027d79b          	srliw	a5,a5,0x2
ffffffc050302efe:	fcf40c23          	sb	a5,-40(s0)
ffffffc050302f02:	fdf44703          	lbu	a4,-33(s0)
ffffffc050302f06:	fde44783          	lbu	a5,-34(s0)
ffffffc050302f0a:	8fb9                	xor	a5,a5,a4
ffffffc050302f0c:	0ff7f713          	andi	a4,a5,255
ffffffc050302f10:	fdd44783          	lbu	a5,-35(s0)
ffffffc050302f14:	8fb9                	xor	a5,a5,a4
ffffffc050302f16:	0ff7f713          	andi	a4,a5,255
ffffffc050302f1a:	fdc44783          	lbu	a5,-36(s0)
ffffffc050302f1e:	8fb9                	xor	a5,a5,a4
ffffffc050302f20:	0ff7f713          	andi	a4,a5,255
ffffffc050302f24:	fdb44783          	lbu	a5,-37(s0)
ffffffc050302f28:	8fb9                	xor	a5,a5,a4
ffffffc050302f2a:	0ff7f713          	andi	a4,a5,255
ffffffc050302f2e:	fda44783          	lbu	a5,-38(s0)
ffffffc050302f32:	8fb9                	xor	a5,a5,a4
ffffffc050302f34:	0ff7f713          	andi	a4,a5,255
ffffffc050302f38:	fd944783          	lbu	a5,-39(s0)
ffffffc050302f3c:	8fb9                	xor	a5,a5,a4
ffffffc050302f3e:	0ff7f713          	andi	a4,a5,255
ffffffc050302f42:	fd844783          	lbu	a5,-40(s0)
ffffffc050302f46:	8fb9                	xor	a5,a5,a4
ffffffc050302f48:	0ff7f793          	andi	a5,a5,255
ffffffc050302f4c:	fcf42a23          	sw	a5,-44(s0)
ffffffc050302f50:	fd442783          	lw	a5,-44(s0)
ffffffc050302f54:	0007871b          	sext.w	a4,a5
ffffffc050302f58:	03f00793          	li	a5,63
ffffffc050302f5c:	00e7f663          	bgeu	a5,a4,ffffffc050302f68 <XEmacPs_DeleteHash+0x1a6>
ffffffc050302f60:	47bd                	li	a5,15
ffffffc050302f62:	fef43423          	sd	a5,-24(s0)
ffffffc050302f66:	a845                	j	ffffffc050303016 <XEmacPs_DeleteHash+0x254>
ffffffc050302f68:	fd442783          	lw	a5,-44(s0)
ffffffc050302f6c:	0007871b          	sext.w	a4,a5
ffffffc050302f70:	47fd                	li	a5,31
ffffffc050302f72:	04e7e863          	bltu	a5,a4,ffffffc050302fc2 <XEmacPs_DeleteHash+0x200>
ffffffc050302f76:	fc843783          	ld	a5,-56(s0)
ffffffc050302f7a:	679c                	ld	a5,8(a5)
ffffffc050302f7c:	08078793          	addi	a5,a5,128
ffffffc050302f80:	853e                	mv	a0,a5
ffffffc050302f82:	92fff0ef          	jal	ra,ffffffc0503028b0 <Xil_In32>
ffffffc050302f86:	87aa                	mv	a5,a0
ffffffc050302f88:	fcf42823          	sw	a5,-48(s0)
ffffffc050302f8c:	fd442783          	lw	a5,-44(s0)
ffffffc050302f90:	4705                	li	a4,1
ffffffc050302f92:	00f717bb          	sllw	a5,a4,a5
ffffffc050302f96:	2781                	sext.w	a5,a5
ffffffc050302f98:	fff7c793          	not	a5,a5
ffffffc050302f9c:	0007871b          	sext.w	a4,a5
ffffffc050302fa0:	fd042783          	lw	a5,-48(s0)
ffffffc050302fa4:	8ff9                	and	a5,a5,a4
ffffffc050302fa6:	fcf42823          	sw	a5,-48(s0)
ffffffc050302faa:	fc843783          	ld	a5,-56(s0)
ffffffc050302fae:	679c                	ld	a5,8(a5)
ffffffc050302fb0:	08078793          	addi	a5,a5,128
ffffffc050302fb4:	fd042703          	lw	a4,-48(s0)
ffffffc050302fb8:	85ba                	mv	a1,a4
ffffffc050302fba:	853e                	mv	a0,a5
ffffffc050302fbc:	8c9ff0ef          	jal	ra,ffffffc050302884 <Xil_Out32>
ffffffc050302fc0:	a889                	j	ffffffc050303012 <XEmacPs_DeleteHash+0x250>
ffffffc050302fc2:	fc843783          	ld	a5,-56(s0)
ffffffc050302fc6:	679c                	ld	a5,8(a5)
ffffffc050302fc8:	08478793          	addi	a5,a5,132
ffffffc050302fcc:	853e                	mv	a0,a5
ffffffc050302fce:	8e3ff0ef          	jal	ra,ffffffc0503028b0 <Xil_In32>
ffffffc050302fd2:	87aa                	mv	a5,a0
ffffffc050302fd4:	fcf42823          	sw	a5,-48(s0)
ffffffc050302fd8:	fd442783          	lw	a5,-44(s0)
ffffffc050302fdc:	3781                	addiw	a5,a5,-32
ffffffc050302fde:	2781                	sext.w	a5,a5
ffffffc050302fe0:	873e                	mv	a4,a5
ffffffc050302fe2:	4785                	li	a5,1
ffffffc050302fe4:	00e797bb          	sllw	a5,a5,a4
ffffffc050302fe8:	2781                	sext.w	a5,a5
ffffffc050302fea:	fff7c793          	not	a5,a5
ffffffc050302fee:	0007871b          	sext.w	a4,a5
ffffffc050302ff2:	fd042783          	lw	a5,-48(s0)
ffffffc050302ff6:	8ff9                	and	a5,a5,a4
ffffffc050302ff8:	fcf42823          	sw	a5,-48(s0)
ffffffc050302ffc:	fc843783          	ld	a5,-56(s0)
ffffffc050303000:	679c                	ld	a5,8(a5)
ffffffc050303002:	08478793          	addi	a5,a5,132
ffffffc050303006:	fd042703          	lw	a4,-48(s0)
ffffffc05030300a:	85ba                	mv	a1,a4
ffffffc05030300c:	853e                	mv	a0,a5
ffffffc05030300e:	877ff0ef          	jal	ra,ffffffc050302884 <Xil_Out32>
ffffffc050303012:	fe043423          	sd	zero,-24(s0)
ffffffc050303016:	fe843783          	ld	a5,-24(s0)
ffffffc05030301a:	853e                	mv	a0,a5
ffffffc05030301c:	70e2                	ld	ra,56(sp)
ffffffc05030301e:	7442                	ld	s0,48(sp)
ffffffc050303020:	6121                	addi	sp,sp,64
ffffffc050303022:	8082                	ret

ffffffc050303024 <XEmacPs_ClearHash>:
ffffffc050303024:	1101                	addi	sp,sp,-32
ffffffc050303026:	ec06                	sd	ra,24(sp)
ffffffc050303028:	e822                	sd	s0,16(sp)
ffffffc05030302a:	1000                	addi	s0,sp,32
ffffffc05030302c:	fea43423          	sd	a0,-24(s0)
ffffffc050303030:	fe843783          	ld	a5,-24(s0)
ffffffc050303034:	679c                	ld	a5,8(a5)
ffffffc050303036:	08078793          	addi	a5,a5,128
ffffffc05030303a:	4581                	li	a1,0
ffffffc05030303c:	853e                	mv	a0,a5
ffffffc05030303e:	847ff0ef          	jal	ra,ffffffc050302884 <Xil_Out32>
ffffffc050303042:	fe843783          	ld	a5,-24(s0)
ffffffc050303046:	679c                	ld	a5,8(a5)
ffffffc050303048:	08478793          	addi	a5,a5,132
ffffffc05030304c:	4581                	li	a1,0
ffffffc05030304e:	853e                	mv	a0,a5
ffffffc050303050:	835ff0ef          	jal	ra,ffffffc050302884 <Xil_Out32>
ffffffc050303054:	0001                	nop
ffffffc050303056:	60e2                	ld	ra,24(sp)
ffffffc050303058:	6442                	ld	s0,16(sp)
ffffffc05030305a:	6105                	addi	sp,sp,32
ffffffc05030305c:	8082                	ret

ffffffc05030305e <XEmacPs_GetHash>:
ffffffc05030305e:	7139                	addi	sp,sp,-64
ffffffc050303060:	fc06                	sd	ra,56(sp)
ffffffc050303062:	f822                	sd	s0,48(sp)
ffffffc050303064:	f426                	sd	s1,40(sp)
ffffffc050303066:	0080                	addi	s0,sp,64
ffffffc050303068:	fca43423          	sd	a0,-56(s0)
ffffffc05030306c:	fcb43023          	sd	a1,-64(s0)
ffffffc050303070:	fc043783          	ld	a5,-64(s0)
ffffffc050303074:	fcf43c23          	sd	a5,-40(s0)
ffffffc050303078:	fc843783          	ld	a5,-56(s0)
ffffffc05030307c:	679c                	ld	a5,8(a5)
ffffffc05030307e:	08078793          	addi	a5,a5,128
ffffffc050303082:	853e                	mv	a0,a5
ffffffc050303084:	82dff0ef          	jal	ra,ffffffc0503028b0 <Xil_In32>
ffffffc050303088:	87aa                	mv	a5,a0
ffffffc05030308a:	0007871b          	sext.w	a4,a5
ffffffc05030308e:	fd843783          	ld	a5,-40(s0)
ffffffc050303092:	c398                	sw	a4,0(a5)
ffffffc050303094:	fc843783          	ld	a5,-56(s0)
ffffffc050303098:	679c                	ld	a5,8(a5)
ffffffc05030309a:	08478713          	addi	a4,a5,132
ffffffc05030309e:	fd843783          	ld	a5,-40(s0)
ffffffc0503030a2:	00478493          	addi	s1,a5,4
ffffffc0503030a6:	853a                	mv	a0,a4
ffffffc0503030a8:	809ff0ef          	jal	ra,ffffffc0503028b0 <Xil_In32>
ffffffc0503030ac:	87aa                	mv	a5,a0
ffffffc0503030ae:	2781                	sext.w	a5,a5
ffffffc0503030b0:	c09c                	sw	a5,0(s1)
ffffffc0503030b2:	0001                	nop
ffffffc0503030b4:	70e2                	ld	ra,56(sp)
ffffffc0503030b6:	7442                	ld	s0,48(sp)
ffffffc0503030b8:	74a2                	ld	s1,40(sp)
ffffffc0503030ba:	6121                	addi	sp,sp,64
ffffffc0503030bc:	8082                	ret

ffffffc0503030be <XEmacPs_SetTypeIdCheck>:
ffffffc0503030be:	7179                	addi	sp,sp,-48
ffffffc0503030c0:	f406                	sd	ra,40(sp)
ffffffc0503030c2:	f022                	sd	s0,32(sp)
ffffffc0503030c4:	1800                	addi	s0,sp,48
ffffffc0503030c6:	fca43c23          	sd	a0,-40(s0)
ffffffc0503030ca:	87ae                	mv	a5,a1
ffffffc0503030cc:	8732                	mv	a4,a2
ffffffc0503030ce:	fcf42a23          	sw	a5,-44(s0)
ffffffc0503030d2:	87ba                	mv	a5,a4
ffffffc0503030d4:	fcf409a3          	sb	a5,-45(s0)
ffffffc0503030d8:	fd344783          	lbu	a5,-45(s0)
ffffffc0503030dc:	fef403a3          	sb	a5,-25(s0)
ffffffc0503030e0:	fd843783          	ld	a5,-40(s0)
ffffffc0503030e4:	4f9c                	lw	a5,24(a5)
ffffffc0503030e6:	873e                	mv	a4,a5
ffffffc0503030e8:	222227b7          	lui	a5,0x22222
ffffffc0503030ec:	22278793          	addi	a5,a5,546 # 22222222 <_start-0xffffffc02e0dddde>
ffffffc0503030f0:	00f71663          	bne	a4,a5,ffffffc0503030fc <XEmacPs_SetTypeIdCheck+0x3e>
ffffffc0503030f4:	4795                	li	a5,5
ffffffc0503030f6:	fef43423          	sd	a5,-24(s0)
ffffffc0503030fa:	a82d                	j	ffffffc050303134 <XEmacPs_SetTypeIdCheck+0x76>
ffffffc0503030fc:	fe744783          	lbu	a5,-25(s0)
ffffffc050303100:	37fd                	addiw	a5,a5,-1
ffffffc050303102:	fef403a3          	sb	a5,-25(s0)
ffffffc050303106:	fd843783          	ld	a5,-40(s0)
ffffffc05030310a:	6798                	ld	a4,8(a5)
ffffffc05030310c:	fe744783          	lbu	a5,-25(s0)
ffffffc050303110:	2781                	sext.w	a5,a5
ffffffc050303112:	02a7879b          	addiw	a5,a5,42
ffffffc050303116:	2781                	sext.w	a5,a5
ffffffc050303118:	0027979b          	slliw	a5,a5,0x2
ffffffc05030311c:	2781                	sext.w	a5,a5
ffffffc05030311e:	1782                	slli	a5,a5,0x20
ffffffc050303120:	9381                	srli	a5,a5,0x20
ffffffc050303122:	97ba                	add	a5,a5,a4
ffffffc050303124:	fd442703          	lw	a4,-44(s0)
ffffffc050303128:	85ba                	mv	a1,a4
ffffffc05030312a:	853e                	mv	a0,a5
ffffffc05030312c:	f58ff0ef          	jal	ra,ffffffc050302884 <Xil_Out32>
ffffffc050303130:	fe043423          	sd	zero,-24(s0)
ffffffc050303134:	fe843783          	ld	a5,-24(s0)
ffffffc050303138:	853e                	mv	a0,a5
ffffffc05030313a:	70a2                	ld	ra,40(sp)
ffffffc05030313c:	7402                	ld	s0,32(sp)
ffffffc05030313e:	6145                	addi	sp,sp,48
ffffffc050303140:	8082                	ret

ffffffc050303142 <XEmacPs_SetOptions>:
ffffffc050303142:	7139                	addi	sp,sp,-64
ffffffc050303144:	fc06                	sd	ra,56(sp)
ffffffc050303146:	f822                	sd	s0,48(sp)
ffffffc050303148:	0080                	addi	s0,sp,64
ffffffc05030314a:	fca43423          	sd	a0,-56(s0)
ffffffc05030314e:	87ae                	mv	a5,a1
ffffffc050303150:	fcf42223          	sw	a5,-60(s0)
ffffffc050303154:	fc442783          	lw	a5,-60(s0)
ffffffc050303158:	85be                	mv	a1,a5
ffffffc05030315a:	00008517          	auipc	a0,0x8
ffffffc05030315e:	13e50513          	addi	a0,a0,318 # ffffffc05030b298 <__FUNCTION__.1991+0x38>
ffffffc050303162:	26f070ef          	jal	ra,ffffffc05030abd0 <printk>
ffffffc050303166:	fc843783          	ld	a5,-56(s0)
ffffffc05030316a:	4f9c                	lw	a5,24(a5)
ffffffc05030316c:	873e                	mv	a4,a5
ffffffc05030316e:	222227b7          	lui	a5,0x22222
ffffffc050303172:	22278793          	addi	a5,a5,546 # 22222222 <_start-0xffffffc02e0dddde>
ffffffc050303176:	00f71663          	bne	a4,a5,ffffffc050303182 <XEmacPs_SetOptions+0x40>
ffffffc05030317a:	4795                	li	a5,5
ffffffc05030317c:	fef43023          	sd	a5,-32(s0)
ffffffc050303180:	a4c5                	j	ffffffc050303460 <XEmacPs_SetOptions+0x31e>
ffffffc050303182:	fc843783          	ld	a5,-56(s0)
ffffffc050303186:	679c                	ld	a5,8(a5)
ffffffc050303188:	0791                	addi	a5,a5,4
ffffffc05030318a:	853e                	mv	a0,a5
ffffffc05030318c:	f24ff0ef          	jal	ra,ffffffc0503028b0 <Xil_In32>
ffffffc050303190:	87aa                	mv	a5,a0
ffffffc050303192:	fcf42e23          	sw	a5,-36(s0)
ffffffc050303196:	fdc42783          	lw	a5,-36(s0)
ffffffc05030319a:	fef42623          	sw	a5,-20(s0)
ffffffc05030319e:	fc442783          	lw	a5,-60(s0)
ffffffc0503031a2:	8b89                	andi	a5,a5,2
ffffffc0503031a4:	2781                	sext.w	a5,a5
ffffffc0503031a6:	c799                	beqz	a5,ffffffc0503031b4 <XEmacPs_SetOptions+0x72>
ffffffc0503031a8:	fec42783          	lw	a5,-20(s0)
ffffffc0503031ac:	1007e793          	ori	a5,a5,256
ffffffc0503031b0:	fef42623          	sw	a5,-20(s0)
ffffffc0503031b4:	fc442783          	lw	a5,-60(s0)
ffffffc0503031b8:	8b91                	andi	a5,a5,4
ffffffc0503031ba:	2781                	sext.w	a5,a5
ffffffc0503031bc:	c799                	beqz	a5,ffffffc0503031ca <XEmacPs_SetOptions+0x88>
ffffffc0503031be:	fec42783          	lw	a5,-20(s0)
ffffffc0503031c2:	0047e793          	ori	a5,a5,4
ffffffc0503031c6:	fef42623          	sw	a5,-20(s0)
ffffffc0503031ca:	fc442783          	lw	a5,-60(s0)
ffffffc0503031ce:	0207f793          	andi	a5,a5,32
ffffffc0503031d2:	2781                	sext.w	a5,a5
ffffffc0503031d4:	cb81                	beqz	a5,ffffffc0503031e4 <XEmacPs_SetOptions+0xa2>
ffffffc0503031d6:	fec42703          	lw	a4,-20(s0)
ffffffc0503031da:	000207b7          	lui	a5,0x20
ffffffc0503031de:	8fd9                	or	a5,a5,a4
ffffffc0503031e0:	fef42623          	sw	a5,-20(s0)
ffffffc0503031e4:	fc442783          	lw	a5,-60(s0)
ffffffc0503031e8:	0807f793          	andi	a5,a5,128
ffffffc0503031ec:	2781                	sext.w	a5,a5
ffffffc0503031ee:	c799                	beqz	a5,ffffffc0503031fc <XEmacPs_SetOptions+0xba>
ffffffc0503031f0:	fec42703          	lw	a4,-20(s0)
ffffffc0503031f4:	67c1                	lui	a5,0x10
ffffffc0503031f6:	8fd9                	or	a5,a5,a4
ffffffc0503031f8:	fef42623          	sw	a5,-20(s0)
ffffffc0503031fc:	fc442783          	lw	a5,-60(s0)
ffffffc050303200:	8bc1                	andi	a5,a5,16
ffffffc050303202:	2781                	sext.w	a5,a5
ffffffc050303204:	c799                	beqz	a5,ffffffc050303212 <XEmacPs_SetOptions+0xd0>
ffffffc050303206:	fec42703          	lw	a4,-20(s0)
ffffffc05030320a:	6789                	lui	a5,0x2
ffffffc05030320c:	8fd9                	or	a5,a5,a4
ffffffc05030320e:	fef42623          	sw	a5,-20(s0)
ffffffc050303212:	fc442783          	lw	a5,-60(s0)
ffffffc050303216:	8b85                	andi	a5,a5,1
ffffffc050303218:	2781                	sext.w	a5,a5
ffffffc05030321a:	c799                	beqz	a5,ffffffc050303228 <XEmacPs_SetOptions+0xe6>
ffffffc05030321c:	fec42783          	lw	a5,-20(s0)
ffffffc050303220:	0107e793          	ori	a5,a5,16
ffffffc050303224:	fef42623          	sw	a5,-20(s0)
ffffffc050303228:	fc442783          	lw	a5,-60(s0)
ffffffc05030322c:	4007f793          	andi	a5,a5,1024
ffffffc050303230:	2781                	sext.w	a5,a5
ffffffc050303232:	c799                	beqz	a5,ffffffc050303240 <XEmacPs_SetOptions+0xfe>
ffffffc050303234:	fec42783          	lw	a5,-20(s0)
ffffffc050303238:	fdf7f793          	andi	a5,a5,-33
ffffffc05030323c:	fef42623          	sw	a5,-20(s0)
ffffffc050303240:	fc442703          	lw	a4,-60(s0)
ffffffc050303244:	6785                	lui	a5,0x1
ffffffc050303246:	80078793          	addi	a5,a5,-2048 # 800 <_start-0xffffffc0502ff800>
ffffffc05030324a:	8ff9                	and	a5,a5,a4
ffffffc05030324c:	2781                	sext.w	a5,a5
ffffffc05030324e:	c799                	beqz	a5,ffffffc05030325c <XEmacPs_SetOptions+0x11a>
ffffffc050303250:	fec42783          	lw	a5,-20(s0)
ffffffc050303254:	0407e793          	ori	a5,a5,64
ffffffc050303258:	fef42623          	sw	a5,-20(s0)
ffffffc05030325c:	fc442703          	lw	a4,-60(s0)
ffffffc050303260:	6785                	lui	a5,0x1
ffffffc050303262:	8ff9                	and	a5,a5,a4
ffffffc050303264:	2781                	sext.w	a5,a5
ffffffc050303266:	cb81                	beqz	a5,ffffffc050303276 <XEmacPs_SetOptions+0x134>
ffffffc050303268:	fec42703          	lw	a4,-20(s0)
ffffffc05030326c:	010007b7          	lui	a5,0x1000
ffffffc050303270:	8fd9                	or	a5,a5,a4
ffffffc050303272:	fef42623          	sw	a5,-20(s0)
ffffffc050303276:	fc442703          	lw	a4,-60(s0)
ffffffc05030327a:	6791                	lui	a5,0x4
ffffffc05030327c:	8ff9                	and	a5,a5,a4
ffffffc05030327e:	2781                	sext.w	a5,a5
ffffffc050303280:	cfc5                	beqz	a5,ffffffc050303338 <XEmacPs_SetOptions+0x1f6>
ffffffc050303282:	fc843783          	ld	a5,-56(s0)
ffffffc050303286:	1387a783          	lw	a5,312(a5) # 4138 <_start-0xffffffc0502fbec8>
ffffffc05030328a:	873e                	mv	a4,a5
ffffffc05030328c:	4789                	li	a5,2
ffffffc05030328e:	0ae7f563          	bgeu	a5,a4,ffffffc050303338 <XEmacPs_SetOptions+0x1f6>
ffffffc050303292:	fec42783          	lw	a5,-20(s0)
ffffffc050303296:	0087e793          	ori	a5,a5,8
ffffffc05030329a:	fef42623          	sw	a5,-20(s0)
ffffffc05030329e:	fc843783          	ld	a5,-56(s0)
ffffffc0503032a2:	679c                	ld	a5,8(a5)
ffffffc0503032a4:	04878713          	addi	a4,a5,72
ffffffc0503032a8:	678d                	lui	a5,0x3
ffffffc0503032aa:	80078593          	addi	a1,a5,-2048 # 2800 <_start-0xffffffc0502fd800>
ffffffc0503032ae:	853a                	mv	a0,a4
ffffffc0503032b0:	dd4ff0ef          	jal	ra,ffffffc050302884 <Xil_Out32>
ffffffc0503032b4:	fc843783          	ld	a5,-56(s0)
ffffffc0503032b8:	679c                	ld	a5,8(a5)
ffffffc0503032ba:	07c1                	addi	a5,a5,16
ffffffc0503032bc:	853e                	mv	a0,a5
ffffffc0503032be:	df2ff0ef          	jal	ra,ffffffc0503028b0 <Xil_In32>
ffffffc0503032c2:	87aa                	mv	a5,a0
ffffffc0503032c4:	fcf42c23          	sw	a5,-40(s0)
ffffffc0503032c8:	fd842703          	lw	a4,-40(s0)
ffffffc0503032cc:	ff0107b7          	lui	a5,0xff010
ffffffc0503032d0:	17fd                	addi	a5,a5,-1
ffffffc0503032d2:	8ff9                	and	a5,a5,a4
ffffffc0503032d4:	fcf42c23          	sw	a5,-40(s0)
ffffffc0503032d8:	fd842703          	lw	a4,-40(s0)
ffffffc0503032dc:	00a007b7          	lui	a5,0xa00
ffffffc0503032e0:	8fd9                	or	a5,a5,a4
ffffffc0503032e2:	fcf42c23          	sw	a5,-40(s0)
ffffffc0503032e6:	fc843783          	ld	a5,-56(s0)
ffffffc0503032ea:	679c                	ld	a5,8(a5)
ffffffc0503032ec:	07c1                	addi	a5,a5,16
ffffffc0503032ee:	fd842703          	lw	a4,-40(s0)
ffffffc0503032f2:	85ba                	mv	a1,a4
ffffffc0503032f4:	853e                	mv	a0,a5
ffffffc0503032f6:	d8eff0ef          	jal	ra,ffffffc050302884 <Xil_Out32>
ffffffc0503032fa:	fc843783          	ld	a5,-56(s0)
ffffffc0503032fe:	670d                	lui	a4,0x3
ffffffc050303300:	80070713          	addi	a4,a4,-2048 # 2800 <_start-0xffffffc0502fd800>
ffffffc050303304:	14e7a023          	sw	a4,320(a5) # a00140 <_start-0xffffffc04f8ffec0>
ffffffc050303308:	fc843783          	ld	a5,-56(s0)
ffffffc05030330c:	670d                	lui	a4,0x3
ffffffc05030330e:	81270713          	addi	a4,a4,-2030 # 2812 <_start-0xffffffc0502fd7ee>
ffffffc050303312:	14e7a223          	sw	a4,324(a5)
ffffffc050303316:	fc843783          	ld	a5,-56(s0)
ffffffc05030331a:	1447a783          	lw	a5,324(a5)
ffffffc05030331e:	27c9                	addiw	a5,a5,18
ffffffc050303320:	0007871b          	sext.w	a4,a5
ffffffc050303324:	fc843783          	ld	a5,-56(s0)
ffffffc050303328:	14e7a423          	sw	a4,328(a5)
ffffffc05030332c:	fc843783          	ld	a5,-56(s0)
ffffffc050303330:	6711                	lui	a4,0x4
ffffffc050303332:	177d                	addi	a4,a4,-1
ffffffc050303334:	12e7ae23          	sw	a4,316(a5)
ffffffc050303338:	fc442703          	lw	a4,-60(s0)
ffffffc05030333c:	67a1                	lui	a5,0x8
ffffffc05030333e:	8ff9                	and	a5,a5,a4
ffffffc050303340:	2781                	sext.w	a5,a5
ffffffc050303342:	c395                	beqz	a5,ffffffc050303366 <XEmacPs_SetOptions+0x224>
ffffffc050303344:	fc843783          	ld	a5,-56(s0)
ffffffc050303348:	1387a783          	lw	a5,312(a5) # 8138 <_start-0xffffffc0502f7ec8>
ffffffc05030334c:	873e                	mv	a4,a5
ffffffc05030334e:	4789                	li	a5,2
ffffffc050303350:	00e7fb63          	bgeu	a5,a4,ffffffc050303366 <XEmacPs_SetOptions+0x224>
ffffffc050303354:	fec42703          	lw	a4,-20(s0)
ffffffc050303358:	080017b7          	lui	a5,0x8001
ffffffc05030335c:	80078793          	addi	a5,a5,-2048 # 8000800 <_start-0xffffffc0482ff800>
ffffffc050303360:	8fd9                	or	a5,a5,a4
ffffffc050303362:	fef42623          	sw	a5,-20(s0)
ffffffc050303366:	fdc42703          	lw	a4,-36(s0)
ffffffc05030336a:	fec42783          	lw	a5,-20(s0)
ffffffc05030336e:	2701                	sext.w	a4,a4
ffffffc050303370:	2781                	sext.w	a5,a5
ffffffc050303372:	00f70c63          	beq	a4,a5,ffffffc05030338a <XEmacPs_SetOptions+0x248>
ffffffc050303376:	fc843783          	ld	a5,-56(s0)
ffffffc05030337a:	679c                	ld	a5,8(a5)
ffffffc05030337c:	0791                	addi	a5,a5,4
ffffffc05030337e:	fec42703          	lw	a4,-20(s0)
ffffffc050303382:	85ba                	mv	a1,a4
ffffffc050303384:	853e                	mv	a0,a5
ffffffc050303386:	cfeff0ef          	jal	ra,ffffffc050302884 <Xil_Out32>
ffffffc05030338a:	fc442703          	lw	a4,-60(s0)
ffffffc05030338e:	6789                	lui	a5,0x2
ffffffc050303390:	8ff9                	and	a5,a5,a4
ffffffc050303392:	2781                	sext.w	a5,a5
ffffffc050303394:	cf8d                	beqz	a5,ffffffc0503033ce <XEmacPs_SetOptions+0x28c>
ffffffc050303396:	fc843783          	ld	a5,-56(s0)
ffffffc05030339a:	679c                	ld	a5,8(a5)
ffffffc05030339c:	07c1                	addi	a5,a5,16
ffffffc05030339e:	853e                	mv	a0,a5
ffffffc0503033a0:	d10ff0ef          	jal	ra,ffffffc0503028b0 <Xil_In32>
ffffffc0503033a4:	87aa                	mv	a5,a0
ffffffc0503033a6:	fcf42c23          	sw	a5,-40(s0)
ffffffc0503033aa:	fd842703          	lw	a4,-40(s0)
ffffffc0503033ae:	6785                	lui	a5,0x1
ffffffc0503033b0:	80078793          	addi	a5,a5,-2048 # 800 <_start-0xffffffc0502ff800>
ffffffc0503033b4:	8fd9                	or	a5,a5,a4
ffffffc0503033b6:	fcf42c23          	sw	a5,-40(s0)
ffffffc0503033ba:	fc843783          	ld	a5,-56(s0)
ffffffc0503033be:	679c                	ld	a5,8(a5)
ffffffc0503033c0:	07c1                	addi	a5,a5,16
ffffffc0503033c2:	fd842703          	lw	a4,-40(s0)
ffffffc0503033c6:	85ba                	mv	a1,a4
ffffffc0503033c8:	853e                	mv	a0,a5
ffffffc0503033ca:	cbaff0ef          	jal	ra,ffffffc050302884 <Xil_Out32>
ffffffc0503033ce:	fc442783          	lw	a5,-60(s0)
ffffffc0503033d2:	1007f793          	andi	a5,a5,256
ffffffc0503033d6:	2781                	sext.w	a5,a5
ffffffc0503033d8:	cb8d                	beqz	a5,ffffffc05030340a <XEmacPs_SetOptions+0x2c8>
ffffffc0503033da:	fc843783          	ld	a5,-56(s0)
ffffffc0503033de:	679c                	ld	a5,8(a5)
ffffffc0503033e0:	853e                	mv	a0,a5
ffffffc0503033e2:	cceff0ef          	jal	ra,ffffffc0503028b0 <Xil_In32>
ffffffc0503033e6:	87aa                	mv	a5,a0
ffffffc0503033e8:	fcf42c23          	sw	a5,-40(s0)
ffffffc0503033ec:	fd842783          	lw	a5,-40(s0)
ffffffc0503033f0:	0087e793          	ori	a5,a5,8
ffffffc0503033f4:	fcf42c23          	sw	a5,-40(s0)
ffffffc0503033f8:	fc843783          	ld	a5,-56(s0)
ffffffc0503033fc:	679c                	ld	a5,8(a5)
ffffffc0503033fe:	fd842703          	lw	a4,-40(s0)
ffffffc050303402:	85ba                	mv	a1,a4
ffffffc050303404:	853e                	mv	a0,a5
ffffffc050303406:	c7eff0ef          	jal	ra,ffffffc050302884 <Xil_Out32>
ffffffc05030340a:	fc442783          	lw	a5,-60(s0)
ffffffc05030340e:	2007f793          	andi	a5,a5,512
ffffffc050303412:	2781                	sext.w	a5,a5
ffffffc050303414:	cb8d                	beqz	a5,ffffffc050303446 <XEmacPs_SetOptions+0x304>
ffffffc050303416:	fc843783          	ld	a5,-56(s0)
ffffffc05030341a:	679c                	ld	a5,8(a5)
ffffffc05030341c:	853e                	mv	a0,a5
ffffffc05030341e:	c92ff0ef          	jal	ra,ffffffc0503028b0 <Xil_In32>
ffffffc050303422:	87aa                	mv	a5,a0
ffffffc050303424:	fcf42c23          	sw	a5,-40(s0)
ffffffc050303428:	fd842783          	lw	a5,-40(s0)
ffffffc05030342c:	0047e793          	ori	a5,a5,4
ffffffc050303430:	fcf42c23          	sw	a5,-40(s0)
ffffffc050303434:	fc843783          	ld	a5,-56(s0)
ffffffc050303438:	679c                	ld	a5,8(a5)
ffffffc05030343a:	fd842703          	lw	a4,-40(s0)
ffffffc05030343e:	85ba                	mv	a1,a4
ffffffc050303440:	853e                	mv	a0,a5
ffffffc050303442:	c42ff0ef          	jal	ra,ffffffc050302884 <Xil_Out32>
ffffffc050303446:	fc843783          	ld	a5,-56(s0)
ffffffc05030344a:	5398                	lw	a4,32(a5)
ffffffc05030344c:	fc442783          	lw	a5,-60(s0)
ffffffc050303450:	8fd9                	or	a5,a5,a4
ffffffc050303452:	0007871b          	sext.w	a4,a5
ffffffc050303456:	fc843783          	ld	a5,-56(s0)
ffffffc05030345a:	d398                	sw	a4,32(a5)
ffffffc05030345c:	fe043023          	sd	zero,-32(s0)
ffffffc050303460:	fe043783          	ld	a5,-32(s0)
ffffffc050303464:	853e                	mv	a0,a5
ffffffc050303466:	70e2                	ld	ra,56(sp)
ffffffc050303468:	7442                	ld	s0,48(sp)
ffffffc05030346a:	6121                	addi	sp,sp,64
ffffffc05030346c:	8082                	ret

ffffffc05030346e <XEmacPs_ClearOptions>:
ffffffc05030346e:	7139                	addi	sp,sp,-64
ffffffc050303470:	fc06                	sd	ra,56(sp)
ffffffc050303472:	f822                	sd	s0,48(sp)
ffffffc050303474:	0080                	addi	s0,sp,64
ffffffc050303476:	fca43423          	sd	a0,-56(s0)
ffffffc05030347a:	87ae                	mv	a5,a1
ffffffc05030347c:	fcf42223          	sw	a5,-60(s0)
ffffffc050303480:	fc843783          	ld	a5,-56(s0)
ffffffc050303484:	4f9c                	lw	a5,24(a5)
ffffffc050303486:	873e                	mv	a4,a5
ffffffc050303488:	222227b7          	lui	a5,0x22222
ffffffc05030348c:	22278793          	addi	a5,a5,546 # 22222222 <_start-0xffffffc02e0dddde>
ffffffc050303490:	00f71663          	bne	a4,a5,ffffffc05030349c <XEmacPs_ClearOptions+0x2e>
ffffffc050303494:	4795                	li	a5,5
ffffffc050303496:	fef43023          	sd	a5,-32(s0)
ffffffc05030349a:	a4e1                	j	ffffffc050303762 <XEmacPs_ClearOptions+0x2f4>
ffffffc05030349c:	fc843783          	ld	a5,-56(s0)
ffffffc0503034a0:	679c                	ld	a5,8(a5)
ffffffc0503034a2:	0791                	addi	a5,a5,4
ffffffc0503034a4:	853e                	mv	a0,a5
ffffffc0503034a6:	c0aff0ef          	jal	ra,ffffffc0503028b0 <Xil_In32>
ffffffc0503034aa:	87aa                	mv	a5,a0
ffffffc0503034ac:	fcf42e23          	sw	a5,-36(s0)
ffffffc0503034b0:	fdc42783          	lw	a5,-36(s0)
ffffffc0503034b4:	fef42623          	sw	a5,-20(s0)
ffffffc0503034b8:	fc442783          	lw	a5,-60(s0)
ffffffc0503034bc:	8b89                	andi	a5,a5,2
ffffffc0503034be:	2781                	sext.w	a5,a5
ffffffc0503034c0:	c799                	beqz	a5,ffffffc0503034ce <XEmacPs_ClearOptions+0x60>
ffffffc0503034c2:	fec42783          	lw	a5,-20(s0)
ffffffc0503034c6:	eff7f793          	andi	a5,a5,-257
ffffffc0503034ca:	fef42623          	sw	a5,-20(s0)
ffffffc0503034ce:	fc442783          	lw	a5,-60(s0)
ffffffc0503034d2:	8b91                	andi	a5,a5,4
ffffffc0503034d4:	2781                	sext.w	a5,a5
ffffffc0503034d6:	c791                	beqz	a5,ffffffc0503034e2 <XEmacPs_ClearOptions+0x74>
ffffffc0503034d8:	fec42783          	lw	a5,-20(s0)
ffffffc0503034dc:	9bed                	andi	a5,a5,-5
ffffffc0503034de:	fef42623          	sw	a5,-20(s0)
ffffffc0503034e2:	fc442783          	lw	a5,-60(s0)
ffffffc0503034e6:	0207f793          	andi	a5,a5,32
ffffffc0503034ea:	2781                	sext.w	a5,a5
ffffffc0503034ec:	cb81                	beqz	a5,ffffffc0503034fc <XEmacPs_ClearOptions+0x8e>
ffffffc0503034ee:	fec42703          	lw	a4,-20(s0)
ffffffc0503034f2:	7781                	lui	a5,0xfffe0
ffffffc0503034f4:	17fd                	addi	a5,a5,-1
ffffffc0503034f6:	8ff9                	and	a5,a5,a4
ffffffc0503034f8:	fef42623          	sw	a5,-20(s0)
ffffffc0503034fc:	fc442783          	lw	a5,-60(s0)
ffffffc050303500:	0807f793          	andi	a5,a5,128
ffffffc050303504:	2781                	sext.w	a5,a5
ffffffc050303506:	cb81                	beqz	a5,ffffffc050303516 <XEmacPs_ClearOptions+0xa8>
ffffffc050303508:	fec42703          	lw	a4,-20(s0)
ffffffc05030350c:	77c1                	lui	a5,0xffff0
ffffffc05030350e:	17fd                	addi	a5,a5,-1
ffffffc050303510:	8ff9                	and	a5,a5,a4
ffffffc050303512:	fef42623          	sw	a5,-20(s0)
ffffffc050303516:	fc442783          	lw	a5,-60(s0)
ffffffc05030351a:	8bc1                	andi	a5,a5,16
ffffffc05030351c:	2781                	sext.w	a5,a5
ffffffc05030351e:	cb81                	beqz	a5,ffffffc05030352e <XEmacPs_ClearOptions+0xc0>
ffffffc050303520:	fec42703          	lw	a4,-20(s0)
ffffffc050303524:	77f9                	lui	a5,0xffffe
ffffffc050303526:	17fd                	addi	a5,a5,-1
ffffffc050303528:	8ff9                	and	a5,a5,a4
ffffffc05030352a:	fef42623          	sw	a5,-20(s0)
ffffffc05030352e:	fc442783          	lw	a5,-60(s0)
ffffffc050303532:	8b85                	andi	a5,a5,1
ffffffc050303534:	2781                	sext.w	a5,a5
ffffffc050303536:	c791                	beqz	a5,ffffffc050303542 <XEmacPs_ClearOptions+0xd4>
ffffffc050303538:	fec42783          	lw	a5,-20(s0)
ffffffc05030353c:	9bbd                	andi	a5,a5,-17
ffffffc05030353e:	fef42623          	sw	a5,-20(s0)
ffffffc050303542:	fc442783          	lw	a5,-60(s0)
ffffffc050303546:	4007f793          	andi	a5,a5,1024
ffffffc05030354a:	2781                	sext.w	a5,a5
ffffffc05030354c:	c799                	beqz	a5,ffffffc05030355a <XEmacPs_ClearOptions+0xec>
ffffffc05030354e:	fec42783          	lw	a5,-20(s0)
ffffffc050303552:	0207e793          	ori	a5,a5,32
ffffffc050303556:	fef42623          	sw	a5,-20(s0)
ffffffc05030355a:	fc442703          	lw	a4,-60(s0)
ffffffc05030355e:	6785                	lui	a5,0x1
ffffffc050303560:	80078793          	addi	a5,a5,-2048 # 800 <_start-0xffffffc0502ff800>
ffffffc050303564:	8ff9                	and	a5,a5,a4
ffffffc050303566:	2781                	sext.w	a5,a5
ffffffc050303568:	c799                	beqz	a5,ffffffc050303576 <XEmacPs_ClearOptions+0x108>
ffffffc05030356a:	fec42783          	lw	a5,-20(s0)
ffffffc05030356e:	fbf7f793          	andi	a5,a5,-65
ffffffc050303572:	fef42623          	sw	a5,-20(s0)
ffffffc050303576:	fc442703          	lw	a4,-60(s0)
ffffffc05030357a:	6785                	lui	a5,0x1
ffffffc05030357c:	8ff9                	and	a5,a5,a4
ffffffc05030357e:	2781                	sext.w	a5,a5
ffffffc050303580:	cb89                	beqz	a5,ffffffc050303592 <XEmacPs_ClearOptions+0x124>
ffffffc050303582:	fec42703          	lw	a4,-20(s0)
ffffffc050303586:	ff0007b7          	lui	a5,0xff000
ffffffc05030358a:	17fd                	addi	a5,a5,-1
ffffffc05030358c:	8ff9                	and	a5,a5,a4
ffffffc05030358e:	fef42623          	sw	a5,-20(s0)
ffffffc050303592:	fc442703          	lw	a4,-60(s0)
ffffffc050303596:	6791                	lui	a5,0x4
ffffffc050303598:	8ff9                	and	a5,a5,a4
ffffffc05030359a:	2781                	sext.w	a5,a5
ffffffc05030359c:	cfd1                	beqz	a5,ffffffc050303638 <XEmacPs_ClearOptions+0x1ca>
ffffffc05030359e:	fc843783          	ld	a5,-56(s0)
ffffffc0503035a2:	1387a783          	lw	a5,312(a5) # 4138 <_start-0xffffffc0502fbec8>
ffffffc0503035a6:	873e                	mv	a4,a5
ffffffc0503035a8:	4789                	li	a5,2
ffffffc0503035aa:	08e7f763          	bgeu	a5,a4,ffffffc050303638 <XEmacPs_ClearOptions+0x1ca>
ffffffc0503035ae:	fec42783          	lw	a5,-20(s0)
ffffffc0503035b2:	9bdd                	andi	a5,a5,-9
ffffffc0503035b4:	fef42623          	sw	a5,-20(s0)
ffffffc0503035b8:	fc843783          	ld	a5,-56(s0)
ffffffc0503035bc:	679c                	ld	a5,8(a5)
ffffffc0503035be:	07c1                	addi	a5,a5,16
ffffffc0503035c0:	853e                	mv	a0,a5
ffffffc0503035c2:	aeeff0ef          	jal	ra,ffffffc0503028b0 <Xil_In32>
ffffffc0503035c6:	87aa                	mv	a5,a0
ffffffc0503035c8:	fcf42c23          	sw	a5,-40(s0)
ffffffc0503035cc:	fd842703          	lw	a4,-40(s0)
ffffffc0503035d0:	ff0107b7          	lui	a5,0xff010
ffffffc0503035d4:	17fd                	addi	a5,a5,-1
ffffffc0503035d6:	8ff9                	and	a5,a5,a4
ffffffc0503035d8:	fcf42c23          	sw	a5,-40(s0)
ffffffc0503035dc:	fd842703          	lw	a4,-40(s0)
ffffffc0503035e0:	001807b7          	lui	a5,0x180
ffffffc0503035e4:	8fd9                	or	a5,a5,a4
ffffffc0503035e6:	fcf42c23          	sw	a5,-40(s0)
ffffffc0503035ea:	fc843783          	ld	a5,-56(s0)
ffffffc0503035ee:	679c                	ld	a5,8(a5)
ffffffc0503035f0:	07c1                	addi	a5,a5,16
ffffffc0503035f2:	fd842703          	lw	a4,-40(s0)
ffffffc0503035f6:	85ba                	mv	a1,a4
ffffffc0503035f8:	853e                	mv	a0,a5
ffffffc0503035fa:	a8aff0ef          	jal	ra,ffffffc050302884 <Xil_Out32>
ffffffc0503035fe:	fc843783          	ld	a5,-56(s0)
ffffffc050303602:	5dc00713          	li	a4,1500
ffffffc050303606:	14e7a023          	sw	a4,320(a5) # 180140 <_start-0xffffffc05017fec0>
ffffffc05030360a:	fc843783          	ld	a5,-56(s0)
ffffffc05030360e:	5ee00713          	li	a4,1518
ffffffc050303612:	14e7a223          	sw	a4,324(a5)
ffffffc050303616:	fc843783          	ld	a5,-56(s0)
ffffffc05030361a:	1447a783          	lw	a5,324(a5)
ffffffc05030361e:	27c9                	addiw	a5,a5,18
ffffffc050303620:	0007871b          	sext.w	a4,a5
ffffffc050303624:	fc843783          	ld	a5,-56(s0)
ffffffc050303628:	14e7a423          	sw	a4,328(a5)
ffffffc05030362c:	fc843783          	ld	a5,-56(s0)
ffffffc050303630:	6709                	lui	a4,0x2
ffffffc050303632:	177d                	addi	a4,a4,-1
ffffffc050303634:	12e7ae23          	sw	a4,316(a5)
ffffffc050303638:	fc442703          	lw	a4,-60(s0)
ffffffc05030363c:	67a1                	lui	a5,0x8
ffffffc05030363e:	8ff9                	and	a5,a5,a4
ffffffc050303640:	2781                	sext.w	a5,a5
ffffffc050303642:	c395                	beqz	a5,ffffffc050303666 <XEmacPs_ClearOptions+0x1f8>
ffffffc050303644:	fc843783          	ld	a5,-56(s0)
ffffffc050303648:	1387a783          	lw	a5,312(a5) # 8138 <_start-0xffffffc0502f7ec8>
ffffffc05030364c:	873e                	mv	a4,a5
ffffffc05030364e:	4789                	li	a5,2
ffffffc050303650:	00e7fb63          	bgeu	a5,a4,ffffffc050303666 <XEmacPs_ClearOptions+0x1f8>
ffffffc050303654:	fec42703          	lw	a4,-20(s0)
ffffffc050303658:	f7fff7b7          	lui	a5,0xf7fff
ffffffc05030365c:	7ff78793          	addi	a5,a5,2047 # fffffffff7fff7ff <__BSS_END__+0x3fa7cb67cf>
ffffffc050303660:	8ff9                	and	a5,a5,a4
ffffffc050303662:	fef42623          	sw	a5,-20(s0)
ffffffc050303666:	fdc42703          	lw	a4,-36(s0)
ffffffc05030366a:	fec42783          	lw	a5,-20(s0)
ffffffc05030366e:	2701                	sext.w	a4,a4
ffffffc050303670:	2781                	sext.w	a5,a5
ffffffc050303672:	00f70c63          	beq	a4,a5,ffffffc05030368a <XEmacPs_ClearOptions+0x21c>
ffffffc050303676:	fc843783          	ld	a5,-56(s0)
ffffffc05030367a:	679c                	ld	a5,8(a5)
ffffffc05030367c:	0791                	addi	a5,a5,4
ffffffc05030367e:	fec42703          	lw	a4,-20(s0)
ffffffc050303682:	85ba                	mv	a1,a4
ffffffc050303684:	853e                	mv	a0,a5
ffffffc050303686:	9feff0ef          	jal	ra,ffffffc050302884 <Xil_Out32>
ffffffc05030368a:	fc442703          	lw	a4,-60(s0)
ffffffc05030368e:	6789                	lui	a5,0x2
ffffffc050303690:	8ff9                	and	a5,a5,a4
ffffffc050303692:	2781                	sext.w	a5,a5
ffffffc050303694:	cf8d                	beqz	a5,ffffffc0503036ce <XEmacPs_ClearOptions+0x260>
ffffffc050303696:	fc843783          	ld	a5,-56(s0)
ffffffc05030369a:	679c                	ld	a5,8(a5)
ffffffc05030369c:	07c1                	addi	a5,a5,16
ffffffc05030369e:	853e                	mv	a0,a5
ffffffc0503036a0:	a10ff0ef          	jal	ra,ffffffc0503028b0 <Xil_In32>
ffffffc0503036a4:	87aa                	mv	a5,a0
ffffffc0503036a6:	fcf42c23          	sw	a5,-40(s0)
ffffffc0503036aa:	fd842703          	lw	a4,-40(s0)
ffffffc0503036ae:	77fd                	lui	a5,0xfffff
ffffffc0503036b0:	7ff78793          	addi	a5,a5,2047 # fffffffffffff7ff <__BSS_END__+0x3fafcb67cf>
ffffffc0503036b4:	8ff9                	and	a5,a5,a4
ffffffc0503036b6:	fcf42c23          	sw	a5,-40(s0)
ffffffc0503036ba:	fc843783          	ld	a5,-56(s0)
ffffffc0503036be:	679c                	ld	a5,8(a5)
ffffffc0503036c0:	07c1                	addi	a5,a5,16
ffffffc0503036c2:	fd842703          	lw	a4,-40(s0)
ffffffc0503036c6:	85ba                	mv	a1,a4
ffffffc0503036c8:	853e                	mv	a0,a5
ffffffc0503036ca:	9baff0ef          	jal	ra,ffffffc050302884 <Xil_Out32>
ffffffc0503036ce:	fc442783          	lw	a5,-60(s0)
ffffffc0503036d2:	1007f793          	andi	a5,a5,256
ffffffc0503036d6:	2781                	sext.w	a5,a5
ffffffc0503036d8:	cb85                	beqz	a5,ffffffc050303708 <XEmacPs_ClearOptions+0x29a>
ffffffc0503036da:	fc843783          	ld	a5,-56(s0)
ffffffc0503036de:	679c                	ld	a5,8(a5)
ffffffc0503036e0:	853e                	mv	a0,a5
ffffffc0503036e2:	9ceff0ef          	jal	ra,ffffffc0503028b0 <Xil_In32>
ffffffc0503036e6:	87aa                	mv	a5,a0
ffffffc0503036e8:	fcf42c23          	sw	a5,-40(s0)
ffffffc0503036ec:	fd842783          	lw	a5,-40(s0)
ffffffc0503036f0:	9bdd                	andi	a5,a5,-9
ffffffc0503036f2:	fcf42c23          	sw	a5,-40(s0)
ffffffc0503036f6:	fc843783          	ld	a5,-56(s0)
ffffffc0503036fa:	679c                	ld	a5,8(a5)
ffffffc0503036fc:	fd842703          	lw	a4,-40(s0)
ffffffc050303700:	85ba                	mv	a1,a4
ffffffc050303702:	853e                	mv	a0,a5
ffffffc050303704:	980ff0ef          	jal	ra,ffffffc050302884 <Xil_Out32>
ffffffc050303708:	fc442783          	lw	a5,-60(s0)
ffffffc05030370c:	2007f793          	andi	a5,a5,512
ffffffc050303710:	2781                	sext.w	a5,a5
ffffffc050303712:	cb85                	beqz	a5,ffffffc050303742 <XEmacPs_ClearOptions+0x2d4>
ffffffc050303714:	fc843783          	ld	a5,-56(s0)
ffffffc050303718:	679c                	ld	a5,8(a5)
ffffffc05030371a:	853e                	mv	a0,a5
ffffffc05030371c:	994ff0ef          	jal	ra,ffffffc0503028b0 <Xil_In32>
ffffffc050303720:	87aa                	mv	a5,a0
ffffffc050303722:	fcf42c23          	sw	a5,-40(s0)
ffffffc050303726:	fd842783          	lw	a5,-40(s0)
ffffffc05030372a:	9bed                	andi	a5,a5,-5
ffffffc05030372c:	fcf42c23          	sw	a5,-40(s0)
ffffffc050303730:	fc843783          	ld	a5,-56(s0)
ffffffc050303734:	679c                	ld	a5,8(a5)
ffffffc050303736:	fd842703          	lw	a4,-40(s0)
ffffffc05030373a:	85ba                	mv	a1,a4
ffffffc05030373c:	853e                	mv	a0,a5
ffffffc05030373e:	946ff0ef          	jal	ra,ffffffc050302884 <Xil_Out32>
ffffffc050303742:	fc843783          	ld	a5,-56(s0)
ffffffc050303746:	5398                	lw	a4,32(a5)
ffffffc050303748:	fc442783          	lw	a5,-60(s0)
ffffffc05030374c:	fff7c793          	not	a5,a5
ffffffc050303750:	2781                	sext.w	a5,a5
ffffffc050303752:	8ff9                	and	a5,a5,a4
ffffffc050303754:	0007871b          	sext.w	a4,a5
ffffffc050303758:	fc843783          	ld	a5,-56(s0)
ffffffc05030375c:	d398                	sw	a4,32(a5)
ffffffc05030375e:	fe043023          	sd	zero,-32(s0)
ffffffc050303762:	fe043783          	ld	a5,-32(s0)
ffffffc050303766:	853e                	mv	a0,a5
ffffffc050303768:	70e2                	ld	ra,56(sp)
ffffffc05030376a:	7442                	ld	s0,48(sp)
ffffffc05030376c:	6121                	addi	sp,sp,64
ffffffc05030376e:	8082                	ret

ffffffc050303770 <XEmacPs_GetOptions>:
ffffffc050303770:	1101                	addi	sp,sp,-32
ffffffc050303772:	ec22                	sd	s0,24(sp)
ffffffc050303774:	1000                	addi	s0,sp,32
ffffffc050303776:	fea43423          	sd	a0,-24(s0)
ffffffc05030377a:	fe843783          	ld	a5,-24(s0)
ffffffc05030377e:	539c                	lw	a5,32(a5)
ffffffc050303780:	853e                	mv	a0,a5
ffffffc050303782:	6462                	ld	s0,24(sp)
ffffffc050303784:	6105                	addi	sp,sp,32
ffffffc050303786:	8082                	ret

ffffffc050303788 <XEmacPs_SendPausePacket>:
ffffffc050303788:	7179                	addi	sp,sp,-48
ffffffc05030378a:	f406                	sd	ra,40(sp)
ffffffc05030378c:	f022                	sd	s0,32(sp)
ffffffc05030378e:	1800                	addi	s0,sp,48
ffffffc050303790:	fca43c23          	sd	a0,-40(s0)
ffffffc050303794:	fd843783          	ld	a5,-40(s0)
ffffffc050303798:	4f9c                	lw	a5,24(a5)
ffffffc05030379a:	873e                	mv	a4,a5
ffffffc05030379c:	222227b7          	lui	a5,0x22222
ffffffc0503037a0:	22278793          	addi	a5,a5,546 # 22222222 <_start-0xffffffc02e0dddde>
ffffffc0503037a4:	00f70663          	beq	a4,a5,ffffffc0503037b0 <XEmacPs_SendPausePacket+0x28>
ffffffc0503037a8:	4799                	li	a5,6
ffffffc0503037aa:	fef43423          	sd	a5,-24(s0)
ffffffc0503037ae:	a82d                	j	ffffffc0503037e8 <XEmacPs_SendPausePacket+0x60>
ffffffc0503037b0:	fd843783          	ld	a5,-40(s0)
ffffffc0503037b4:	679c                	ld	a5,8(a5)
ffffffc0503037b6:	853e                	mv	a0,a5
ffffffc0503037b8:	8f8ff0ef          	jal	ra,ffffffc0503028b0 <Xil_In32>
ffffffc0503037bc:	87aa                	mv	a5,a0
ffffffc0503037be:	fef42223          	sw	a5,-28(s0)
ffffffc0503037c2:	fe442703          	lw	a4,-28(s0)
ffffffc0503037c6:	6785                	lui	a5,0x1
ffffffc0503037c8:	80078793          	addi	a5,a5,-2048 # 800 <_start-0xffffffc0502ff800>
ffffffc0503037cc:	8fd9                	or	a5,a5,a4
ffffffc0503037ce:	fef42223          	sw	a5,-28(s0)
ffffffc0503037d2:	fd843783          	ld	a5,-40(s0)
ffffffc0503037d6:	679c                	ld	a5,8(a5)
ffffffc0503037d8:	fe442703          	lw	a4,-28(s0)
ffffffc0503037dc:	85ba                	mv	a1,a4
ffffffc0503037de:	853e                	mv	a0,a5
ffffffc0503037e0:	8a4ff0ef          	jal	ra,ffffffc050302884 <Xil_Out32>
ffffffc0503037e4:	fe043423          	sd	zero,-24(s0)
ffffffc0503037e8:	fe843783          	ld	a5,-24(s0)
ffffffc0503037ec:	853e                	mv	a0,a5
ffffffc0503037ee:	70a2                	ld	ra,40(sp)
ffffffc0503037f0:	7402                	ld	s0,32(sp)
ffffffc0503037f2:	6145                	addi	sp,sp,48
ffffffc0503037f4:	8082                	ret

ffffffc0503037f6 <XEmacPs_GetOperatingSpeed>:
ffffffc0503037f6:	7179                	addi	sp,sp,-48
ffffffc0503037f8:	f406                	sd	ra,40(sp)
ffffffc0503037fa:	f022                	sd	s0,32(sp)
ffffffc0503037fc:	1800                	addi	s0,sp,48
ffffffc0503037fe:	fca43c23          	sd	a0,-40(s0)
ffffffc050303802:	fd843783          	ld	a5,-40(s0)
ffffffc050303806:	679c                	ld	a5,8(a5)
ffffffc050303808:	0791                	addi	a5,a5,4
ffffffc05030380a:	853e                	mv	a0,a5
ffffffc05030380c:	8a4ff0ef          	jal	ra,ffffffc0503028b0 <Xil_In32>
ffffffc050303810:	87aa                	mv	a5,a0
ffffffc050303812:	fef42423          	sw	a5,-24(s0)
ffffffc050303816:	fe842783          	lw	a5,-24(s0)
ffffffc05030381a:	4007f793          	andi	a5,a5,1024
ffffffc05030381e:	2781                	sext.w	a5,a5
ffffffc050303820:	c791                	beqz	a5,ffffffc05030382c <XEmacPs_GetOperatingSpeed+0x36>
ffffffc050303822:	3e800793          	li	a5,1000
ffffffc050303826:	fef41723          	sh	a5,-18(s0)
ffffffc05030382a:	a831                	j	ffffffc050303846 <XEmacPs_GetOperatingSpeed+0x50>
ffffffc05030382c:	fe842783          	lw	a5,-24(s0)
ffffffc050303830:	8b85                	andi	a5,a5,1
ffffffc050303832:	2781                	sext.w	a5,a5
ffffffc050303834:	c791                	beqz	a5,ffffffc050303840 <XEmacPs_GetOperatingSpeed+0x4a>
ffffffc050303836:	06400793          	li	a5,100
ffffffc05030383a:	fef41723          	sh	a5,-18(s0)
ffffffc05030383e:	a021                	j	ffffffc050303846 <XEmacPs_GetOperatingSpeed+0x50>
ffffffc050303840:	47a9                	li	a5,10
ffffffc050303842:	fef41723          	sh	a5,-18(s0)
ffffffc050303846:	fee45783          	lhu	a5,-18(s0)
ffffffc05030384a:	853e                	mv	a0,a5
ffffffc05030384c:	70a2                	ld	ra,40(sp)
ffffffc05030384e:	7402                	ld	s0,32(sp)
ffffffc050303850:	6145                	addi	sp,sp,48
ffffffc050303852:	8082                	ret

ffffffc050303854 <XEmacPs_SetOperatingSpeed>:
ffffffc050303854:	7179                	addi	sp,sp,-48
ffffffc050303856:	f406                	sd	ra,40(sp)
ffffffc050303858:	f022                	sd	s0,32(sp)
ffffffc05030385a:	1800                	addi	s0,sp,48
ffffffc05030385c:	fca43c23          	sd	a0,-40(s0)
ffffffc050303860:	87ae                	mv	a5,a1
ffffffc050303862:	fcf41b23          	sh	a5,-42(s0)
ffffffc050303866:	fd843783          	ld	a5,-40(s0)
ffffffc05030386a:	679c                	ld	a5,8(a5)
ffffffc05030386c:	0791                	addi	a5,a5,4
ffffffc05030386e:	853e                	mv	a0,a5
ffffffc050303870:	840ff0ef          	jal	ra,ffffffc0503028b0 <Xil_In32>
ffffffc050303874:	87aa                	mv	a5,a0
ffffffc050303876:	fef42623          	sw	a5,-20(s0)
ffffffc05030387a:	fec42783          	lw	a5,-20(s0)
ffffffc05030387e:	bfe7f793          	andi	a5,a5,-1026
ffffffc050303882:	fef42623          	sw	a5,-20(s0)
ffffffc050303886:	fd645783          	lhu	a5,-42(s0)
ffffffc05030388a:	2781                	sext.w	a5,a5
ffffffc05030388c:	86be                	mv	a3,a5
ffffffc05030388e:	3e800713          	li	a4,1000
ffffffc050303892:	02e68763          	beq	a3,a4,ffffffc0503038c0 <XEmacPs_SetOperatingSpeed+0x6c>
ffffffc050303896:	86be                	mv	a3,a5
ffffffc050303898:	3e800713          	li	a4,1000
ffffffc05030389c:	02d74a63          	blt	a4,a3,ffffffc0503038d0 <XEmacPs_SetOperatingSpeed+0x7c>
ffffffc0503038a0:	86be                	mv	a3,a5
ffffffc0503038a2:	4729                	li	a4,10
ffffffc0503038a4:	02e68563          	beq	a3,a4,ffffffc0503038ce <XEmacPs_SetOperatingSpeed+0x7a>
ffffffc0503038a8:	873e                	mv	a4,a5
ffffffc0503038aa:	06400793          	li	a5,100
ffffffc0503038ae:	02f71163          	bne	a4,a5,ffffffc0503038d0 <XEmacPs_SetOperatingSpeed+0x7c>
ffffffc0503038b2:	fec42783          	lw	a5,-20(s0)
ffffffc0503038b6:	0017e793          	ori	a5,a5,1
ffffffc0503038ba:	fef42623          	sw	a5,-20(s0)
ffffffc0503038be:	a809                	j	ffffffc0503038d0 <XEmacPs_SetOperatingSpeed+0x7c>
ffffffc0503038c0:	fec42783          	lw	a5,-20(s0)
ffffffc0503038c4:	4007e793          	ori	a5,a5,1024
ffffffc0503038c8:	fef42623          	sw	a5,-20(s0)
ffffffc0503038cc:	a011                	j	ffffffc0503038d0 <XEmacPs_SetOperatingSpeed+0x7c>
ffffffc0503038ce:	0001                	nop
ffffffc0503038d0:	fd843783          	ld	a5,-40(s0)
ffffffc0503038d4:	679c                	ld	a5,8(a5)
ffffffc0503038d6:	0791                	addi	a5,a5,4
ffffffc0503038d8:	fec42703          	lw	a4,-20(s0)
ffffffc0503038dc:	85ba                	mv	a1,a4
ffffffc0503038de:	853e                	mv	a0,a5
ffffffc0503038e0:	fa5fe0ef          	jal	ra,ffffffc050302884 <Xil_Out32>
ffffffc0503038e4:	0001                	nop
ffffffc0503038e6:	70a2                	ld	ra,40(sp)
ffffffc0503038e8:	7402                	ld	s0,32(sp)
ffffffc0503038ea:	6145                	addi	sp,sp,48
ffffffc0503038ec:	8082                	ret

ffffffc0503038ee <XEmacPs_SetMdioDivisor>:
ffffffc0503038ee:	7179                	addi	sp,sp,-48
ffffffc0503038f0:	f406                	sd	ra,40(sp)
ffffffc0503038f2:	f022                	sd	s0,32(sp)
ffffffc0503038f4:	1800                	addi	s0,sp,48
ffffffc0503038f6:	fca43c23          	sd	a0,-40(s0)
ffffffc0503038fa:	87ae                	mv	a5,a1
ffffffc0503038fc:	fcf42a23          	sw	a5,-44(s0)
ffffffc050303900:	fd843783          	ld	a5,-40(s0)
ffffffc050303904:	679c                	ld	a5,8(a5)
ffffffc050303906:	0791                	addi	a5,a5,4
ffffffc050303908:	853e                	mv	a0,a5
ffffffc05030390a:	fa7fe0ef          	jal	ra,ffffffc0503028b0 <Xil_In32>
ffffffc05030390e:	87aa                	mv	a5,a0
ffffffc050303910:	fef42623          	sw	a5,-20(s0)
ffffffc050303914:	fec42703          	lw	a4,-20(s0)
ffffffc050303918:	ffe407b7          	lui	a5,0xffe40
ffffffc05030391c:	17fd                	addi	a5,a5,-1
ffffffc05030391e:	8ff9                	and	a5,a5,a4
ffffffc050303920:	fef42623          	sw	a5,-20(s0)
ffffffc050303924:	fd442783          	lw	a5,-44(s0)
ffffffc050303928:	0127979b          	slliw	a5,a5,0x12
ffffffc05030392c:	0007871b          	sext.w	a4,a5
ffffffc050303930:	fec42783          	lw	a5,-20(s0)
ffffffc050303934:	8fd9                	or	a5,a5,a4
ffffffc050303936:	fef42623          	sw	a5,-20(s0)
ffffffc05030393a:	fd843783          	ld	a5,-40(s0)
ffffffc05030393e:	679c                	ld	a5,8(a5)
ffffffc050303940:	0791                	addi	a5,a5,4
ffffffc050303942:	fec42703          	lw	a4,-20(s0)
ffffffc050303946:	85ba                	mv	a1,a4
ffffffc050303948:	853e                	mv	a0,a5
ffffffc05030394a:	f3bfe0ef          	jal	ra,ffffffc050302884 <Xil_Out32>
ffffffc05030394e:	0001                	nop
ffffffc050303950:	70a2                	ld	ra,40(sp)
ffffffc050303952:	7402                	ld	s0,32(sp)
ffffffc050303954:	6145                	addi	sp,sp,48
ffffffc050303956:	8082                	ret

ffffffc050303958 <XEmacPs_PhyRead>:
ffffffc050303958:	715d                	addi	sp,sp,-80
ffffffc05030395a:	e486                	sd	ra,72(sp)
ffffffc05030395c:	e0a2                	sd	s0,64(sp)
ffffffc05030395e:	0880                	addi	s0,sp,80
ffffffc050303960:	fca43423          	sd	a0,-56(s0)
ffffffc050303964:	87ae                	mv	a5,a1
ffffffc050303966:	8732                	mv	a4,a2
ffffffc050303968:	fad43c23          	sd	a3,-72(s0)
ffffffc05030396c:	fcf42223          	sw	a5,-60(s0)
ffffffc050303970:	87ba                	mv	a5,a4
ffffffc050303972:	fcf42023          	sw	a5,-64(s0)
ffffffc050303976:	fc843783          	ld	a5,-56(s0)
ffffffc05030397a:	679c                	ld	a5,8(a5)
ffffffc05030397c:	07a1                	addi	a5,a5,8
ffffffc05030397e:	853e                	mv	a0,a5
ffffffc050303980:	f31fe0ef          	jal	ra,ffffffc0503028b0 <Xil_In32>
ffffffc050303984:	87aa                	mv	a5,a0
ffffffc050303986:	2781                	sext.w	a5,a5
ffffffc050303988:	8b91                	andi	a5,a5,4
ffffffc05030398a:	2781                	sext.w	a5,a5
ffffffc05030398c:	e791                	bnez	a5,ffffffc050303998 <XEmacPs_PhyRead+0x40>
ffffffc05030398e:	3ec00793          	li	a5,1004
ffffffc050303992:	fef43423          	sd	a5,-24(s0)
ffffffc050303996:	a071                	j	ffffffc050303a22 <XEmacPs_PhyRead+0xca>
ffffffc050303998:	fc442783          	lw	a5,-60(s0)
ffffffc05030399c:	0177979b          	slliw	a5,a5,0x17
ffffffc0503039a0:	0007871b          	sext.w	a4,a5
ffffffc0503039a4:	fc042783          	lw	a5,-64(s0)
ffffffc0503039a8:	0127979b          	slliw	a5,a5,0x12
ffffffc0503039ac:	2781                	sext.w	a5,a5
ffffffc0503039ae:	8fd9                	or	a5,a5,a4
ffffffc0503039b0:	2781                	sext.w	a5,a5
ffffffc0503039b2:	873e                	mv	a4,a5
ffffffc0503039b4:	600207b7          	lui	a5,0x60020
ffffffc0503039b8:	8fd9                	or	a5,a5,a4
ffffffc0503039ba:	fef42223          	sw	a5,-28(s0)
ffffffc0503039be:	fc843783          	ld	a5,-56(s0)
ffffffc0503039c2:	679c                	ld	a5,8(a5)
ffffffc0503039c4:	03478793          	addi	a5,a5,52 # 60020034 <_start-0xffffffbff02dffcc>
ffffffc0503039c8:	fe442703          	lw	a4,-28(s0)
ffffffc0503039cc:	85ba                	mv	a1,a4
ffffffc0503039ce:	853e                	mv	a0,a5
ffffffc0503039d0:	eb5fe0ef          	jal	ra,ffffffc050302884 <Xil_Out32>
ffffffc0503039d4:	fc843783          	ld	a5,-56(s0)
ffffffc0503039d8:	679c                	ld	a5,8(a5)
ffffffc0503039da:	07a1                	addi	a5,a5,8
ffffffc0503039dc:	853e                	mv	a0,a5
ffffffc0503039de:	ed3fe0ef          	jal	ra,ffffffc0503028b0 <Xil_In32>
ffffffc0503039e2:	87aa                	mv	a5,a0
ffffffc0503039e4:	2781                	sext.w	a5,a5
ffffffc0503039e6:	fcf42e23          	sw	a5,-36(s0)
ffffffc0503039ea:	fdc42783          	lw	a5,-36(s0)
ffffffc0503039ee:	fef42023          	sw	a5,-32(s0)
ffffffc0503039f2:	fe042783          	lw	a5,-32(s0)
ffffffc0503039f6:	8b91                	andi	a5,a5,4
ffffffc0503039f8:	2781                	sext.w	a5,a5
ffffffc0503039fa:	dfe9                	beqz	a5,ffffffc0503039d4 <XEmacPs_PhyRead+0x7c>
ffffffc0503039fc:	fc843783          	ld	a5,-56(s0)
ffffffc050303a00:	679c                	ld	a5,8(a5)
ffffffc050303a02:	03478793          	addi	a5,a5,52
ffffffc050303a06:	853e                	mv	a0,a5
ffffffc050303a08:	ea9fe0ef          	jal	ra,ffffffc0503028b0 <Xil_In32>
ffffffc050303a0c:	87aa                	mv	a5,a0
ffffffc050303a0e:	2781                	sext.w	a5,a5
ffffffc050303a10:	03079713          	slli	a4,a5,0x30
ffffffc050303a14:	9341                	srli	a4,a4,0x30
ffffffc050303a16:	fb843783          	ld	a5,-72(s0)
ffffffc050303a1a:	00e79023          	sh	a4,0(a5)
ffffffc050303a1e:	fe043423          	sd	zero,-24(s0)
ffffffc050303a22:	fe843783          	ld	a5,-24(s0)
ffffffc050303a26:	853e                	mv	a0,a5
ffffffc050303a28:	60a6                	ld	ra,72(sp)
ffffffc050303a2a:	6406                	ld	s0,64(sp)
ffffffc050303a2c:	6161                	addi	sp,sp,80
ffffffc050303a2e:	8082                	ret

ffffffc050303a30 <XEmacPs_PhyWrite>:
ffffffc050303a30:	715d                	addi	sp,sp,-80
ffffffc050303a32:	e486                	sd	ra,72(sp)
ffffffc050303a34:	e0a2                	sd	s0,64(sp)
ffffffc050303a36:	0880                	addi	s0,sp,80
ffffffc050303a38:	fca43423          	sd	a0,-56(s0)
ffffffc050303a3c:	87ae                	mv	a5,a1
ffffffc050303a3e:	8736                	mv	a4,a3
ffffffc050303a40:	fcf42223          	sw	a5,-60(s0)
ffffffc050303a44:	87b2                	mv	a5,a2
ffffffc050303a46:	fcf42023          	sw	a5,-64(s0)
ffffffc050303a4a:	87ba                	mv	a5,a4
ffffffc050303a4c:	faf41f23          	sh	a5,-66(s0)
ffffffc050303a50:	fc843783          	ld	a5,-56(s0)
ffffffc050303a54:	679c                	ld	a5,8(a5)
ffffffc050303a56:	07a1                	addi	a5,a5,8
ffffffc050303a58:	853e                	mv	a0,a5
ffffffc050303a5a:	e57fe0ef          	jal	ra,ffffffc0503028b0 <Xil_In32>
ffffffc050303a5e:	87aa                	mv	a5,a0
ffffffc050303a60:	2781                	sext.w	a5,a5
ffffffc050303a62:	8b91                	andi	a5,a5,4
ffffffc050303a64:	2781                	sext.w	a5,a5
ffffffc050303a66:	e791                	bnez	a5,ffffffc050303a72 <XEmacPs_PhyWrite+0x42>
ffffffc050303a68:	3ec00793          	li	a5,1004
ffffffc050303a6c:	fef43423          	sd	a5,-24(s0)
ffffffc050303a70:	a89d                	j	ffffffc050303ae6 <XEmacPs_PhyWrite+0xb6>
ffffffc050303a72:	fc442783          	lw	a5,-60(s0)
ffffffc050303a76:	0177979b          	slliw	a5,a5,0x17
ffffffc050303a7a:	0007871b          	sext.w	a4,a5
ffffffc050303a7e:	fc042783          	lw	a5,-64(s0)
ffffffc050303a82:	0127979b          	slliw	a5,a5,0x12
ffffffc050303a86:	2781                	sext.w	a5,a5
ffffffc050303a88:	8fd9                	or	a5,a5,a4
ffffffc050303a8a:	0007871b          	sext.w	a4,a5
ffffffc050303a8e:	fbe45783          	lhu	a5,-66(s0)
ffffffc050303a92:	2781                	sext.w	a5,a5
ffffffc050303a94:	8fd9                	or	a5,a5,a4
ffffffc050303a96:	2781                	sext.w	a5,a5
ffffffc050303a98:	873e                	mv	a4,a5
ffffffc050303a9a:	500207b7          	lui	a5,0x50020
ffffffc050303a9e:	8fd9                	or	a5,a5,a4
ffffffc050303aa0:	fef42223          	sw	a5,-28(s0)
ffffffc050303aa4:	fc843783          	ld	a5,-56(s0)
ffffffc050303aa8:	679c                	ld	a5,8(a5)
ffffffc050303aaa:	03478793          	addi	a5,a5,52 # 50020034 <_start-0xffffffc0002dffcc>
ffffffc050303aae:	fe442703          	lw	a4,-28(s0)
ffffffc050303ab2:	85ba                	mv	a1,a4
ffffffc050303ab4:	853e                	mv	a0,a5
ffffffc050303ab6:	dcffe0ef          	jal	ra,ffffffc050302884 <Xil_Out32>
ffffffc050303aba:	fc843783          	ld	a5,-56(s0)
ffffffc050303abe:	679c                	ld	a5,8(a5)
ffffffc050303ac0:	07a1                	addi	a5,a5,8
ffffffc050303ac2:	853e                	mv	a0,a5
ffffffc050303ac4:	dedfe0ef          	jal	ra,ffffffc0503028b0 <Xil_In32>
ffffffc050303ac8:	87aa                	mv	a5,a0
ffffffc050303aca:	2781                	sext.w	a5,a5
ffffffc050303acc:	fcf42e23          	sw	a5,-36(s0)
ffffffc050303ad0:	fdc42783          	lw	a5,-36(s0)
ffffffc050303ad4:	fef42023          	sw	a5,-32(s0)
ffffffc050303ad8:	fe042783          	lw	a5,-32(s0)
ffffffc050303adc:	8b91                	andi	a5,a5,4
ffffffc050303ade:	2781                	sext.w	a5,a5
ffffffc050303ae0:	dfe9                	beqz	a5,ffffffc050303aba <XEmacPs_PhyWrite+0x8a>
ffffffc050303ae2:	fe043423          	sd	zero,-24(s0)
ffffffc050303ae6:	fe843783          	ld	a5,-24(s0)
ffffffc050303aea:	853e                	mv	a0,a5
ffffffc050303aec:	60a6                	ld	ra,72(sp)
ffffffc050303aee:	6406                	ld	s0,64(sp)
ffffffc050303af0:	6161                	addi	sp,sp,80
ffffffc050303af2:	8082                	ret

ffffffc050303af4 <XEmacPs_DMABLengthUpdate>:
ffffffc050303af4:	7179                	addi	sp,sp,-48
ffffffc050303af6:	f406                	sd	ra,40(sp)
ffffffc050303af8:	f022                	sd	s0,32(sp)
ffffffc050303afa:	1800                	addi	s0,sp,48
ffffffc050303afc:	fca43c23          	sd	a0,-40(s0)
ffffffc050303b00:	87ae                	mv	a5,a1
ffffffc050303b02:	fcf42a23          	sw	a5,-44(s0)
ffffffc050303b06:	fe042623          	sw	zero,-20(s0)
ffffffc050303b0a:	fd442783          	lw	a5,-44(s0)
ffffffc050303b0e:	0007871b          	sext.w	a4,a5
ffffffc050303b12:	47c1                	li	a5,16
ffffffc050303b14:	06f70263          	beq	a4,a5,ffffffc050303b78 <XEmacPs_DMABLengthUpdate+0x84>
ffffffc050303b18:	fd442783          	lw	a5,-44(s0)
ffffffc050303b1c:	0007871b          	sext.w	a4,a5
ffffffc050303b20:	47c1                	li	a5,16
ffffffc050303b22:	04e7cf63          	blt	a5,a4,ffffffc050303b80 <XEmacPs_DMABLengthUpdate+0x8c>
ffffffc050303b26:	fd442783          	lw	a5,-44(s0)
ffffffc050303b2a:	0007871b          	sext.w	a4,a5
ffffffc050303b2e:	47a1                	li	a5,8
ffffffc050303b30:	04f70063          	beq	a4,a5,ffffffc050303b70 <XEmacPs_DMABLengthUpdate+0x7c>
ffffffc050303b34:	fd442783          	lw	a5,-44(s0)
ffffffc050303b38:	0007871b          	sext.w	a4,a5
ffffffc050303b3c:	47a1                	li	a5,8
ffffffc050303b3e:	04e7c163          	blt	a5,a4,ffffffc050303b80 <XEmacPs_DMABLengthUpdate+0x8c>
ffffffc050303b42:	fd442783          	lw	a5,-44(s0)
ffffffc050303b46:	0007871b          	sext.w	a4,a5
ffffffc050303b4a:	4785                	li	a5,1
ffffffc050303b4c:	00f70a63          	beq	a4,a5,ffffffc050303b60 <XEmacPs_DMABLengthUpdate+0x6c>
ffffffc050303b50:	fd442783          	lw	a5,-44(s0)
ffffffc050303b54:	0007871b          	sext.w	a4,a5
ffffffc050303b58:	4791                	li	a5,4
ffffffc050303b5a:	00f70763          	beq	a4,a5,ffffffc050303b68 <XEmacPs_DMABLengthUpdate+0x74>
ffffffc050303b5e:	a00d                	j	ffffffc050303b80 <XEmacPs_DMABLengthUpdate+0x8c>
ffffffc050303b60:	4785                	li	a5,1
ffffffc050303b62:	fef42623          	sw	a5,-20(s0)
ffffffc050303b66:	a829                	j	ffffffc050303b80 <XEmacPs_DMABLengthUpdate+0x8c>
ffffffc050303b68:	4791                	li	a5,4
ffffffc050303b6a:	fef42623          	sw	a5,-20(s0)
ffffffc050303b6e:	a809                	j	ffffffc050303b80 <XEmacPs_DMABLengthUpdate+0x8c>
ffffffc050303b70:	47a1                	li	a5,8
ffffffc050303b72:	fef42623          	sw	a5,-20(s0)
ffffffc050303b76:	a029                	j	ffffffc050303b80 <XEmacPs_DMABLengthUpdate+0x8c>
ffffffc050303b78:	47c1                	li	a5,16
ffffffc050303b7a:	fef42623          	sw	a5,-20(s0)
ffffffc050303b7e:	0001                	nop
ffffffc050303b80:	fd843783          	ld	a5,-40(s0)
ffffffc050303b84:	679c                	ld	a5,8(a5)
ffffffc050303b86:	07c1                	addi	a5,a5,16
ffffffc050303b88:	853e                	mv	a0,a5
ffffffc050303b8a:	d27fe0ef          	jal	ra,ffffffc0503028b0 <Xil_In32>
ffffffc050303b8e:	87aa                	mv	a5,a0
ffffffc050303b90:	fef42423          	sw	a5,-24(s0)
ffffffc050303b94:	fe842783          	lw	a5,-24(s0)
ffffffc050303b98:	9b81                	andi	a5,a5,-32
ffffffc050303b9a:	fef42423          	sw	a5,-24(s0)
ffffffc050303b9e:	fe842703          	lw	a4,-24(s0)
ffffffc050303ba2:	fec42783          	lw	a5,-20(s0)
ffffffc050303ba6:	8fd9                	or	a5,a5,a4
ffffffc050303ba8:	fef42423          	sw	a5,-24(s0)
ffffffc050303bac:	fd843783          	ld	a5,-40(s0)
ffffffc050303bb0:	679c                	ld	a5,8(a5)
ffffffc050303bb2:	07c1                	addi	a5,a5,16
ffffffc050303bb4:	fe842703          	lw	a4,-24(s0)
ffffffc050303bb8:	85ba                	mv	a1,a4
ffffffc050303bba:	853e                	mv	a0,a5
ffffffc050303bbc:	cc9fe0ef          	jal	ra,ffffffc050302884 <Xil_Out32>
ffffffc050303bc0:	0001                	nop
ffffffc050303bc2:	70a2                	ld	ra,40(sp)
ffffffc050303bc4:	7402                	ld	s0,32(sp)
ffffffc050303bc6:	6145                	addi	sp,sp,48
ffffffc050303bc8:	8082                	ret

ffffffc050303bca <writel>:
ffffffc050303bca:	1101                	addi	sp,sp,-32
ffffffc050303bcc:	ec22                	sd	s0,24(sp)
ffffffc050303bce:	1000                	addi	s0,sp,32
ffffffc050303bd0:	87aa                	mv	a5,a0
ffffffc050303bd2:	feb43023          	sd	a1,-32(s0)
ffffffc050303bd6:	fef42623          	sw	a5,-20(s0)
ffffffc050303bda:	0550000f          	fence	ow,ow
ffffffc050303bde:	fe043783          	ld	a5,-32(s0)
ffffffc050303be2:	fec42703          	lw	a4,-20(s0)
ffffffc050303be6:	c398                	sw	a4,0(a5)
ffffffc050303be8:	0001                	nop
ffffffc050303bea:	6462                	ld	s0,24(sp)
ffffffc050303bec:	6105                	addi	sp,sp,32
ffffffc050303bee:	8082                	ret

ffffffc050303bf0 <readl>:
ffffffc050303bf0:	7179                	addi	sp,sp,-48
ffffffc050303bf2:	f422                	sd	s0,40(sp)
ffffffc050303bf4:	1800                	addi	s0,sp,48
ffffffc050303bf6:	fca43c23          	sd	a0,-40(s0)
ffffffc050303bfa:	fd843783          	ld	a5,-40(s0)
ffffffc050303bfe:	439c                	lw	a5,0(a5)
ffffffc050303c00:	fef42623          	sw	a5,-20(s0)
ffffffc050303c04:	0aa0000f          	fence	ir,ir
ffffffc050303c08:	fec42783          	lw	a5,-20(s0)
ffffffc050303c0c:	853e                	mv	a0,a5
ffffffc050303c0e:	7422                	ld	s0,40(sp)
ffffffc050303c10:	6145                	addi	sp,sp,48
ffffffc050303c12:	8082                	ret

ffffffc050303c14 <Xil_Out32>:
ffffffc050303c14:	1101                	addi	sp,sp,-32
ffffffc050303c16:	ec06                	sd	ra,24(sp)
ffffffc050303c18:	e822                	sd	s0,16(sp)
ffffffc050303c1a:	1000                	addi	s0,sp,32
ffffffc050303c1c:	fea43423          	sd	a0,-24(s0)
ffffffc050303c20:	87ae                	mv	a5,a1
ffffffc050303c22:	fef42223          	sw	a5,-28(s0)
ffffffc050303c26:	fe843703          	ld	a4,-24(s0)
ffffffc050303c2a:	fe442783          	lw	a5,-28(s0)
ffffffc050303c2e:	85ba                	mv	a1,a4
ffffffc050303c30:	853e                	mv	a0,a5
ffffffc050303c32:	f99ff0ef          	jal	ra,ffffffc050303bca <writel>
ffffffc050303c36:	0001                	nop
ffffffc050303c38:	60e2                	ld	ra,24(sp)
ffffffc050303c3a:	6442                	ld	s0,16(sp)
ffffffc050303c3c:	6105                	addi	sp,sp,32
ffffffc050303c3e:	8082                	ret

ffffffc050303c40 <Xil_In32>:
ffffffc050303c40:	1101                	addi	sp,sp,-32
ffffffc050303c42:	ec06                	sd	ra,24(sp)
ffffffc050303c44:	e822                	sd	s0,16(sp)
ffffffc050303c46:	1000                	addi	s0,sp,32
ffffffc050303c48:	fea43423          	sd	a0,-24(s0)
ffffffc050303c4c:	fe843783          	ld	a5,-24(s0)
ffffffc050303c50:	853e                	mv	a0,a5
ffffffc050303c52:	f9fff0ef          	jal	ra,ffffffc050303bf0 <readl>
ffffffc050303c56:	87aa                	mv	a5,a0
ffffffc050303c58:	2781                	sext.w	a5,a5
ffffffc050303c5a:	853e                	mv	a0,a5
ffffffc050303c5c:	60e2                	ld	ra,24(sp)
ffffffc050303c5e:	6442                	ld	s0,16(sp)
ffffffc050303c60:	6105                	addi	sp,sp,32
ffffffc050303c62:	8082                	ret

ffffffc050303c64 <Xil_EndianSwap16>:
ffffffc050303c64:	1101                	addi	sp,sp,-32
ffffffc050303c66:	ec22                	sd	s0,24(sp)
ffffffc050303c68:	1000                	addi	s0,sp,32
ffffffc050303c6a:	87aa                	mv	a5,a0
ffffffc050303c6c:	fef41723          	sh	a5,-18(s0)
ffffffc050303c70:	fee45783          	lhu	a5,-18(s0)
ffffffc050303c74:	0087971b          	slliw	a4,a5,0x8
ffffffc050303c78:	0107979b          	slliw	a5,a5,0x10
ffffffc050303c7c:	0107d79b          	srliw	a5,a5,0x10
ffffffc050303c80:	0087d79b          	srliw	a5,a5,0x8
ffffffc050303c84:	8fd9                	or	a5,a5,a4
ffffffc050303c86:	17c2                	slli	a5,a5,0x30
ffffffc050303c88:	93c1                	srli	a5,a5,0x30
ffffffc050303c8a:	853e                	mv	a0,a5
ffffffc050303c8c:	6462                	ld	s0,24(sp)
ffffffc050303c8e:	6105                	addi	sp,sp,32
ffffffc050303c90:	8082                	ret

ffffffc050303c92 <EmacPsUtilFrameHdrFormatMAC>:
ffffffc050303c92:	7139                	addi	sp,sp,-64
ffffffc050303c94:	fc22                	sd	s0,56(sp)
ffffffc050303c96:	0080                	addi	s0,sp,64
ffffffc050303c98:	fca43423          	sd	a0,-56(s0)
ffffffc050303c9c:	fcb43023          	sd	a1,-64(s0)
ffffffc050303ca0:	fc843783          	ld	a5,-56(s0)
ffffffc050303ca4:	fef43423          	sd	a5,-24(s0)
ffffffc050303ca8:	00034797          	auipc	a5,0x34
ffffffc050303cac:	85078793          	addi	a5,a5,-1968 # ffffffc0503374f8 <EmacPsMAC>
ffffffc050303cb0:	fef43023          	sd	a5,-32(s0)
ffffffc050303cb4:	fc042e23          	sw	zero,-36(s0)
ffffffc050303cb8:	a035                	j	ffffffc050303ce4 <EmacPsUtilFrameHdrFormatMAC+0x52>
ffffffc050303cba:	fc043703          	ld	a4,-64(s0)
ffffffc050303cbe:	00170793          	addi	a5,a4,1 # 2001 <_start-0xffffffc0502fdfff>
ffffffc050303cc2:	fcf43023          	sd	a5,-64(s0)
ffffffc050303cc6:	fe843783          	ld	a5,-24(s0)
ffffffc050303cca:	00178693          	addi	a3,a5,1
ffffffc050303cce:	fed43423          	sd	a3,-24(s0)
ffffffc050303cd2:	00074703          	lbu	a4,0(a4)
ffffffc050303cd6:	00e78023          	sb	a4,0(a5)
ffffffc050303cda:	fdc42783          	lw	a5,-36(s0)
ffffffc050303cde:	2785                	addiw	a5,a5,1
ffffffc050303ce0:	fcf42e23          	sw	a5,-36(s0)
ffffffc050303ce4:	fdc42783          	lw	a5,-36(s0)
ffffffc050303ce8:	873e                	mv	a4,a5
ffffffc050303cea:	4795                	li	a5,5
ffffffc050303cec:	fce7f7e3          	bgeu	a5,a4,ffffffc050303cba <EmacPsUtilFrameHdrFormatMAC+0x28>
ffffffc050303cf0:	fc042e23          	sw	zero,-36(s0)
ffffffc050303cf4:	a035                	j	ffffffc050303d20 <EmacPsUtilFrameHdrFormatMAC+0x8e>
ffffffc050303cf6:	fe043703          	ld	a4,-32(s0)
ffffffc050303cfa:	00170793          	addi	a5,a4,1
ffffffc050303cfe:	fef43023          	sd	a5,-32(s0)
ffffffc050303d02:	fe843783          	ld	a5,-24(s0)
ffffffc050303d06:	00178693          	addi	a3,a5,1
ffffffc050303d0a:	fed43423          	sd	a3,-24(s0)
ffffffc050303d0e:	00074703          	lbu	a4,0(a4)
ffffffc050303d12:	00e78023          	sb	a4,0(a5)
ffffffc050303d16:	fdc42783          	lw	a5,-36(s0)
ffffffc050303d1a:	2785                	addiw	a5,a5,1
ffffffc050303d1c:	fcf42e23          	sw	a5,-36(s0)
ffffffc050303d20:	fdc42783          	lw	a5,-36(s0)
ffffffc050303d24:	873e                	mv	a4,a5
ffffffc050303d26:	4795                	li	a5,5
ffffffc050303d28:	fce7f7e3          	bgeu	a5,a4,ffffffc050303cf6 <EmacPsUtilFrameHdrFormatMAC+0x64>
ffffffc050303d2c:	0001                	nop
ffffffc050303d2e:	0001                	nop
ffffffc050303d30:	7462                	ld	s0,56(sp)
ffffffc050303d32:	6121                	addi	sp,sp,64
ffffffc050303d34:	8082                	ret

ffffffc050303d36 <EmacPsUtilFrameHdrFormatType>:
ffffffc050303d36:	7179                	addi	sp,sp,-48
ffffffc050303d38:	f406                	sd	ra,40(sp)
ffffffc050303d3a:	f022                	sd	s0,32(sp)
ffffffc050303d3c:	1800                	addi	s0,sp,48
ffffffc050303d3e:	fca43c23          	sd	a0,-40(s0)
ffffffc050303d42:	87ae                	mv	a5,a1
ffffffc050303d44:	fcf41b23          	sh	a5,-42(s0)
ffffffc050303d48:	fd843783          	ld	a5,-40(s0)
ffffffc050303d4c:	fef43423          	sd	a5,-24(s0)
ffffffc050303d50:	fe843783          	ld	a5,-24(s0)
ffffffc050303d54:	07b1                	addi	a5,a5,12
ffffffc050303d56:	fef43423          	sd	a5,-24(s0)
ffffffc050303d5a:	fd645783          	lhu	a5,-42(s0)
ffffffc050303d5e:	853e                	mv	a0,a5
ffffffc050303d60:	f05ff0ef          	jal	ra,ffffffc050303c64 <Xil_EndianSwap16>
ffffffc050303d64:	87aa                	mv	a5,a0
ffffffc050303d66:	fcf41b23          	sh	a5,-42(s0)
ffffffc050303d6a:	fe843783          	ld	a5,-24(s0)
ffffffc050303d6e:	fd645703          	lhu	a4,-42(s0)
ffffffc050303d72:	00e79023          	sh	a4,0(a5)
ffffffc050303d76:	0001                	nop
ffffffc050303d78:	70a2                	ld	ra,40(sp)
ffffffc050303d7a:	7402                	ld	s0,32(sp)
ffffffc050303d7c:	6145                	addi	sp,sp,48
ffffffc050303d7e:	8082                	ret

ffffffc050303d80 <EmacPsUtilFrameSetPayloadData>:
ffffffc050303d80:	7139                	addi	sp,sp,-64
ffffffc050303d82:	fc22                	sd	s0,56(sp)
ffffffc050303d84:	0080                	addi	s0,sp,64
ffffffc050303d86:	fca43423          	sd	a0,-56(s0)
ffffffc050303d8a:	87ae                	mv	a5,a1
ffffffc050303d8c:	fcf42223          	sw	a5,-60(s0)
ffffffc050303d90:	fc442783          	lw	a5,-60(s0)
ffffffc050303d94:	fef42623          	sw	a5,-20(s0)
ffffffc050303d98:	fc041f23          	sh	zero,-34(s0)
ffffffc050303d9c:	fc843783          	ld	a5,-56(s0)
ffffffc050303da0:	07b9                	addi	a5,a5,14
ffffffc050303da2:	fef43023          	sd	a5,-32(s0)
ffffffc050303da6:	a035                	j	ffffffc050303dd2 <EmacPsUtilFrameSetPayloadData+0x52>
ffffffc050303da8:	fde45703          	lhu	a4,-34(s0)
ffffffc050303dac:	0017079b          	addiw	a5,a4,1
ffffffc050303db0:	fcf41f23          	sh	a5,-34(s0)
ffffffc050303db4:	fe043783          	ld	a5,-32(s0)
ffffffc050303db8:	00178693          	addi	a3,a5,1
ffffffc050303dbc:	fed43023          	sd	a3,-32(s0)
ffffffc050303dc0:	0ff77713          	andi	a4,a4,255
ffffffc050303dc4:	00e78023          	sb	a4,0(a5)
ffffffc050303dc8:	fec42783          	lw	a5,-20(s0)
ffffffc050303dcc:	37fd                	addiw	a5,a5,-1
ffffffc050303dce:	fef42623          	sw	a5,-20(s0)
ffffffc050303dd2:	fec42783          	lw	a5,-20(s0)
ffffffc050303dd6:	2781                	sext.w	a5,a5
ffffffc050303dd8:	cbad                	beqz	a5,ffffffc050303e4a <EmacPsUtilFrameSetPayloadData+0xca>
ffffffc050303dda:	fde45783          	lhu	a5,-34(s0)
ffffffc050303dde:	0007871b          	sext.w	a4,a5
ffffffc050303de2:	0ff00793          	li	a5,255
ffffffc050303de6:	fce7f1e3          	bgeu	a5,a4,ffffffc050303da8 <EmacPsUtilFrameSetPayloadData+0x28>
ffffffc050303dea:	a085                	j	ffffffc050303e4a <EmacPsUtilFrameSetPayloadData+0xca>
ffffffc050303dec:	fde45783          	lhu	a5,-34(s0)
ffffffc050303df0:	0087d79b          	srliw	a5,a5,0x8
ffffffc050303df4:	03079693          	slli	a3,a5,0x30
ffffffc050303df8:	92c1                	srli	a3,a3,0x30
ffffffc050303dfa:	fe043783          	ld	a5,-32(s0)
ffffffc050303dfe:	00178713          	addi	a4,a5,1
ffffffc050303e02:	fee43023          	sd	a4,-32(s0)
ffffffc050303e06:	0ff6f713          	andi	a4,a3,255
ffffffc050303e0a:	00e78023          	sb	a4,0(a5)
ffffffc050303e0e:	fec42783          	lw	a5,-20(s0)
ffffffc050303e12:	37fd                	addiw	a5,a5,-1
ffffffc050303e14:	fef42623          	sw	a5,-20(s0)
ffffffc050303e18:	fec42783          	lw	a5,-20(s0)
ffffffc050303e1c:	2781                	sext.w	a5,a5
ffffffc050303e1e:	cb9d                	beqz	a5,ffffffc050303e54 <EmacPsUtilFrameSetPayloadData+0xd4>
ffffffc050303e20:	fde45703          	lhu	a4,-34(s0)
ffffffc050303e24:	0017079b          	addiw	a5,a4,1
ffffffc050303e28:	fcf41f23          	sh	a5,-34(s0)
ffffffc050303e2c:	fe043783          	ld	a5,-32(s0)
ffffffc050303e30:	00178693          	addi	a3,a5,1
ffffffc050303e34:	fed43023          	sd	a3,-32(s0)
ffffffc050303e38:	0ff77713          	andi	a4,a4,255
ffffffc050303e3c:	00e78023          	sb	a4,0(a5)
ffffffc050303e40:	fec42783          	lw	a5,-20(s0)
ffffffc050303e44:	37fd                	addiw	a5,a5,-1
ffffffc050303e46:	fef42623          	sw	a5,-20(s0)
ffffffc050303e4a:	fec42783          	lw	a5,-20(s0)
ffffffc050303e4e:	2781                	sext.w	a5,a5
ffffffc050303e50:	ffd1                	bnez	a5,ffffffc050303dec <EmacPsUtilFrameSetPayloadData+0x6c>
ffffffc050303e52:	a011                	j	ffffffc050303e56 <EmacPsUtilFrameSetPayloadData+0xd6>
ffffffc050303e54:	0001                	nop
ffffffc050303e56:	0001                	nop
ffffffc050303e58:	7462                	ld	s0,56(sp)
ffffffc050303e5a:	6121                	addi	sp,sp,64
ffffffc050303e5c:	8082                	ret

ffffffc050303e5e <EmacPsUtilFrameVerify>:
ffffffc050303e5e:	7139                	addi	sp,sp,-64
ffffffc050303e60:	fc06                	sd	ra,56(sp)
ffffffc050303e62:	f822                	sd	s0,48(sp)
ffffffc050303e64:	0080                	addi	s0,sp,64
ffffffc050303e66:	fca43423          	sd	a0,-56(s0)
ffffffc050303e6a:	fcb43023          	sd	a1,-64(s0)
ffffffc050303e6e:	fc843783          	ld	a5,-56(s0)
ffffffc050303e72:	fcf43c23          	sd	a5,-40(s0)
ffffffc050303e76:	fc043783          	ld	a5,-64(s0)
ffffffc050303e7a:	fef43423          	sd	a5,-24(s0)
ffffffc050303e7e:	fe843783          	ld	a5,-24(s0)
ffffffc050303e82:	00c7d783          	lhu	a5,12(a5)
ffffffc050303e86:	fef41323          	sh	a5,-26(s0)
ffffffc050303e8a:	fe645783          	lhu	a5,-26(s0)
ffffffc050303e8e:	853e                	mv	a0,a5
ffffffc050303e90:	dd5ff0ef          	jal	ra,ffffffc050303c64 <Xil_EndianSwap16>
ffffffc050303e94:	87aa                	mv	a5,a0
ffffffc050303e96:	fef41323          	sh	a5,-26(s0)
ffffffc050303e9a:	fe041223          	sh	zero,-28(s0)
ffffffc050303e9e:	fe843783          	ld	a5,-24(s0)
ffffffc050303ea2:	07b9                	addi	a5,a5,14
ffffffc050303ea4:	fef43423          	sd	a5,-24(s0)
ffffffc050303ea8:	a81d                	j	ffffffc050303ede <EmacPsUtilFrameVerify+0x80>
ffffffc050303eaa:	fe843783          	ld	a5,-24(s0)
ffffffc050303eae:	00178713          	addi	a4,a5,1
ffffffc050303eb2:	fee43423          	sd	a4,-24(s0)
ffffffc050303eb6:	0007c683          	lbu	a3,0(a5)
ffffffc050303eba:	fe445783          	lhu	a5,-28(s0)
ffffffc050303ebe:	0017871b          	addiw	a4,a5,1
ffffffc050303ec2:	fee41223          	sh	a4,-28(s0)
ffffffc050303ec6:	0ff7f793          	andi	a5,a5,255
ffffffc050303eca:	8736                	mv	a4,a3
ffffffc050303ecc:	00f70463          	beq	a4,a5,ffffffc050303ed4 <EmacPsUtilFrameVerify+0x76>
ffffffc050303ed0:	4785                	li	a5,1
ffffffc050303ed2:	a04d                	j	ffffffc050303f74 <EmacPsUtilFrameVerify+0x116>
ffffffc050303ed4:	fe645783          	lhu	a5,-26(s0)
ffffffc050303ed8:	37fd                	addiw	a5,a5,-1
ffffffc050303eda:	fef41323          	sh	a5,-26(s0)
ffffffc050303ede:	fe645783          	lhu	a5,-26(s0)
ffffffc050303ee2:	2781                	sext.w	a5,a5
ffffffc050303ee4:	c3c9                	beqz	a5,ffffffc050303f66 <EmacPsUtilFrameVerify+0x108>
ffffffc050303ee6:	fe445783          	lhu	a5,-28(s0)
ffffffc050303eea:	0007871b          	sext.w	a4,a5
ffffffc050303eee:	0ff00793          	li	a5,255
ffffffc050303ef2:	fae7fce3          	bgeu	a5,a4,ffffffc050303eaa <EmacPsUtilFrameVerify+0x4c>
ffffffc050303ef6:	a885                	j	ffffffc050303f66 <EmacPsUtilFrameVerify+0x108>
ffffffc050303ef8:	fe843783          	ld	a5,-24(s0)
ffffffc050303efc:	00178713          	addi	a4,a5,1
ffffffc050303f00:	fee43423          	sd	a4,-24(s0)
ffffffc050303f04:	0007c703          	lbu	a4,0(a5)
ffffffc050303f08:	fe445783          	lhu	a5,-28(s0)
ffffffc050303f0c:	0087d79b          	srliw	a5,a5,0x8
ffffffc050303f10:	17c2                	slli	a5,a5,0x30
ffffffc050303f12:	93c1                	srli	a5,a5,0x30
ffffffc050303f14:	0ff7f793          	andi	a5,a5,255
ffffffc050303f18:	00f70463          	beq	a4,a5,ffffffc050303f20 <EmacPsUtilFrameVerify+0xc2>
ffffffc050303f1c:	4785                	li	a5,1
ffffffc050303f1e:	a899                	j	ffffffc050303f74 <EmacPsUtilFrameVerify+0x116>
ffffffc050303f20:	fe645783          	lhu	a5,-26(s0)
ffffffc050303f24:	37fd                	addiw	a5,a5,-1
ffffffc050303f26:	fef41323          	sh	a5,-26(s0)
ffffffc050303f2a:	fe645783          	lhu	a5,-26(s0)
ffffffc050303f2e:	2781                	sext.w	a5,a5
ffffffc050303f30:	c3a1                	beqz	a5,ffffffc050303f70 <EmacPsUtilFrameVerify+0x112>
ffffffc050303f32:	fe843783          	ld	a5,-24(s0)
ffffffc050303f36:	00178713          	addi	a4,a5,1
ffffffc050303f3a:	fee43423          	sd	a4,-24(s0)
ffffffc050303f3e:	0007c683          	lbu	a3,0(a5)
ffffffc050303f42:	fe445783          	lhu	a5,-28(s0)
ffffffc050303f46:	0017871b          	addiw	a4,a5,1
ffffffc050303f4a:	fee41223          	sh	a4,-28(s0)
ffffffc050303f4e:	0ff7f793          	andi	a5,a5,255
ffffffc050303f52:	8736                	mv	a4,a3
ffffffc050303f54:	00f70463          	beq	a4,a5,ffffffc050303f5c <EmacPsUtilFrameVerify+0xfe>
ffffffc050303f58:	4785                	li	a5,1
ffffffc050303f5a:	a829                	j	ffffffc050303f74 <EmacPsUtilFrameVerify+0x116>
ffffffc050303f5c:	fe645783          	lhu	a5,-26(s0)
ffffffc050303f60:	37fd                	addiw	a5,a5,-1
ffffffc050303f62:	fef41323          	sh	a5,-26(s0)
ffffffc050303f66:	fe645783          	lhu	a5,-26(s0)
ffffffc050303f6a:	2781                	sext.w	a5,a5
ffffffc050303f6c:	f7d1                	bnez	a5,ffffffc050303ef8 <EmacPsUtilFrameVerify+0x9a>
ffffffc050303f6e:	a011                	j	ffffffc050303f72 <EmacPsUtilFrameVerify+0x114>
ffffffc050303f70:	0001                	nop
ffffffc050303f72:	4781                	li	a5,0
ffffffc050303f74:	853e                	mv	a0,a5
ffffffc050303f76:	70e2                	ld	ra,56(sp)
ffffffc050303f78:	7442                	ld	s0,48(sp)
ffffffc050303f7a:	6121                	addi	sp,sp,64
ffffffc050303f7c:	8082                	ret

ffffffc050303f7e <EmacPsUtilFrameMemClear>:
ffffffc050303f7e:	7179                	addi	sp,sp,-48
ffffffc050303f80:	f422                	sd	s0,40(sp)
ffffffc050303f82:	1800                	addi	s0,sp,48
ffffffc050303f84:	fca43c23          	sd	a0,-40(s0)
ffffffc050303f88:	fd843783          	ld	a5,-40(s0)
ffffffc050303f8c:	fef43423          	sd	a5,-24(s0)
ffffffc050303f90:	18000793          	li	a5,384
ffffffc050303f94:	fef42223          	sw	a5,-28(s0)
ffffffc050303f98:	a821                	j	ffffffc050303fb0 <EmacPsUtilFrameMemClear+0x32>
ffffffc050303f9a:	fe843783          	ld	a5,-24(s0)
ffffffc050303f9e:	00478713          	addi	a4,a5,4
ffffffc050303fa2:	fee43423          	sd	a4,-24(s0)
ffffffc050303fa6:	deadc737          	lui	a4,0xdeadc
ffffffc050303faa:	eef70713          	addi	a4,a4,-273 # ffffffffdeadbeef <__BSS_END__+0x3f8e792ebf>
ffffffc050303fae:	c398                	sw	a4,0(a5)
ffffffc050303fb0:	fe442783          	lw	a5,-28(s0)
ffffffc050303fb4:	fff7871b          	addiw	a4,a5,-1
ffffffc050303fb8:	fee42223          	sw	a4,-28(s0)
ffffffc050303fbc:	fff9                	bnez	a5,ffffffc050303f9a <EmacPsUtilFrameMemClear+0x1c>
ffffffc050303fbe:	0001                	nop
ffffffc050303fc0:	0001                	nop
ffffffc050303fc2:	7422                	ld	s0,40(sp)
ffffffc050303fc4:	6145                	addi	sp,sp,48
ffffffc050303fc6:	8082                	ret

ffffffc050303fc8 <EmacPsUtilstrncpy>:
ffffffc050303fc8:	7179                	addi	sp,sp,-48
ffffffc050303fca:	f422                	sd	s0,40(sp)
ffffffc050303fcc:	1800                	addi	s0,sp,48
ffffffc050303fce:	fea43423          	sd	a0,-24(s0)
ffffffc050303fd2:	feb43023          	sd	a1,-32(s0)
ffffffc050303fd6:	87b2                	mv	a5,a2
ffffffc050303fd8:	fcf42e23          	sw	a5,-36(s0)
ffffffc050303fdc:	fe043703          	ld	a4,-32(s0)
ffffffc050303fe0:	00170793          	addi	a5,a4,1
ffffffc050303fe4:	fef43023          	sd	a5,-32(s0)
ffffffc050303fe8:	fe843783          	ld	a5,-24(s0)
ffffffc050303fec:	00178693          	addi	a3,a5,1
ffffffc050303ff0:	fed43423          	sd	a3,-24(s0)
ffffffc050303ff4:	00074703          	lbu	a4,0(a4)
ffffffc050303ff8:	00e78023          	sb	a4,0(a5)
ffffffc050303ffc:	fdc42783          	lw	a5,-36(s0)
ffffffc050304000:	37fd                	addiw	a5,a5,-1
ffffffc050304002:	fcf42e23          	sw	a5,-36(s0)
ffffffc050304006:	fdc42783          	lw	a5,-36(s0)
ffffffc05030400a:	2781                	sext.w	a5,a5
ffffffc05030400c:	fbe1                	bnez	a5,ffffffc050303fdc <EmacPsUtilstrncpy+0x14>
ffffffc05030400e:	0001                	nop
ffffffc050304010:	0001                	nop
ffffffc050304012:	7422                	ld	s0,40(sp)
ffffffc050304014:	6145                	addi	sp,sp,48
ffffffc050304016:	8082                	ret

ffffffc050304018 <EmacPsUtilEnterLocalLoopback>:
ffffffc050304018:	7179                	addi	sp,sp,-48
ffffffc05030401a:	f406                	sd	ra,40(sp)
ffffffc05030401c:	f022                	sd	s0,32(sp)
ffffffc05030401e:	1800                	addi	s0,sp,48
ffffffc050304020:	fca43c23          	sd	a0,-40(s0)
ffffffc050304024:	fd843783          	ld	a5,-40(s0)
ffffffc050304028:	679c                	ld	a5,8(a5)
ffffffc05030402a:	853e                	mv	a0,a5
ffffffc05030402c:	c15ff0ef          	jal	ra,ffffffc050303c40 <Xil_In32>
ffffffc050304030:	87aa                	mv	a5,a0
ffffffc050304032:	fef42623          	sw	a5,-20(s0)
ffffffc050304036:	fd843783          	ld	a5,-40(s0)
ffffffc05030403a:	6798                	ld	a4,8(a5)
ffffffc05030403c:	fec42783          	lw	a5,-20(s0)
ffffffc050304040:	0027e793          	ori	a5,a5,2
ffffffc050304044:	2781                	sext.w	a5,a5
ffffffc050304046:	85be                	mv	a1,a5
ffffffc050304048:	853a                	mv	a0,a4
ffffffc05030404a:	bcbff0ef          	jal	ra,ffffffc050303c14 <Xil_Out32>
ffffffc05030404e:	0001                	nop
ffffffc050304050:	70a2                	ld	ra,40(sp)
ffffffc050304052:	7402                	ld	s0,32(sp)
ffffffc050304054:	6145                	addi	sp,sp,48
ffffffc050304056:	8082                	ret

ffffffc050304058 <XEmacPsDetectPHY>:
ffffffc050304058:	7179                	addi	sp,sp,-48
ffffffc05030405a:	f406                	sd	ra,40(sp)
ffffffc05030405c:	f022                	sd	s0,32(sp)
ffffffc05030405e:	1800                	addi	s0,sp,48
ffffffc050304060:	fca43c23          	sd	a0,-40(s0)
ffffffc050304064:	fe042623          	sw	zero,-20(s0)
ffffffc050304068:	a069                	j	ffffffc0503040f2 <XEmacPsDetectPHY+0x9a>
ffffffc05030406a:	fe640713          	addi	a4,s0,-26
ffffffc05030406e:	fec42783          	lw	a5,-20(s0)
ffffffc050304072:	86ba                	mv	a3,a4
ffffffc050304074:	4609                	li	a2,2
ffffffc050304076:	85be                	mv	a1,a5
ffffffc050304078:	fd843503          	ld	a0,-40(s0)
ffffffc05030407c:	8ddff0ef          	jal	ra,ffffffc050303958 <XEmacPs_PhyRead>
ffffffc050304080:	87aa                	mv	a5,a0
ffffffc050304082:	fef42423          	sw	a5,-24(s0)
ffffffc050304086:	fe440713          	addi	a4,s0,-28
ffffffc05030408a:	fec42783          	lw	a5,-20(s0)
ffffffc05030408e:	86ba                	mv	a3,a4
ffffffc050304090:	460d                	li	a2,3
ffffffc050304092:	85be                	mv	a1,a5
ffffffc050304094:	fd843503          	ld	a0,-40(s0)
ffffffc050304098:	8c1ff0ef          	jal	ra,ffffffc050303958 <XEmacPs_PhyRead>
ffffffc05030409c:	87aa                	mv	a5,a0
ffffffc05030409e:	0007871b          	sext.w	a4,a5
ffffffc0503040a2:	fe842783          	lw	a5,-24(s0)
ffffffc0503040a6:	8fd9                	or	a5,a5,a4
ffffffc0503040a8:	2781                	sext.w	a5,a5
ffffffc0503040aa:	fef42423          	sw	a5,-24(s0)
ffffffc0503040ae:	fe842783          	lw	a5,-24(s0)
ffffffc0503040b2:	2781                	sext.w	a5,a5
ffffffc0503040b4:	eb95                	bnez	a5,ffffffc0503040e8 <XEmacPsDetectPHY+0x90>
ffffffc0503040b6:	fe645783          	lhu	a5,-26(s0)
ffffffc0503040ba:	c79d                	beqz	a5,ffffffc0503040e8 <XEmacPsDetectPHY+0x90>
ffffffc0503040bc:	fe645783          	lhu	a5,-26(s0)
ffffffc0503040c0:	0007871b          	sext.w	a4,a5
ffffffc0503040c4:	67c1                	lui	a5,0x10
ffffffc0503040c6:	17fd                	addi	a5,a5,-1
ffffffc0503040c8:	02f70063          	beq	a4,a5,ffffffc0503040e8 <XEmacPsDetectPHY+0x90>
ffffffc0503040cc:	fe445783          	lhu	a5,-28(s0)
ffffffc0503040d0:	cf81                	beqz	a5,ffffffc0503040e8 <XEmacPsDetectPHY+0x90>
ffffffc0503040d2:	fe445783          	lhu	a5,-28(s0)
ffffffc0503040d6:	0007871b          	sext.w	a4,a5
ffffffc0503040da:	67c1                	lui	a5,0x10
ffffffc0503040dc:	17fd                	addi	a5,a5,-1
ffffffc0503040de:	00f70563          	beq	a4,a5,ffffffc0503040e8 <XEmacPsDetectPHY+0x90>
ffffffc0503040e2:	fec42783          	lw	a5,-20(s0)
ffffffc0503040e6:	a839                	j	ffffffc050304104 <XEmacPsDetectPHY+0xac>
ffffffc0503040e8:	fec42783          	lw	a5,-20(s0)
ffffffc0503040ec:	2785                	addiw	a5,a5,1
ffffffc0503040ee:	fef42623          	sw	a5,-20(s0)
ffffffc0503040f2:	fec42783          	lw	a5,-20(s0)
ffffffc0503040f6:	0007871b          	sext.w	a4,a5
ffffffc0503040fa:	47fd                	li	a5,31
ffffffc0503040fc:	f6e7f7e3          	bgeu	a5,a4,ffffffc05030406a <XEmacPsDetectPHY+0x12>
ffffffc050304100:	fec42783          	lw	a5,-20(s0)
ffffffc050304104:	853e                	mv	a0,a5
ffffffc050304106:	70a2                	ld	ra,40(sp)
ffffffc050304108:	7402                	ld	s0,32(sp)
ffffffc05030410a:	6145                	addi	sp,sp,48
ffffffc05030410c:	8082                	ret

ffffffc05030410e <EmacPsUtilMarvellPhyLoopback>:
ffffffc05030410e:	7139                	addi	sp,sp,-64
ffffffc050304110:	fc06                	sd	ra,56(sp)
ffffffc050304112:	f822                	sd	s0,48(sp)
ffffffc050304114:	0080                	addi	s0,sp,64
ffffffc050304116:	fca43423          	sd	a0,-56(s0)
ffffffc05030411a:	87ae                	mv	a5,a1
ffffffc05030411c:	8732                	mv	a4,a2
ffffffc05030411e:	fcf42223          	sw	a5,-60(s0)
ffffffc050304122:	87ba                	mv	a5,a4
ffffffc050304124:	fcf42023          	sw	a5,-64(s0)
ffffffc050304128:	fc041f23          	sh	zero,-34(s0)
ffffffc05030412c:	fc041e23          	sh	zero,-36(s0)
ffffffc050304130:	fe041723          	sh	zero,-18(s0)
ffffffc050304134:	fc442783          	lw	a5,-60(s0)
ffffffc050304138:	0007871b          	sext.w	a4,a5
ffffffc05030413c:	3e800793          	li	a5,1000
ffffffc050304140:	08f70063          	beq	a4,a5,ffffffc0503041c0 <EmacPsUtilMarvellPhyLoopback+0xb2>
ffffffc050304144:	fc442783          	lw	a5,-60(s0)
ffffffc050304148:	0007871b          	sext.w	a4,a5
ffffffc05030414c:	3e800793          	li	a5,1000
ffffffc050304150:	08e7e963          	bltu	a5,a4,ffffffc0503041e2 <EmacPsUtilMarvellPhyLoopback+0xd4>
ffffffc050304154:	fc442783          	lw	a5,-60(s0)
ffffffc050304158:	0007871b          	sext.w	a4,a5
ffffffc05030415c:	47a9                	li	a5,10
ffffffc05030415e:	00f70b63          	beq	a4,a5,ffffffc050304174 <EmacPsUtilMarvellPhyLoopback+0x66>
ffffffc050304162:	fc442783          	lw	a5,-60(s0)
ffffffc050304166:	0007871b          	sext.w	a4,a5
ffffffc05030416a:	06400793          	li	a5,100
ffffffc05030416e:	02f70463          	beq	a4,a5,ffffffc050304196 <EmacPsUtilMarvellPhyLoopback+0x88>
ffffffc050304172:	a885                	j	ffffffc0503041e2 <EmacPsUtilMarvellPhyLoopback+0xd4>
ffffffc050304174:	fde45783          	lhu	a5,-34(s0)
ffffffc050304178:	1007e793          	ori	a5,a5,256
ffffffc05030417c:	17c2                	slli	a5,a5,0x30
ffffffc05030417e:	93c1                	srli	a5,a5,0x30
ffffffc050304180:	fcf41f23          	sh	a5,-34(s0)
ffffffc050304184:	fdc45783          	lhu	a5,-36(s0)
ffffffc050304188:	0307e793          	ori	a5,a5,48
ffffffc05030418c:	17c2                	slli	a5,a5,0x30
ffffffc05030418e:	93c1                	srli	a5,a5,0x30
ffffffc050304190:	fcf41e23          	sh	a5,-36(s0)
ffffffc050304194:	a8b9                	j	ffffffc0503041f2 <EmacPsUtilMarvellPhyLoopback+0xe4>
ffffffc050304196:	fde45703          	lhu	a4,-34(s0)
ffffffc05030419a:	6789                	lui	a5,0x2
ffffffc05030419c:	10078793          	addi	a5,a5,256 # 2100 <_start-0xffffffc0502fdf00>
ffffffc0503041a0:	8fd9                	or	a5,a5,a4
ffffffc0503041a2:	17c2                	slli	a5,a5,0x30
ffffffc0503041a4:	93c1                	srli	a5,a5,0x30
ffffffc0503041a6:	fcf41f23          	sh	a5,-34(s0)
ffffffc0503041aa:	fdc45703          	lhu	a4,-36(s0)
ffffffc0503041ae:	6789                	lui	a5,0x2
ffffffc0503041b0:	03078793          	addi	a5,a5,48 # 2030 <_start-0xffffffc0502fdfd0>
ffffffc0503041b4:	8fd9                	or	a5,a5,a4
ffffffc0503041b6:	17c2                	slli	a5,a5,0x30
ffffffc0503041b8:	93c1                	srli	a5,a5,0x30
ffffffc0503041ba:	fcf41e23          	sh	a5,-36(s0)
ffffffc0503041be:	a815                	j	ffffffc0503041f2 <EmacPsUtilMarvellPhyLoopback+0xe4>
ffffffc0503041c0:	fde45783          	lhu	a5,-34(s0)
ffffffc0503041c4:	1407e793          	ori	a5,a5,320
ffffffc0503041c8:	17c2                	slli	a5,a5,0x30
ffffffc0503041ca:	93c1                	srli	a5,a5,0x30
ffffffc0503041cc:	fcf41f23          	sh	a5,-34(s0)
ffffffc0503041d0:	fdc45783          	lhu	a5,-36(s0)
ffffffc0503041d4:	0707e793          	ori	a5,a5,112
ffffffc0503041d8:	17c2                	slli	a5,a5,0x30
ffffffc0503041da:	93c1                	srli	a5,a5,0x30
ffffffc0503041dc:	fcf41e23          	sh	a5,-36(s0)
ffffffc0503041e0:	a809                	j	ffffffc0503041f2 <EmacPsUtilMarvellPhyLoopback+0xe4>
ffffffc0503041e2:	00007517          	auipc	a0,0x7
ffffffc0503041e6:	0ce50513          	addi	a0,a0,206 # ffffffc05030b2b0 <__FUNCTION__.1991+0x50>
ffffffc0503041ea:	79b000ef          	jal	ra,ffffffc050305184 <EmacPsUtilErrorTrap>
ffffffc0503041ee:	4785                	li	a5,1
ffffffc0503041f0:	a26d                	j	ffffffc05030439a <EmacPsUtilMarvellPhyLoopback+0x28c>
ffffffc0503041f2:	fde45703          	lhu	a4,-34(s0)
ffffffc0503041f6:	fc042783          	lw	a5,-64(s0)
ffffffc0503041fa:	86ba                	mv	a3,a4
ffffffc0503041fc:	4601                	li	a2,0
ffffffc0503041fe:	85be                	mv	a1,a5
ffffffc050304200:	fc843503          	ld	a0,-56(s0)
ffffffc050304204:	82dff0ef          	jal	ra,ffffffc050303a30 <XEmacPs_PhyWrite>
ffffffc050304208:	fea43023          	sd	a0,-32(s0)
ffffffc05030420c:	fde40713          	addi	a4,s0,-34
ffffffc050304210:	fc042783          	lw	a5,-64(s0)
ffffffc050304214:	86ba                	mv	a3,a4
ffffffc050304216:	4601                	li	a2,0
ffffffc050304218:	85be                	mv	a1,a5
ffffffc05030421a:	fc843503          	ld	a0,-56(s0)
ffffffc05030421e:	f3aff0ef          	jal	ra,ffffffc050303958 <XEmacPs_PhyRead>
ffffffc050304222:	fea43023          	sd	a0,-32(s0)
ffffffc050304226:	fe043783          	ld	a5,-32(s0)
ffffffc05030422a:	cb89                	beqz	a5,ffffffc05030423c <EmacPsUtilMarvellPhyLoopback+0x12e>
ffffffc05030422c:	00007517          	auipc	a0,0x7
ffffffc050304230:	0a450513          	addi	a0,a0,164 # ffffffc05030b2d0 <__FUNCTION__.1991+0x70>
ffffffc050304234:	751000ef          	jal	ra,ffffffc050305184 <EmacPsUtilErrorTrap>
ffffffc050304238:	4785                	li	a5,1
ffffffc05030423a:	a285                	j	ffffffc05030439a <EmacPsUtilMarvellPhyLoopback+0x28c>
ffffffc05030423c:	4789                	li	a5,2
ffffffc05030423e:	fef41723          	sh	a5,-18(s0)
ffffffc050304242:	fee45703          	lhu	a4,-18(s0)
ffffffc050304246:	fc042783          	lw	a5,-64(s0)
ffffffc05030424a:	86ba                	mv	a3,a4
ffffffc05030424c:	4659                	li	a2,22
ffffffc05030424e:	85be                	mv	a1,a5
ffffffc050304250:	fc843503          	ld	a0,-56(s0)
ffffffc050304254:	fdcff0ef          	jal	ra,ffffffc050303a30 <XEmacPs_PhyWrite>
ffffffc050304258:	fea43023          	sd	a0,-32(s0)
ffffffc05030425c:	fdc45703          	lhu	a4,-36(s0)
ffffffc050304260:	fc042783          	lw	a5,-64(s0)
ffffffc050304264:	86ba                	mv	a3,a4
ffffffc050304266:	4655                	li	a2,21
ffffffc050304268:	85be                	mv	a1,a5
ffffffc05030426a:	fc843503          	ld	a0,-56(s0)
ffffffc05030426e:	fc2ff0ef          	jal	ra,ffffffc050303a30 <XEmacPs_PhyWrite>
ffffffc050304272:	fea43023          	sd	a0,-32(s0)
ffffffc050304276:	fdc40713          	addi	a4,s0,-36
ffffffc05030427a:	fc042783          	lw	a5,-64(s0)
ffffffc05030427e:	86ba                	mv	a3,a4
ffffffc050304280:	4655                	li	a2,21
ffffffc050304282:	85be                	mv	a1,a5
ffffffc050304284:	fc843503          	ld	a0,-56(s0)
ffffffc050304288:	ed0ff0ef          	jal	ra,ffffffc050303958 <XEmacPs_PhyRead>
ffffffc05030428c:	fea43023          	sd	a0,-32(s0)
ffffffc050304290:	fe043783          	ld	a5,-32(s0)
ffffffc050304294:	cb89                	beqz	a5,ffffffc0503042a6 <EmacPsUtilMarvellPhyLoopback+0x198>
ffffffc050304296:	00007517          	auipc	a0,0x7
ffffffc05030429a:	05250513          	addi	a0,a0,82 # ffffffc05030b2e8 <__FUNCTION__.1991+0x88>
ffffffc05030429e:	6e7000ef          	jal	ra,ffffffc050305184 <EmacPsUtilErrorTrap>
ffffffc0503042a2:	4785                	li	a5,1
ffffffc0503042a4:	a8dd                	j	ffffffc05030439a <EmacPsUtilMarvellPhyLoopback+0x28c>
ffffffc0503042a6:	fe041723          	sh	zero,-18(s0)
ffffffc0503042aa:	fee45703          	lhu	a4,-18(s0)
ffffffc0503042ae:	fc042783          	lw	a5,-64(s0)
ffffffc0503042b2:	86ba                	mv	a3,a4
ffffffc0503042b4:	4659                	li	a2,22
ffffffc0503042b6:	85be                	mv	a1,a5
ffffffc0503042b8:	fc843503          	ld	a0,-56(s0)
ffffffc0503042bc:	f74ff0ef          	jal	ra,ffffffc050303a30 <XEmacPs_PhyWrite>
ffffffc0503042c0:	fea43023          	sd	a0,-32(s0)
ffffffc0503042c4:	fde40713          	addi	a4,s0,-34
ffffffc0503042c8:	fc042783          	lw	a5,-64(s0)
ffffffc0503042cc:	86ba                	mv	a3,a4
ffffffc0503042ce:	4601                	li	a2,0
ffffffc0503042d0:	85be                	mv	a1,a5
ffffffc0503042d2:	fc843503          	ld	a0,-56(s0)
ffffffc0503042d6:	e82ff0ef          	jal	ra,ffffffc050303958 <XEmacPs_PhyRead>
ffffffc0503042da:	fea43023          	sd	a0,-32(s0)
ffffffc0503042de:	fde45703          	lhu	a4,-34(s0)
ffffffc0503042e2:	77e1                	lui	a5,0xffff8
ffffffc0503042e4:	8fd9                	or	a5,a5,a4
ffffffc0503042e6:	17c2                	slli	a5,a5,0x30
ffffffc0503042e8:	93c1                	srli	a5,a5,0x30
ffffffc0503042ea:	fcf41f23          	sh	a5,-34(s0)
ffffffc0503042ee:	fde45703          	lhu	a4,-34(s0)
ffffffc0503042f2:	fc042783          	lw	a5,-64(s0)
ffffffc0503042f6:	86ba                	mv	a3,a4
ffffffc0503042f8:	4601                	li	a2,0
ffffffc0503042fa:	85be                	mv	a1,a5
ffffffc0503042fc:	fc843503          	ld	a0,-56(s0)
ffffffc050304300:	f30ff0ef          	jal	ra,ffffffc050303a30 <XEmacPs_PhyWrite>
ffffffc050304304:	fea43023          	sd	a0,-32(s0)
ffffffc050304308:	fde40713          	addi	a4,s0,-34
ffffffc05030430c:	fc042783          	lw	a5,-64(s0)
ffffffc050304310:	86ba                	mv	a3,a4
ffffffc050304312:	4601                	li	a2,0
ffffffc050304314:	85be                	mv	a1,a5
ffffffc050304316:	fc843503          	ld	a0,-56(s0)
ffffffc05030431a:	e3eff0ef          	jal	ra,ffffffc050303958 <XEmacPs_PhyRead>
ffffffc05030431e:	fea43023          	sd	a0,-32(s0)
ffffffc050304322:	fe043783          	ld	a5,-32(s0)
ffffffc050304326:	cb89                	beqz	a5,ffffffc050304338 <EmacPsUtilMarvellPhyLoopback+0x22a>
ffffffc050304328:	00007517          	auipc	a0,0x7
ffffffc05030432c:	fe050513          	addi	a0,a0,-32 # ffffffc05030b308 <__FUNCTION__.1991+0xa8>
ffffffc050304330:	655000ef          	jal	ra,ffffffc050305184 <EmacPsUtilErrorTrap>
ffffffc050304334:	4785                	li	a5,1
ffffffc050304336:	a095                	j	ffffffc05030439a <EmacPsUtilMarvellPhyLoopback+0x28c>
ffffffc050304338:	fde45703          	lhu	a4,-34(s0)
ffffffc05030433c:	6791                	lui	a5,0x4
ffffffc05030433e:	8fd9                	or	a5,a5,a4
ffffffc050304340:	17c2                	slli	a5,a5,0x30
ffffffc050304342:	93c1                	srli	a5,a5,0x30
ffffffc050304344:	fcf41f23          	sh	a5,-34(s0)
ffffffc050304348:	fde45703          	lhu	a4,-34(s0)
ffffffc05030434c:	fc042783          	lw	a5,-64(s0)
ffffffc050304350:	86ba                	mv	a3,a4
ffffffc050304352:	4601                	li	a2,0
ffffffc050304354:	85be                	mv	a1,a5
ffffffc050304356:	fc843503          	ld	a0,-56(s0)
ffffffc05030435a:	ed6ff0ef          	jal	ra,ffffffc050303a30 <XEmacPs_PhyWrite>
ffffffc05030435e:	fea43023          	sd	a0,-32(s0)
ffffffc050304362:	fde40713          	addi	a4,s0,-34
ffffffc050304366:	fc042783          	lw	a5,-64(s0)
ffffffc05030436a:	86ba                	mv	a3,a4
ffffffc05030436c:	4601                	li	a2,0
ffffffc05030436e:	85be                	mv	a1,a5
ffffffc050304370:	fc843503          	ld	a0,-56(s0)
ffffffc050304374:	de4ff0ef          	jal	ra,ffffffc050303958 <XEmacPs_PhyRead>
ffffffc050304378:	fea43023          	sd	a0,-32(s0)
ffffffc05030437c:	fe043783          	ld	a5,-32(s0)
ffffffc050304380:	cb89                	beqz	a5,ffffffc050304392 <EmacPsUtilMarvellPhyLoopback+0x284>
ffffffc050304382:	00007517          	auipc	a0,0x7
ffffffc050304386:	f9650513          	addi	a0,a0,-106 # ffffffc05030b318 <__FUNCTION__.1991+0xb8>
ffffffc05030438a:	5fb000ef          	jal	ra,ffffffc050305184 <EmacPsUtilErrorTrap>
ffffffc05030438e:	4785                	li	a5,1
ffffffc050304390:	a029                	j	ffffffc05030439a <EmacPsUtilMarvellPhyLoopback+0x28c>
ffffffc050304392:	4505                	li	a0,1
ffffffc050304394:	491000ef          	jal	ra,ffffffc050305024 <EmacpsDelay>
ffffffc050304398:	4781                	li	a5,0
ffffffc05030439a:	853e                	mv	a0,a5
ffffffc05030439c:	70e2                	ld	ra,56(sp)
ffffffc05030439e:	7442                	ld	s0,48(sp)
ffffffc0503043a0:	6121                	addi	sp,sp,64
ffffffc0503043a2:	8082                	ret

ffffffc0503043a4 <EmacPsUtilTiPhyLoopback>:
ffffffc0503043a4:	7139                	addi	sp,sp,-64
ffffffc0503043a6:	fc06                	sd	ra,56(sp)
ffffffc0503043a8:	f822                	sd	s0,48(sp)
ffffffc0503043aa:	0080                	addi	s0,sp,64
ffffffc0503043ac:	fca43423          	sd	a0,-56(s0)
ffffffc0503043b0:	87ae                	mv	a5,a1
ffffffc0503043b2:	8732                	mv	a4,a2
ffffffc0503043b4:	fcf42223          	sw	a5,-60(s0)
ffffffc0503043b8:	87ba                	mv	a5,a4
ffffffc0503043ba:	fcf42023          	sw	a5,-64(s0)
ffffffc0503043be:	fc041f23          	sh	zero,-34(s0)
ffffffc0503043c2:	fe041623          	sh	zero,-20(s0)
ffffffc0503043c6:	0a800793          	li	a5,168
ffffffc0503043ca:	fef41723          	sh	a5,-18(s0)
ffffffc0503043ce:	fc442783          	lw	a5,-60(s0)
ffffffc0503043d2:	0007871b          	sext.w	a4,a5
ffffffc0503043d6:	3e800793          	li	a5,1000
ffffffc0503043da:	04f70e63          	beq	a4,a5,ffffffc050304436 <EmacPsUtilTiPhyLoopback+0x92>
ffffffc0503043de:	fc442783          	lw	a5,-60(s0)
ffffffc0503043e2:	0007871b          	sext.w	a4,a5
ffffffc0503043e6:	3e800793          	li	a5,1000
ffffffc0503043ea:	04e7ef63          	bltu	a5,a4,ffffffc050304448 <EmacPsUtilTiPhyLoopback+0xa4>
ffffffc0503043ee:	fc442783          	lw	a5,-60(s0)
ffffffc0503043f2:	0007871b          	sext.w	a4,a5
ffffffc0503043f6:	47a9                	li	a5,10
ffffffc0503043f8:	00f70b63          	beq	a4,a5,ffffffc05030440e <EmacPsUtilTiPhyLoopback+0x6a>
ffffffc0503043fc:	fc442783          	lw	a5,-60(s0)
ffffffc050304400:	0007871b          	sext.w	a4,a5
ffffffc050304404:	06400793          	li	a5,100
ffffffc050304408:	00f70c63          	beq	a4,a5,ffffffc050304420 <EmacPsUtilTiPhyLoopback+0x7c>
ffffffc05030440c:	a835                	j	ffffffc050304448 <EmacPsUtilTiPhyLoopback+0xa4>
ffffffc05030440e:	fde45783          	lhu	a5,-34(s0)
ffffffc050304412:	1007e793          	ori	a5,a5,256
ffffffc050304416:	17c2                	slli	a5,a5,0x30
ffffffc050304418:	93c1                	srli	a5,a5,0x30
ffffffc05030441a:	fcf41f23          	sh	a5,-34(s0)
ffffffc05030441e:	a82d                	j	ffffffc050304458 <EmacPsUtilTiPhyLoopback+0xb4>
ffffffc050304420:	fde45703          	lhu	a4,-34(s0)
ffffffc050304424:	6789                	lui	a5,0x2
ffffffc050304426:	10078793          	addi	a5,a5,256 # 2100 <_start-0xffffffc0502fdf00>
ffffffc05030442a:	8fd9                	or	a5,a5,a4
ffffffc05030442c:	17c2                	slli	a5,a5,0x30
ffffffc05030442e:	93c1                	srli	a5,a5,0x30
ffffffc050304430:	fcf41f23          	sh	a5,-34(s0)
ffffffc050304434:	a015                	j	ffffffc050304458 <EmacPsUtilTiPhyLoopback+0xb4>
ffffffc050304436:	fde45783          	lhu	a5,-34(s0)
ffffffc05030443a:	1407e793          	ori	a5,a5,320
ffffffc05030443e:	17c2                	slli	a5,a5,0x30
ffffffc050304440:	93c1                	srli	a5,a5,0x30
ffffffc050304442:	fcf41f23          	sh	a5,-34(s0)
ffffffc050304446:	a809                	j	ffffffc050304458 <EmacPsUtilTiPhyLoopback+0xb4>
ffffffc050304448:	00007517          	auipc	a0,0x7
ffffffc05030444c:	e6850513          	addi	a0,a0,-408 # ffffffc05030b2b0 <__FUNCTION__.1991+0x50>
ffffffc050304450:	535000ef          	jal	ra,ffffffc050305184 <EmacPsUtilErrorTrap>
ffffffc050304454:	4785                	li	a5,1
ffffffc050304456:	a9e9                	j	ffffffc050304930 <EmacPsUtilTiPhyLoopback+0x58c>
ffffffc050304458:	fde45783          	lhu	a5,-34(s0)
ffffffc05030445c:	fef41623          	sh	a5,-20(s0)
ffffffc050304460:	fde45703          	lhu	a4,-34(s0)
ffffffc050304464:	fc042783          	lw	a5,-64(s0)
ffffffc050304468:	86ba                	mv	a3,a4
ffffffc05030446a:	4601                	li	a2,0
ffffffc05030446c:	85be                	mv	a1,a5
ffffffc05030446e:	fc843503          	ld	a0,-56(s0)
ffffffc050304472:	dbeff0ef          	jal	ra,ffffffc050303a30 <XEmacPs_PhyWrite>
ffffffc050304476:	fea43023          	sd	a0,-32(s0)
ffffffc05030447a:	fde40713          	addi	a4,s0,-34
ffffffc05030447e:	fc042783          	lw	a5,-64(s0)
ffffffc050304482:	86ba                	mv	a3,a4
ffffffc050304484:	4601                	li	a2,0
ffffffc050304486:	85be                	mv	a1,a5
ffffffc050304488:	fc843503          	ld	a0,-56(s0)
ffffffc05030448c:	cccff0ef          	jal	ra,ffffffc050303958 <XEmacPs_PhyRead>
ffffffc050304490:	fea43023          	sd	a0,-32(s0)
ffffffc050304494:	fe043783          	ld	a5,-32(s0)
ffffffc050304498:	cb89                	beqz	a5,ffffffc0503044aa <EmacPsUtilTiPhyLoopback+0x106>
ffffffc05030449a:	00007517          	auipc	a0,0x7
ffffffc05030449e:	e3650513          	addi	a0,a0,-458 # ffffffc05030b2d0 <__FUNCTION__.1991+0x70>
ffffffc0503044a2:	4e3000ef          	jal	ra,ffffffc050305184 <EmacPsUtilErrorTrap>
ffffffc0503044a6:	4785                	li	a5,1
ffffffc0503044a8:	a161                	j	ffffffc050304930 <EmacPsUtilTiPhyLoopback+0x58c>
ffffffc0503044aa:	fde40713          	addi	a4,s0,-34
ffffffc0503044ae:	fc042783          	lw	a5,-64(s0)
ffffffc0503044b2:	86ba                	mv	a3,a4
ffffffc0503044b4:	4605                	li	a2,1
ffffffc0503044b6:	85be                	mv	a1,a5
ffffffc0503044b8:	fc843503          	ld	a0,-56(s0)
ffffffc0503044bc:	c9cff0ef          	jal	ra,ffffffc050303958 <XEmacPs_PhyRead>
ffffffc0503044c0:	fea43023          	sd	a0,-32(s0)
ffffffc0503044c4:	fe043783          	ld	a5,-32(s0)
ffffffc0503044c8:	cb89                	beqz	a5,ffffffc0503044da <EmacPsUtilTiPhyLoopback+0x136>
ffffffc0503044ca:	00007517          	auipc	a0,0x7
ffffffc0503044ce:	e0650513          	addi	a0,a0,-506 # ffffffc05030b2d0 <__FUNCTION__.1991+0x70>
ffffffc0503044d2:	4b3000ef          	jal	ra,ffffffc050305184 <EmacPsUtilErrorTrap>
ffffffc0503044d6:	4785                	li	a5,1
ffffffc0503044d8:	a9a1                	j	ffffffc050304930 <EmacPsUtilTiPhyLoopback+0x58c>
ffffffc0503044da:	fc042783          	lw	a5,-64(s0)
ffffffc0503044de:	46fd                	li	a3,31
ffffffc0503044e0:	4635                	li	a2,13
ffffffc0503044e2:	85be                	mv	a1,a5
ffffffc0503044e4:	fc843503          	ld	a0,-56(s0)
ffffffc0503044e8:	d48ff0ef          	jal	ra,ffffffc050303a30 <XEmacPs_PhyWrite>
ffffffc0503044ec:	fea43023          	sd	a0,-32(s0)
ffffffc0503044f0:	fc042783          	lw	a5,-64(s0)
ffffffc0503044f4:	0fe00693          	li	a3,254
ffffffc0503044f8:	4639                	li	a2,14
ffffffc0503044fa:	85be                	mv	a1,a5
ffffffc0503044fc:	fc843503          	ld	a0,-56(s0)
ffffffc050304500:	d30ff0ef          	jal	ra,ffffffc050303a30 <XEmacPs_PhyWrite>
ffffffc050304504:	fea43023          	sd	a0,-32(s0)
ffffffc050304508:	fc042703          	lw	a4,-64(s0)
ffffffc05030450c:	6791                	lui	a5,0x4
ffffffc05030450e:	01f78693          	addi	a3,a5,31 # 401f <_start-0xffffffc0502fbfe1>
ffffffc050304512:	4635                	li	a2,13
ffffffc050304514:	85ba                	mv	a1,a4
ffffffc050304516:	fc843503          	ld	a0,-56(s0)
ffffffc05030451a:	d16ff0ef          	jal	ra,ffffffc050303a30 <XEmacPs_PhyWrite>
ffffffc05030451e:	fea43023          	sd	a0,-32(s0)
ffffffc050304522:	fc042703          	lw	a4,-64(s0)
ffffffc050304526:	67bd                	lui	a5,0xf
ffffffc050304528:	f2078693          	addi	a3,a5,-224 # ef20 <_start-0xffffffc0502f10e0>
ffffffc05030452c:	4639                	li	a2,14
ffffffc05030452e:	85ba                	mv	a1,a4
ffffffc050304530:	fc843503          	ld	a0,-56(s0)
ffffffc050304534:	cfcff0ef          	jal	ra,ffffffc050303a30 <XEmacPs_PhyWrite>
ffffffc050304538:	fea43023          	sd	a0,-32(s0)
ffffffc05030453c:	fe043783          	ld	a5,-32(s0)
ffffffc050304540:	cb89                	beqz	a5,ffffffc050304552 <EmacPsUtilTiPhyLoopback+0x1ae>
ffffffc050304542:	00007517          	auipc	a0,0x7
ffffffc050304546:	d8e50513          	addi	a0,a0,-626 # ffffffc05030b2d0 <__FUNCTION__.1991+0x70>
ffffffc05030454a:	43b000ef          	jal	ra,ffffffc050305184 <EmacPsUtilErrorTrap>
ffffffc05030454e:	4785                	li	a5,1
ffffffc050304550:	a6c5                	j	ffffffc050304930 <EmacPsUtilTiPhyLoopback+0x58c>
ffffffc050304552:	fc042783          	lw	a5,-64(s0)
ffffffc050304556:	46fd                	li	a3,31
ffffffc050304558:	4635                	li	a2,13
ffffffc05030455a:	85be                	mv	a1,a5
ffffffc05030455c:	fc843503          	ld	a0,-56(s0)
ffffffc050304560:	cd0ff0ef          	jal	ra,ffffffc050303a30 <XEmacPs_PhyWrite>
ffffffc050304564:	fea43023          	sd	a0,-32(s0)
ffffffc050304568:	fc042783          	lw	a5,-64(s0)
ffffffc05030456c:	0fe00693          	li	a3,254
ffffffc050304570:	4639                	li	a2,14
ffffffc050304572:	85be                	mv	a1,a5
ffffffc050304574:	fc843503          	ld	a0,-56(s0)
ffffffc050304578:	cb8ff0ef          	jal	ra,ffffffc050303a30 <XEmacPs_PhyWrite>
ffffffc05030457c:	fea43023          	sd	a0,-32(s0)
ffffffc050304580:	fc042703          	lw	a4,-64(s0)
ffffffc050304584:	6791                	lui	a5,0x4
ffffffc050304586:	01f78693          	addi	a3,a5,31 # 401f <_start-0xffffffc0502fbfe1>
ffffffc05030458a:	4635                	li	a2,13
ffffffc05030458c:	85ba                	mv	a1,a4
ffffffc05030458e:	fc843503          	ld	a0,-56(s0)
ffffffc050304592:	c9eff0ef          	jal	ra,ffffffc050303a30 <XEmacPs_PhyWrite>
ffffffc050304596:	fea43023          	sd	a0,-32(s0)
ffffffc05030459a:	fde40713          	addi	a4,s0,-34
ffffffc05030459e:	fc042783          	lw	a5,-64(s0)
ffffffc0503045a2:	86ba                	mv	a3,a4
ffffffc0503045a4:	4639                	li	a2,14
ffffffc0503045a6:	85be                	mv	a1,a5
ffffffc0503045a8:	fc843503          	ld	a0,-56(s0)
ffffffc0503045ac:	bacff0ef          	jal	ra,ffffffc050303958 <XEmacPs_PhyRead>
ffffffc0503045b0:	fea43023          	sd	a0,-32(s0)
ffffffc0503045b4:	fe043783          	ld	a5,-32(s0)
ffffffc0503045b8:	cb89                	beqz	a5,ffffffc0503045ca <EmacPsUtilTiPhyLoopback+0x226>
ffffffc0503045ba:	00007517          	auipc	a0,0x7
ffffffc0503045be:	d1650513          	addi	a0,a0,-746 # ffffffc05030b2d0 <__FUNCTION__.1991+0x70>
ffffffc0503045c2:	3c3000ef          	jal	ra,ffffffc050305184 <EmacPsUtilErrorTrap>
ffffffc0503045c6:	4785                	li	a5,1
ffffffc0503045c8:	a6a5                	j	ffffffc050304930 <EmacPsUtilTiPhyLoopback+0x58c>
ffffffc0503045ca:	fc042783          	lw	a5,-64(s0)
ffffffc0503045ce:	6691                	lui	a3,0x4
ffffffc0503045d0:	467d                	li	a2,31
ffffffc0503045d2:	85be                	mv	a1,a5
ffffffc0503045d4:	fc843503          	ld	a0,-56(s0)
ffffffc0503045d8:	c58ff0ef          	jal	ra,ffffffc050303a30 <XEmacPs_PhyWrite>
ffffffc0503045dc:	fea43023          	sd	a0,-32(s0)
ffffffc0503045e0:	fde40713          	addi	a4,s0,-34
ffffffc0503045e4:	fc042783          	lw	a5,-64(s0)
ffffffc0503045e8:	86ba                	mv	a3,a4
ffffffc0503045ea:	4601                	li	a2,0
ffffffc0503045ec:	85be                	mv	a1,a5
ffffffc0503045ee:	fc843503          	ld	a0,-56(s0)
ffffffc0503045f2:	b66ff0ef          	jal	ra,ffffffc050303958 <XEmacPs_PhyRead>
ffffffc0503045f6:	fea43023          	sd	a0,-32(s0)
ffffffc0503045fa:	fe043783          	ld	a5,-32(s0)
ffffffc0503045fe:	cb89                	beqz	a5,ffffffc050304610 <EmacPsUtilTiPhyLoopback+0x26c>
ffffffc050304600:	00007517          	auipc	a0,0x7
ffffffc050304604:	cd050513          	addi	a0,a0,-816 # ffffffc05030b2d0 <__FUNCTION__.1991+0x70>
ffffffc050304608:	37d000ef          	jal	ra,ffffffc050305184 <EmacPsUtilErrorTrap>
ffffffc05030460c:	4785                	li	a5,1
ffffffc05030460e:	a60d                	j	ffffffc050304930 <EmacPsUtilTiPhyLoopback+0x58c>
ffffffc050304610:	fde40713          	addi	a4,s0,-34
ffffffc050304614:	fc042783          	lw	a5,-64(s0)
ffffffc050304618:	86ba                	mv	a3,a4
ffffffc05030461a:	4601                	li	a2,0
ffffffc05030461c:	85be                	mv	a1,a5
ffffffc05030461e:	fc843503          	ld	a0,-56(s0)
ffffffc050304622:	b36ff0ef          	jal	ra,ffffffc050303958 <XEmacPs_PhyRead>
ffffffc050304626:	fea43023          	sd	a0,-32(s0)
ffffffc05030462a:	fde45703          	lhu	a4,-34(s0)
ffffffc05030462e:	77e1                	lui	a5,0xffff8
ffffffc050304630:	8fd9                	or	a5,a5,a4
ffffffc050304632:	17c2                	slli	a5,a5,0x30
ffffffc050304634:	93c1                	srli	a5,a5,0x30
ffffffc050304636:	fcf41f23          	sh	a5,-34(s0)
ffffffc05030463a:	fde45703          	lhu	a4,-34(s0)
ffffffc05030463e:	fc042783          	lw	a5,-64(s0)
ffffffc050304642:	86ba                	mv	a3,a4
ffffffc050304644:	4601                	li	a2,0
ffffffc050304646:	85be                	mv	a1,a5
ffffffc050304648:	fc843503          	ld	a0,-56(s0)
ffffffc05030464c:	be4ff0ef          	jal	ra,ffffffc050303a30 <XEmacPs_PhyWrite>
ffffffc050304650:	fea43023          	sd	a0,-32(s0)
ffffffc050304654:	fde40713          	addi	a4,s0,-34
ffffffc050304658:	fc042783          	lw	a5,-64(s0)
ffffffc05030465c:	86ba                	mv	a3,a4
ffffffc05030465e:	4601                	li	a2,0
ffffffc050304660:	85be                	mv	a1,a5
ffffffc050304662:	fc843503          	ld	a0,-56(s0)
ffffffc050304666:	af2ff0ef          	jal	ra,ffffffc050303958 <XEmacPs_PhyRead>
ffffffc05030466a:	fea43023          	sd	a0,-32(s0)
ffffffc05030466e:	fe043783          	ld	a5,-32(s0)
ffffffc050304672:	cb89                	beqz	a5,ffffffc050304684 <EmacPsUtilTiPhyLoopback+0x2e0>
ffffffc050304674:	00007517          	auipc	a0,0x7
ffffffc050304678:	c9450513          	addi	a0,a0,-876 # ffffffc05030b308 <__FUNCTION__.1991+0xa8>
ffffffc05030467c:	309000ef          	jal	ra,ffffffc050305184 <EmacPsUtilErrorTrap>
ffffffc050304680:	4785                	li	a5,1
ffffffc050304682:	a47d                	j	ffffffc050304930 <EmacPsUtilTiPhyLoopback+0x58c>
ffffffc050304684:	4505                	li	a0,1
ffffffc050304686:	19f000ef          	jal	ra,ffffffc050305024 <EmacpsDelay>
ffffffc05030468a:	fec45703          	lhu	a4,-20(s0)
ffffffc05030468e:	6791                	lui	a5,0x4
ffffffc050304690:	8fd9                	or	a5,a5,a4
ffffffc050304692:	17c2                	slli	a5,a5,0x30
ffffffc050304694:	93c1                	srli	a5,a5,0x30
ffffffc050304696:	fcf41f23          	sh	a5,-34(s0)
ffffffc05030469a:	fde45703          	lhu	a4,-34(s0)
ffffffc05030469e:	fc042783          	lw	a5,-64(s0)
ffffffc0503046a2:	86ba                	mv	a3,a4
ffffffc0503046a4:	4601                	li	a2,0
ffffffc0503046a6:	85be                	mv	a1,a5
ffffffc0503046a8:	fc843503          	ld	a0,-56(s0)
ffffffc0503046ac:	b84ff0ef          	jal	ra,ffffffc050303a30 <XEmacPs_PhyWrite>
ffffffc0503046b0:	fea43023          	sd	a0,-32(s0)
ffffffc0503046b4:	fde40713          	addi	a4,s0,-34
ffffffc0503046b8:	fc042783          	lw	a5,-64(s0)
ffffffc0503046bc:	86ba                	mv	a3,a4
ffffffc0503046be:	4601                	li	a2,0
ffffffc0503046c0:	85be                	mv	a1,a5
ffffffc0503046c2:	fc843503          	ld	a0,-56(s0)
ffffffc0503046c6:	a92ff0ef          	jal	ra,ffffffc050303958 <XEmacPs_PhyRead>
ffffffc0503046ca:	fea43023          	sd	a0,-32(s0)
ffffffc0503046ce:	fe043783          	ld	a5,-32(s0)
ffffffc0503046d2:	cb89                	beqz	a5,ffffffc0503046e4 <EmacPsUtilTiPhyLoopback+0x340>
ffffffc0503046d4:	00007517          	auipc	a0,0x7
ffffffc0503046d8:	c4450513          	addi	a0,a0,-956 # ffffffc05030b318 <__FUNCTION__.1991+0xb8>
ffffffc0503046dc:	2a9000ef          	jal	ra,ffffffc050305184 <EmacPsUtilErrorTrap>
ffffffc0503046e0:	4785                	li	a5,1
ffffffc0503046e2:	a4b9                	j	ffffffc050304930 <EmacPsUtilTiPhyLoopback+0x58c>
ffffffc0503046e4:	fc042703          	lw	a4,-64(s0)
ffffffc0503046e8:	6795                	lui	a5,0x5
ffffffc0503046ea:	04878693          	addi	a3,a5,72 # 5048 <_start-0xffffffc0502fafb8>
ffffffc0503046ee:	4641                	li	a2,16
ffffffc0503046f0:	85ba                	mv	a1,a4
ffffffc0503046f2:	fc843503          	ld	a0,-56(s0)
ffffffc0503046f6:	b3aff0ef          	jal	ra,ffffffc050303a30 <XEmacPs_PhyWrite>
ffffffc0503046fa:	fea43023          	sd	a0,-32(s0)
ffffffc0503046fe:	fde40713          	addi	a4,s0,-34
ffffffc050304702:	fc042783          	lw	a5,-64(s0)
ffffffc050304706:	86ba                	mv	a3,a4
ffffffc050304708:	4641                	li	a2,16
ffffffc05030470a:	85be                	mv	a1,a5
ffffffc05030470c:	fc843503          	ld	a0,-56(s0)
ffffffc050304710:	a48ff0ef          	jal	ra,ffffffc050303958 <XEmacPs_PhyRead>
ffffffc050304714:	fea43023          	sd	a0,-32(s0)
ffffffc050304718:	fe043783          	ld	a5,-32(s0)
ffffffc05030471c:	cb89                	beqz	a5,ffffffc05030472e <EmacPsUtilTiPhyLoopback+0x38a>
ffffffc05030471e:	00007517          	auipc	a0,0x7
ffffffc050304722:	bfa50513          	addi	a0,a0,-1030 # ffffffc05030b318 <__FUNCTION__.1991+0xb8>
ffffffc050304726:	25f000ef          	jal	ra,ffffffc050305184 <EmacPsUtilErrorTrap>
ffffffc05030472a:	4785                	li	a5,1
ffffffc05030472c:	a411                	j	ffffffc050304930 <EmacPsUtilTiPhyLoopback+0x58c>
ffffffc05030472e:	fc042783          	lw	a5,-64(s0)
ffffffc050304732:	46fd                	li	a3,31
ffffffc050304734:	4635                	li	a2,13
ffffffc050304736:	85be                	mv	a1,a5
ffffffc050304738:	fc843503          	ld	a0,-56(s0)
ffffffc05030473c:	af4ff0ef          	jal	ra,ffffffc050303a30 <XEmacPs_PhyWrite>
ffffffc050304740:	fc042783          	lw	a5,-64(s0)
ffffffc050304744:	08600693          	li	a3,134
ffffffc050304748:	4639                	li	a2,14
ffffffc05030474a:	85be                	mv	a1,a5
ffffffc05030474c:	fc843503          	ld	a0,-56(s0)
ffffffc050304750:	ae0ff0ef          	jal	ra,ffffffc050303a30 <XEmacPs_PhyWrite>
ffffffc050304754:	fc042703          	lw	a4,-64(s0)
ffffffc050304758:	6791                	lui	a5,0x4
ffffffc05030475a:	01f78693          	addi	a3,a5,31 # 401f <_start-0xffffffc0502fbfe1>
ffffffc05030475e:	4635                	li	a2,13
ffffffc050304760:	85ba                	mv	a1,a4
ffffffc050304762:	fc843503          	ld	a0,-56(s0)
ffffffc050304766:	acaff0ef          	jal	ra,ffffffc050303a30 <XEmacPs_PhyWrite>
ffffffc05030476a:	00037797          	auipc	a5,0x37
ffffffc05030476e:	09e78793          	addi	a5,a5,158 # ffffffc05033b808 <Platform>
ffffffc050304772:	439c                	lw	a5,0(a5)
ffffffc050304774:	873e                	mv	a4,a5
ffffffc050304776:	67bd                	lui	a5,0xf
ffffffc050304778:	8ff9                	and	a5,a5,a4
ffffffc05030477a:	2781                	sext.w	a5,a5
ffffffc05030477c:	873e                	mv	a4,a5
ffffffc05030477e:	6795                	lui	a5,0x5
ffffffc050304780:	00f71663          	bne	a4,a5,ffffffc05030478c <EmacPsUtilTiPhyLoopback+0x3e8>
ffffffc050304784:	0ab00793          	li	a5,171
ffffffc050304788:	fef41723          	sh	a5,-18(s0)
ffffffc05030478c:	fee45703          	lhu	a4,-18(s0)
ffffffc050304790:	fc042783          	lw	a5,-64(s0)
ffffffc050304794:	86ba                	mv	a3,a4
ffffffc050304796:	4639                	li	a2,14
ffffffc050304798:	85be                	mv	a1,a5
ffffffc05030479a:	fc843503          	ld	a0,-56(s0)
ffffffc05030479e:	a92ff0ef          	jal	ra,ffffffc050303a30 <XEmacPs_PhyWrite>
ffffffc0503047a2:	fea43023          	sd	a0,-32(s0)
ffffffc0503047a6:	fe043783          	ld	a5,-32(s0)
ffffffc0503047aa:	cb89                	beqz	a5,ffffffc0503047bc <EmacPsUtilTiPhyLoopback+0x418>
ffffffc0503047ac:	00007517          	auipc	a0,0x7
ffffffc0503047b0:	b8c50513          	addi	a0,a0,-1140 # ffffffc05030b338 <__FUNCTION__.1991+0xd8>
ffffffc0503047b4:	1d1000ef          	jal	ra,ffffffc050305184 <EmacPsUtilErrorTrap>
ffffffc0503047b8:	4785                	li	a5,1
ffffffc0503047ba:	aa9d                	j	ffffffc050304930 <EmacPsUtilTiPhyLoopback+0x58c>
ffffffc0503047bc:	fc042783          	lw	a5,-64(s0)
ffffffc0503047c0:	46fd                	li	a3,31
ffffffc0503047c2:	4635                	li	a2,13
ffffffc0503047c4:	85be                	mv	a1,a5
ffffffc0503047c6:	fc843503          	ld	a0,-56(s0)
ffffffc0503047ca:	a66ff0ef          	jal	ra,ffffffc050303a30 <XEmacPs_PhyWrite>
ffffffc0503047ce:	fc042783          	lw	a5,-64(s0)
ffffffc0503047d2:	08600693          	li	a3,134
ffffffc0503047d6:	4639                	li	a2,14
ffffffc0503047d8:	85be                	mv	a1,a5
ffffffc0503047da:	fc843503          	ld	a0,-56(s0)
ffffffc0503047de:	a52ff0ef          	jal	ra,ffffffc050303a30 <XEmacPs_PhyWrite>
ffffffc0503047e2:	fc042703          	lw	a4,-64(s0)
ffffffc0503047e6:	6791                	lui	a5,0x4
ffffffc0503047e8:	01f78693          	addi	a3,a5,31 # 401f <_start-0xffffffc0502fbfe1>
ffffffc0503047ec:	4635                	li	a2,13
ffffffc0503047ee:	85ba                	mv	a1,a4
ffffffc0503047f0:	fc843503          	ld	a0,-56(s0)
ffffffc0503047f4:	a3cff0ef          	jal	ra,ffffffc050303a30 <XEmacPs_PhyWrite>
ffffffc0503047f8:	fde40713          	addi	a4,s0,-34
ffffffc0503047fc:	fc042783          	lw	a5,-64(s0)
ffffffc050304800:	86ba                	mv	a3,a4
ffffffc050304802:	4639                	li	a2,14
ffffffc050304804:	85be                	mv	a1,a5
ffffffc050304806:	fc843503          	ld	a0,-56(s0)
ffffffc05030480a:	94eff0ef          	jal	ra,ffffffc050303958 <XEmacPs_PhyRead>
ffffffc05030480e:	fea43023          	sd	a0,-32(s0)
ffffffc050304812:	fe043783          	ld	a5,-32(s0)
ffffffc050304816:	cb89                	beqz	a5,ffffffc050304828 <EmacPsUtilTiPhyLoopback+0x484>
ffffffc050304818:	00007517          	auipc	a0,0x7
ffffffc05030481c:	b2050513          	addi	a0,a0,-1248 # ffffffc05030b338 <__FUNCTION__.1991+0xd8>
ffffffc050304820:	165000ef          	jal	ra,ffffffc050305184 <EmacPsUtilErrorTrap>
ffffffc050304824:	4785                	li	a5,1
ffffffc050304826:	a229                	j	ffffffc050304930 <EmacPsUtilTiPhyLoopback+0x58c>
ffffffc050304828:	fc042783          	lw	a5,-64(s0)
ffffffc05030482c:	46fd                	li	a3,31
ffffffc05030482e:	4635                	li	a2,13
ffffffc050304830:	85be                	mv	a1,a5
ffffffc050304832:	fc843503          	ld	a0,-56(s0)
ffffffc050304836:	9faff0ef          	jal	ra,ffffffc050303a30 <XEmacPs_PhyWrite>
ffffffc05030483a:	fc042783          	lw	a5,-64(s0)
ffffffc05030483e:	03200693          	li	a3,50
ffffffc050304842:	4639                	li	a2,14
ffffffc050304844:	85be                	mv	a1,a5
ffffffc050304846:	fc843503          	ld	a0,-56(s0)
ffffffc05030484a:	9e6ff0ef          	jal	ra,ffffffc050303a30 <XEmacPs_PhyWrite>
ffffffc05030484e:	fc042703          	lw	a4,-64(s0)
ffffffc050304852:	6791                	lui	a5,0x4
ffffffc050304854:	01f78693          	addi	a3,a5,31 # 401f <_start-0xffffffc0502fbfe1>
ffffffc050304858:	4635                	li	a2,13
ffffffc05030485a:	85ba                	mv	a1,a4
ffffffc05030485c:	fc843503          	ld	a0,-56(s0)
ffffffc050304860:	9d0ff0ef          	jal	ra,ffffffc050303a30 <XEmacPs_PhyWrite>
ffffffc050304864:	fc042783          	lw	a5,-64(s0)
ffffffc050304868:	0d300693          	li	a3,211
ffffffc05030486c:	4639                	li	a2,14
ffffffc05030486e:	85be                	mv	a1,a5
ffffffc050304870:	fc843503          	ld	a0,-56(s0)
ffffffc050304874:	9bcff0ef          	jal	ra,ffffffc050303a30 <XEmacPs_PhyWrite>
ffffffc050304878:	fea43023          	sd	a0,-32(s0)
ffffffc05030487c:	fe043783          	ld	a5,-32(s0)
ffffffc050304880:	cb89                	beqz	a5,ffffffc050304892 <EmacPsUtilTiPhyLoopback+0x4ee>
ffffffc050304882:	00007517          	auipc	a0,0x7
ffffffc050304886:	ab650513          	addi	a0,a0,-1354 # ffffffc05030b338 <__FUNCTION__.1991+0xd8>
ffffffc05030488a:	0fb000ef          	jal	ra,ffffffc050305184 <EmacPsUtilErrorTrap>
ffffffc05030488e:	4785                	li	a5,1
ffffffc050304890:	a045                	j	ffffffc050304930 <EmacPsUtilTiPhyLoopback+0x58c>
ffffffc050304892:	fc042783          	lw	a5,-64(s0)
ffffffc050304896:	46fd                	li	a3,31
ffffffc050304898:	4635                	li	a2,13
ffffffc05030489a:	85be                	mv	a1,a5
ffffffc05030489c:	fc843503          	ld	a0,-56(s0)
ffffffc0503048a0:	990ff0ef          	jal	ra,ffffffc050303a30 <XEmacPs_PhyWrite>
ffffffc0503048a4:	fc042783          	lw	a5,-64(s0)
ffffffc0503048a8:	03200693          	li	a3,50
ffffffc0503048ac:	4639                	li	a2,14
ffffffc0503048ae:	85be                	mv	a1,a5
ffffffc0503048b0:	fc843503          	ld	a0,-56(s0)
ffffffc0503048b4:	97cff0ef          	jal	ra,ffffffc050303a30 <XEmacPs_PhyWrite>
ffffffc0503048b8:	fc042703          	lw	a4,-64(s0)
ffffffc0503048bc:	6791                	lui	a5,0x4
ffffffc0503048be:	01f78693          	addi	a3,a5,31 # 401f <_start-0xffffffc0502fbfe1>
ffffffc0503048c2:	4635                	li	a2,13
ffffffc0503048c4:	85ba                	mv	a1,a4
ffffffc0503048c6:	fc843503          	ld	a0,-56(s0)
ffffffc0503048ca:	966ff0ef          	jal	ra,ffffffc050303a30 <XEmacPs_PhyWrite>
ffffffc0503048ce:	fde40713          	addi	a4,s0,-34
ffffffc0503048d2:	fc042783          	lw	a5,-64(s0)
ffffffc0503048d6:	86ba                	mv	a3,a4
ffffffc0503048d8:	4639                	li	a2,14
ffffffc0503048da:	85be                	mv	a1,a5
ffffffc0503048dc:	fc843503          	ld	a0,-56(s0)
ffffffc0503048e0:	878ff0ef          	jal	ra,ffffffc050303958 <XEmacPs_PhyRead>
ffffffc0503048e4:	fea43023          	sd	a0,-32(s0)
ffffffc0503048e8:	fe043783          	ld	a5,-32(s0)
ffffffc0503048ec:	cb89                	beqz	a5,ffffffc0503048fe <EmacPsUtilTiPhyLoopback+0x55a>
ffffffc0503048ee:	00007517          	auipc	a0,0x7
ffffffc0503048f2:	a4a50513          	addi	a0,a0,-1462 # ffffffc05030b338 <__FUNCTION__.1991+0xd8>
ffffffc0503048f6:	08f000ef          	jal	ra,ffffffc050305184 <EmacPsUtilErrorTrap>
ffffffc0503048fa:	4785                	li	a5,1
ffffffc0503048fc:	a815                	j	ffffffc050304930 <EmacPsUtilTiPhyLoopback+0x58c>
ffffffc0503048fe:	fde40713          	addi	a4,s0,-34
ffffffc050304902:	fc042783          	lw	a5,-64(s0)
ffffffc050304906:	86ba                	mv	a3,a4
ffffffc050304908:	4645                	li	a2,17
ffffffc05030490a:	85be                	mv	a1,a5
ffffffc05030490c:	fc843503          	ld	a0,-56(s0)
ffffffc050304910:	848ff0ef          	jal	ra,ffffffc050303958 <XEmacPs_PhyRead>
ffffffc050304914:	fea43023          	sd	a0,-32(s0)
ffffffc050304918:	fe043783          	ld	a5,-32(s0)
ffffffc05030491c:	cb89                	beqz	a5,ffffffc05030492e <EmacPsUtilTiPhyLoopback+0x58a>
ffffffc05030491e:	00007517          	auipc	a0,0x7
ffffffc050304922:	9fa50513          	addi	a0,a0,-1542 # ffffffc05030b318 <__FUNCTION__.1991+0xb8>
ffffffc050304926:	05f000ef          	jal	ra,ffffffc050305184 <EmacPsUtilErrorTrap>
ffffffc05030492a:	4785                	li	a5,1
ffffffc05030492c:	a011                	j	ffffffc050304930 <EmacPsUtilTiPhyLoopback+0x58c>
ffffffc05030492e:	4781                	li	a5,0
ffffffc050304930:	853e                	mv	a0,a5
ffffffc050304932:	70e2                	ld	ra,56(sp)
ffffffc050304934:	7442                	ld	s0,48(sp)
ffffffc050304936:	6121                	addi	sp,sp,64
ffffffc050304938:	8082                	ret

ffffffc05030493a <EmacPsUtilRtlPhyLoopback>:
ffffffc05030493a:	7179                	addi	sp,sp,-48
ffffffc05030493c:	f406                	sd	ra,40(sp)
ffffffc05030493e:	f022                	sd	s0,32(sp)
ffffffc050304940:	1800                	addi	s0,sp,48
ffffffc050304942:	fca43c23          	sd	a0,-40(s0)
ffffffc050304946:	87ae                	mv	a5,a1
ffffffc050304948:	8732                	mv	a4,a2
ffffffc05030494a:	fcf42a23          	sw	a5,-44(s0)
ffffffc05030494e:	87ba                	mv	a5,a4
ffffffc050304950:	fcf42823          	sw	a5,-48(s0)
ffffffc050304954:	fe041323          	sh	zero,-26(s0)
ffffffc050304958:	fe041323          	sh	zero,-26(s0)
ffffffc05030495c:	fd442783          	lw	a5,-44(s0)
ffffffc050304960:	0007871b          	sext.w	a4,a5
ffffffc050304964:	3e800793          	li	a5,1000
ffffffc050304968:	04f70863          	beq	a4,a5,ffffffc0503049b8 <EmacPsUtilRtlPhyLoopback+0x7e>
ffffffc05030496c:	fd442783          	lw	a5,-44(s0)
ffffffc050304970:	0007871b          	sext.w	a4,a5
ffffffc050304974:	3e800793          	li	a5,1000
ffffffc050304978:	04e7e963          	bltu	a5,a4,ffffffc0503049ca <EmacPsUtilRtlPhyLoopback+0x90>
ffffffc05030497c:	fd442783          	lw	a5,-44(s0)
ffffffc050304980:	0007871b          	sext.w	a4,a5
ffffffc050304984:	47a9                	li	a5,10
ffffffc050304986:	00f70b63          	beq	a4,a5,ffffffc05030499c <EmacPsUtilRtlPhyLoopback+0x62>
ffffffc05030498a:	fd442783          	lw	a5,-44(s0)
ffffffc05030498e:	0007871b          	sext.w	a4,a5
ffffffc050304992:	06400793          	li	a5,100
ffffffc050304996:	00f70863          	beq	a4,a5,ffffffc0503049a6 <EmacPsUtilRtlPhyLoopback+0x6c>
ffffffc05030499a:	a805                	j	ffffffc0503049ca <EmacPsUtilRtlPhyLoopback+0x90>
ffffffc05030499c:	fe645783          	lhu	a5,-26(s0)
ffffffc0503049a0:	fef41323          	sh	a5,-26(s0)
ffffffc0503049a4:	a81d                	j	ffffffc0503049da <EmacPsUtilRtlPhyLoopback+0xa0>
ffffffc0503049a6:	fe645703          	lhu	a4,-26(s0)
ffffffc0503049aa:	6789                	lui	a5,0x2
ffffffc0503049ac:	8fd9                	or	a5,a5,a4
ffffffc0503049ae:	17c2                	slli	a5,a5,0x30
ffffffc0503049b0:	93c1                	srli	a5,a5,0x30
ffffffc0503049b2:	fef41323          	sh	a5,-26(s0)
ffffffc0503049b6:	a015                	j	ffffffc0503049da <EmacPsUtilRtlPhyLoopback+0xa0>
ffffffc0503049b8:	fe645783          	lhu	a5,-26(s0)
ffffffc0503049bc:	0407e793          	ori	a5,a5,64
ffffffc0503049c0:	17c2                	slli	a5,a5,0x30
ffffffc0503049c2:	93c1                	srli	a5,a5,0x30
ffffffc0503049c4:	fef41323          	sh	a5,-26(s0)
ffffffc0503049c8:	a809                	j	ffffffc0503049da <EmacPsUtilRtlPhyLoopback+0xa0>
ffffffc0503049ca:	00007517          	auipc	a0,0x7
ffffffc0503049ce:	8e650513          	addi	a0,a0,-1818 # ffffffc05030b2b0 <__FUNCTION__.1991+0x50>
ffffffc0503049d2:	7b2000ef          	jal	ra,ffffffc050305184 <EmacPsUtilErrorTrap>
ffffffc0503049d6:	4785                	li	a5,1
ffffffc0503049d8:	aea1                	j	ffffffc050304d30 <EmacPsUtilRtlPhyLoopback+0x3f6>
ffffffc0503049da:	fe645783          	lhu	a5,-26(s0)
ffffffc0503049de:	1007e793          	ori	a5,a5,256
ffffffc0503049e2:	17c2                	slli	a5,a5,0x30
ffffffc0503049e4:	93c1                	srli	a5,a5,0x30
ffffffc0503049e6:	fef41323          	sh	a5,-26(s0)
ffffffc0503049ea:	fe645783          	lhu	a5,-26(s0)
ffffffc0503049ee:	2007e793          	ori	a5,a5,512
ffffffc0503049f2:	17c2                	slli	a5,a5,0x30
ffffffc0503049f4:	93c1                	srli	a5,a5,0x30
ffffffc0503049f6:	fef41323          	sh	a5,-26(s0)
ffffffc0503049fa:	fe645703          	lhu	a4,-26(s0)
ffffffc0503049fe:	fd042783          	lw	a5,-48(s0)
ffffffc050304a02:	86ba                	mv	a3,a4
ffffffc050304a04:	4601                	li	a2,0
ffffffc050304a06:	85be                	mv	a1,a5
ffffffc050304a08:	fd843503          	ld	a0,-40(s0)
ffffffc050304a0c:	824ff0ef          	jal	ra,ffffffc050303a30 <XEmacPs_PhyWrite>
ffffffc050304a10:	fea43423          	sd	a0,-24(s0)
ffffffc050304a14:	fe640713          	addi	a4,s0,-26
ffffffc050304a18:	fd042783          	lw	a5,-48(s0)
ffffffc050304a1c:	86ba                	mv	a3,a4
ffffffc050304a1e:	4601                	li	a2,0
ffffffc050304a20:	85be                	mv	a1,a5
ffffffc050304a22:	fd843503          	ld	a0,-40(s0)
ffffffc050304a26:	f33fe0ef          	jal	ra,ffffffc050303958 <XEmacPs_PhyRead>
ffffffc050304a2a:	fea43423          	sd	a0,-24(s0)
ffffffc050304a2e:	fe843783          	ld	a5,-24(s0)
ffffffc050304a32:	cb89                	beqz	a5,ffffffc050304a44 <EmacPsUtilRtlPhyLoopback+0x10a>
ffffffc050304a34:	00007517          	auipc	a0,0x7
ffffffc050304a38:	8d450513          	addi	a0,a0,-1836 # ffffffc05030b308 <__FUNCTION__.1991+0xa8>
ffffffc050304a3c:	748000ef          	jal	ra,ffffffc050305184 <EmacPsUtilErrorTrap>
ffffffc050304a40:	4785                	li	a5,1
ffffffc050304a42:	a4fd                	j	ffffffc050304d30 <EmacPsUtilRtlPhyLoopback+0x3f6>
ffffffc050304a44:	fe645783          	lhu	a5,-26(s0)
ffffffc050304a48:	2781                	sext.w	a5,a5
ffffffc050304a4a:	85be                	mv	a1,a5
ffffffc050304a4c:	00007517          	auipc	a0,0x7
ffffffc050304a50:	8fc50513          	addi	a0,a0,-1796 # ffffffc05030b348 <__FUNCTION__.1991+0xe8>
ffffffc050304a54:	17c060ef          	jal	ra,ffffffc05030abd0 <printk>
ffffffc050304a58:	fd042703          	lw	a4,-48(s0)
ffffffc050304a5c:	67a9                	lui	a5,0xa
ffffffc050304a5e:	f0178693          	addi	a3,a5,-255 # 9f01 <_start-0xffffffc0502f60ff>
ffffffc050304a62:	4649                	li	a2,18
ffffffc050304a64:	85ba                	mv	a1,a4
ffffffc050304a66:	fd843503          	ld	a0,-40(s0)
ffffffc050304a6a:	fc7fe0ef          	jal	ra,ffffffc050303a30 <XEmacPs_PhyWrite>
ffffffc050304a6e:	fea43423          	sd	a0,-24(s0)
ffffffc050304a72:	fd042783          	lw	a5,-48(s0)
ffffffc050304a76:	469d                	li	a3,7
ffffffc050304a78:	467d                	li	a2,31
ffffffc050304a7a:	85be                	mv	a1,a5
ffffffc050304a7c:	fd843503          	ld	a0,-40(s0)
ffffffc050304a80:	fb1fe0ef          	jal	ra,ffffffc050303a30 <XEmacPs_PhyWrite>
ffffffc050304a84:	fea43423          	sd	a0,-24(s0)
ffffffc050304a88:	fd042783          	lw	a5,-48(s0)
ffffffc050304a8c:	0a400693          	li	a3,164
ffffffc050304a90:	4679                	li	a2,30
ffffffc050304a92:	85be                	mv	a1,a5
ffffffc050304a94:	fd843503          	ld	a0,-40(s0)
ffffffc050304a98:	f99fe0ef          	jal	ra,ffffffc050303a30 <XEmacPs_PhyWrite>
ffffffc050304a9c:	fea43423          	sd	a0,-24(s0)
ffffffc050304aa0:	fe640713          	addi	a4,s0,-26
ffffffc050304aa4:	fd042783          	lw	a5,-48(s0)
ffffffc050304aa8:	86ba                	mv	a3,a4
ffffffc050304aaa:	4671                	li	a2,28
ffffffc050304aac:	85be                	mv	a1,a5
ffffffc050304aae:	fd843503          	ld	a0,-40(s0)
ffffffc050304ab2:	ea7fe0ef          	jal	ra,ffffffc050303958 <XEmacPs_PhyRead>
ffffffc050304ab6:	fea43423          	sd	a0,-24(s0)
ffffffc050304aba:	fe645783          	lhu	a5,-26(s0)
ffffffc050304abe:	0067e793          	ori	a5,a5,6
ffffffc050304ac2:	17c2                	slli	a5,a5,0x30
ffffffc050304ac4:	93c1                	srli	a5,a5,0x30
ffffffc050304ac6:	fef41323          	sh	a5,-26(s0)
ffffffc050304aca:	fe645703          	lhu	a4,-26(s0)
ffffffc050304ace:	77ed                	lui	a5,0xffffb
ffffffc050304ad0:	40078793          	addi	a5,a5,1024 # ffffffffffffb400 <__BSS_END__+0x3fafcb23d0>
ffffffc050304ad4:	8fd9                	or	a5,a5,a4
ffffffc050304ad6:	17c2                	slli	a5,a5,0x30
ffffffc050304ad8:	93c1                	srli	a5,a5,0x30
ffffffc050304ada:	fef41323          	sh	a5,-26(s0)
ffffffc050304ade:	fe645703          	lhu	a4,-26(s0)
ffffffc050304ae2:	fd042783          	lw	a5,-48(s0)
ffffffc050304ae6:	86ba                	mv	a3,a4
ffffffc050304ae8:	4671                	li	a2,28
ffffffc050304aea:	85be                	mv	a1,a5
ffffffc050304aec:	fd843503          	ld	a0,-40(s0)
ffffffc050304af0:	f41fe0ef          	jal	ra,ffffffc050303a30 <XEmacPs_PhyWrite>
ffffffc050304af4:	fea43423          	sd	a0,-24(s0)
ffffffc050304af8:	fd042783          	lw	a5,-48(s0)
ffffffc050304afc:	4681                	li	a3,0
ffffffc050304afe:	467d                	li	a2,31
ffffffc050304b00:	85be                	mv	a1,a5
ffffffc050304b02:	fd843503          	ld	a0,-40(s0)
ffffffc050304b06:	f2bfe0ef          	jal	ra,ffffffc050303a30 <XEmacPs_PhyWrite>
ffffffc050304b0a:	fea43423          	sd	a0,-24(s0)
ffffffc050304b0e:	fe640713          	addi	a4,s0,-26
ffffffc050304b12:	fd042783          	lw	a5,-48(s0)
ffffffc050304b16:	86ba                	mv	a3,a4
ffffffc050304b18:	4601                	li	a2,0
ffffffc050304b1a:	85be                	mv	a1,a5
ffffffc050304b1c:	fd843503          	ld	a0,-40(s0)
ffffffc050304b20:	e39fe0ef          	jal	ra,ffffffc050303958 <XEmacPs_PhyRead>
ffffffc050304b24:	fea43423          	sd	a0,-24(s0)
ffffffc050304b28:	fe645703          	lhu	a4,-26(s0)
ffffffc050304b2c:	6791                	lui	a5,0x4
ffffffc050304b2e:	8fd9                	or	a5,a5,a4
ffffffc050304b30:	17c2                	slli	a5,a5,0x30
ffffffc050304b32:	93c1                	srli	a5,a5,0x30
ffffffc050304b34:	fef41323          	sh	a5,-26(s0)
ffffffc050304b38:	fe645703          	lhu	a4,-26(s0)
ffffffc050304b3c:	fd042783          	lw	a5,-48(s0)
ffffffc050304b40:	86ba                	mv	a3,a4
ffffffc050304b42:	4601                	li	a2,0
ffffffc050304b44:	85be                	mv	a1,a5
ffffffc050304b46:	fd843503          	ld	a0,-40(s0)
ffffffc050304b4a:	ee7fe0ef          	jal	ra,ffffffc050303a30 <XEmacPs_PhyWrite>
ffffffc050304b4e:	fea43423          	sd	a0,-24(s0)
ffffffc050304b52:	fe640713          	addi	a4,s0,-26
ffffffc050304b56:	fd042783          	lw	a5,-48(s0)
ffffffc050304b5a:	86ba                	mv	a3,a4
ffffffc050304b5c:	4601                	li	a2,0
ffffffc050304b5e:	85be                	mv	a1,a5
ffffffc050304b60:	fd843503          	ld	a0,-40(s0)
ffffffc050304b64:	df5fe0ef          	jal	ra,ffffffc050303958 <XEmacPs_PhyRead>
ffffffc050304b68:	fea43423          	sd	a0,-24(s0)
ffffffc050304b6c:	fe843783          	ld	a5,-24(s0)
ffffffc050304b70:	cb89                	beqz	a5,ffffffc050304b82 <EmacPsUtilRtlPhyLoopback+0x248>
ffffffc050304b72:	00006517          	auipc	a0,0x6
ffffffc050304b76:	7a650513          	addi	a0,a0,1958 # ffffffc05030b318 <__FUNCTION__.1991+0xb8>
ffffffc050304b7a:	60a000ef          	jal	ra,ffffffc050305184 <EmacPsUtilErrorTrap>
ffffffc050304b7e:	4785                	li	a5,1
ffffffc050304b80:	aa45                	j	ffffffc050304d30 <EmacPsUtilRtlPhyLoopback+0x3f6>
ffffffc050304b82:	00006517          	auipc	a0,0x6
ffffffc050304b86:	7ee50513          	addi	a0,a0,2030 # ffffffc05030b370 <__FUNCTION__.1991+0x110>
ffffffc050304b8a:	046060ef          	jal	ra,ffffffc05030abd0 <printk>
ffffffc050304b8e:	fe640713          	addi	a4,s0,-26
ffffffc050304b92:	fd042783          	lw	a5,-48(s0)
ffffffc050304b96:	86ba                	mv	a3,a4
ffffffc050304b98:	464d                	li	a2,19
ffffffc050304b9a:	85be                	mv	a1,a5
ffffffc050304b9c:	fd843503          	ld	a0,-40(s0)
ffffffc050304ba0:	db9fe0ef          	jal	ra,ffffffc050303958 <XEmacPs_PhyRead>
ffffffc050304ba4:	fea43423          	sd	a0,-24(s0)
ffffffc050304ba8:	00006517          	auipc	a0,0x6
ffffffc050304bac:	7e850513          	addi	a0,a0,2024 # ffffffc05030b390 <__FUNCTION__.1991+0x130>
ffffffc050304bb0:	020060ef          	jal	ra,ffffffc05030abd0 <printk>
ffffffc050304bb4:	fe041223          	sh	zero,-28(s0)
ffffffc050304bb8:	00006517          	auipc	a0,0x6
ffffffc050304bbc:	7f050513          	addi	a0,a0,2032 # ffffffc05030b3a8 <__FUNCTION__.1991+0x148>
ffffffc050304bc0:	010060ef          	jal	ra,ffffffc05030abd0 <printk>
ffffffc050304bc4:	4529                	li	a0,10
ffffffc050304bc6:	45e000ef          	jal	ra,ffffffc050305024 <EmacpsDelay>
ffffffc050304bca:	fe440713          	addi	a4,s0,-28
ffffffc050304bce:	fd042783          	lw	a5,-48(s0)
ffffffc050304bd2:	86ba                	mv	a3,a4
ffffffc050304bd4:	4645                	li	a2,17
ffffffc050304bd6:	85be                	mv	a1,a5
ffffffc050304bd8:	fd843503          	ld	a0,-40(s0)
ffffffc050304bdc:	d7dfe0ef          	jal	ra,ffffffc050303958 <XEmacPs_PhyRead>
ffffffc050304be0:	fea43423          	sd	a0,-24(s0)
ffffffc050304be4:	fe445783          	lhu	a5,-28(s0)
ffffffc050304be8:	0007871b          	sext.w	a4,a5
ffffffc050304bec:	6785                	lui	a5,0x1
ffffffc050304bee:	c0078793          	addi	a5,a5,-1024 # c00 <_start-0xffffffc0502ff400>
ffffffc050304bf2:	8ff9                	and	a5,a5,a4
ffffffc050304bf4:	2781                	sext.w	a5,a5
ffffffc050304bf6:	873e                	mv	a4,a5
ffffffc050304bf8:	6785                	lui	a5,0x1
ffffffc050304bfa:	c0078793          	addi	a5,a5,-1024 # c00 <_start-0xffffffc0502ff400>
ffffffc050304bfe:	faf71de3          	bne	a4,a5,ffffffc050304bb8 <EmacPsUtilRtlPhyLoopback+0x27e>
ffffffc050304c02:	00006517          	auipc	a0,0x6
ffffffc050304c06:	7ae50513          	addi	a0,a0,1966 # ffffffc05030b3b0 <__FUNCTION__.1991+0x150>
ffffffc050304c0a:	7c7050ef          	jal	ra,ffffffc05030abd0 <printk>
ffffffc050304c0e:	fe041323          	sh	zero,-26(s0)
ffffffc050304c12:	fe640713          	addi	a4,s0,-26
ffffffc050304c16:	fd042783          	lw	a5,-48(s0)
ffffffc050304c1a:	86ba                	mv	a3,a4
ffffffc050304c1c:	4601                	li	a2,0
ffffffc050304c1e:	85be                	mv	a1,a5
ffffffc050304c20:	fd843503          	ld	a0,-40(s0)
ffffffc050304c24:	d35fe0ef          	jal	ra,ffffffc050303958 <XEmacPs_PhyRead>
ffffffc050304c28:	fea43423          	sd	a0,-24(s0)
ffffffc050304c2c:	fe843783          	ld	a5,-24(s0)
ffffffc050304c30:	cb89                	beqz	a5,ffffffc050304c42 <EmacPsUtilRtlPhyLoopback+0x308>
ffffffc050304c32:	00006517          	auipc	a0,0x6
ffffffc050304c36:	6e650513          	addi	a0,a0,1766 # ffffffc05030b318 <__FUNCTION__.1991+0xb8>
ffffffc050304c3a:	54a000ef          	jal	ra,ffffffc050305184 <EmacPsUtilErrorTrap>
ffffffc050304c3e:	4785                	li	a5,1
ffffffc050304c40:	a8c5                	j	ffffffc050304d30 <EmacPsUtilRtlPhyLoopback+0x3f6>
ffffffc050304c42:	fe645783          	lhu	a5,-26(s0)
ffffffc050304c46:	2781                	sext.w	a5,a5
ffffffc050304c48:	85be                	mv	a1,a5
ffffffc050304c4a:	00006517          	auipc	a0,0x6
ffffffc050304c4e:	77650513          	addi	a0,a0,1910 # ffffffc05030b3c0 <__FUNCTION__.1991+0x160>
ffffffc050304c52:	77f050ef          	jal	ra,ffffffc05030abd0 <printk>
ffffffc050304c56:	fe041323          	sh	zero,-26(s0)
ffffffc050304c5a:	fe640713          	addi	a4,s0,-26
ffffffc050304c5e:	fd042783          	lw	a5,-48(s0)
ffffffc050304c62:	86ba                	mv	a3,a4
ffffffc050304c64:	4605                	li	a2,1
ffffffc050304c66:	85be                	mv	a1,a5
ffffffc050304c68:	fd843503          	ld	a0,-40(s0)
ffffffc050304c6c:	cedfe0ef          	jal	ra,ffffffc050303958 <XEmacPs_PhyRead>
ffffffc050304c70:	fea43423          	sd	a0,-24(s0)
ffffffc050304c74:	fe843783          	ld	a5,-24(s0)
ffffffc050304c78:	cb89                	beqz	a5,ffffffc050304c8a <EmacPsUtilRtlPhyLoopback+0x350>
ffffffc050304c7a:	00006517          	auipc	a0,0x6
ffffffc050304c7e:	69e50513          	addi	a0,a0,1694 # ffffffc05030b318 <__FUNCTION__.1991+0xb8>
ffffffc050304c82:	502000ef          	jal	ra,ffffffc050305184 <EmacPsUtilErrorTrap>
ffffffc050304c86:	4785                	li	a5,1
ffffffc050304c88:	a065                	j	ffffffc050304d30 <EmacPsUtilRtlPhyLoopback+0x3f6>
ffffffc050304c8a:	fe645783          	lhu	a5,-26(s0)
ffffffc050304c8e:	2781                	sext.w	a5,a5
ffffffc050304c90:	85be                	mv	a1,a5
ffffffc050304c92:	00006517          	auipc	a0,0x6
ffffffc050304c96:	73e50513          	addi	a0,a0,1854 # ffffffc05030b3d0 <__FUNCTION__.1991+0x170>
ffffffc050304c9a:	737050ef          	jal	ra,ffffffc05030abd0 <printk>
ffffffc050304c9e:	fe041323          	sh	zero,-26(s0)
ffffffc050304ca2:	fe640713          	addi	a4,s0,-26
ffffffc050304ca6:	fd042783          	lw	a5,-48(s0)
ffffffc050304caa:	86ba                	mv	a3,a4
ffffffc050304cac:	4641                	li	a2,16
ffffffc050304cae:	85be                	mv	a1,a5
ffffffc050304cb0:	fd843503          	ld	a0,-40(s0)
ffffffc050304cb4:	ca5fe0ef          	jal	ra,ffffffc050303958 <XEmacPs_PhyRead>
ffffffc050304cb8:	fea43423          	sd	a0,-24(s0)
ffffffc050304cbc:	fe843783          	ld	a5,-24(s0)
ffffffc050304cc0:	cb89                	beqz	a5,ffffffc050304cd2 <EmacPsUtilRtlPhyLoopback+0x398>
ffffffc050304cc2:	00006517          	auipc	a0,0x6
ffffffc050304cc6:	65650513          	addi	a0,a0,1622 # ffffffc05030b318 <__FUNCTION__.1991+0xb8>
ffffffc050304cca:	4ba000ef          	jal	ra,ffffffc050305184 <EmacPsUtilErrorTrap>
ffffffc050304cce:	4785                	li	a5,1
ffffffc050304cd0:	a085                	j	ffffffc050304d30 <EmacPsUtilRtlPhyLoopback+0x3f6>
ffffffc050304cd2:	fe645783          	lhu	a5,-26(s0)
ffffffc050304cd6:	2781                	sext.w	a5,a5
ffffffc050304cd8:	85be                	mv	a1,a5
ffffffc050304cda:	00006517          	auipc	a0,0x6
ffffffc050304cde:	70650513          	addi	a0,a0,1798 # ffffffc05030b3e0 <__FUNCTION__.1991+0x180>
ffffffc050304ce2:	6ef050ef          	jal	ra,ffffffc05030abd0 <printk>
ffffffc050304ce6:	fe041323          	sh	zero,-26(s0)
ffffffc050304cea:	fe640713          	addi	a4,s0,-26
ffffffc050304cee:	fd042783          	lw	a5,-48(s0)
ffffffc050304cf2:	86ba                	mv	a3,a4
ffffffc050304cf4:	4645                	li	a2,17
ffffffc050304cf6:	85be                	mv	a1,a5
ffffffc050304cf8:	fd843503          	ld	a0,-40(s0)
ffffffc050304cfc:	c5dfe0ef          	jal	ra,ffffffc050303958 <XEmacPs_PhyRead>
ffffffc050304d00:	fea43423          	sd	a0,-24(s0)
ffffffc050304d04:	fe843783          	ld	a5,-24(s0)
ffffffc050304d08:	cb89                	beqz	a5,ffffffc050304d1a <EmacPsUtilRtlPhyLoopback+0x3e0>
ffffffc050304d0a:	00006517          	auipc	a0,0x6
ffffffc050304d0e:	60e50513          	addi	a0,a0,1550 # ffffffc05030b318 <__FUNCTION__.1991+0xb8>
ffffffc050304d12:	472000ef          	jal	ra,ffffffc050305184 <EmacPsUtilErrorTrap>
ffffffc050304d16:	4785                	li	a5,1
ffffffc050304d18:	a821                	j	ffffffc050304d30 <EmacPsUtilRtlPhyLoopback+0x3f6>
ffffffc050304d1a:	fe645783          	lhu	a5,-26(s0)
ffffffc050304d1e:	2781                	sext.w	a5,a5
ffffffc050304d20:	85be                	mv	a1,a5
ffffffc050304d22:	00006517          	auipc	a0,0x6
ffffffc050304d26:	6ce50513          	addi	a0,a0,1742 # ffffffc05030b3f0 <__FUNCTION__.1991+0x190>
ffffffc050304d2a:	6a7050ef          	jal	ra,ffffffc05030abd0 <printk>
ffffffc050304d2e:	4781                	li	a5,0
ffffffc050304d30:	853e                	mv	a0,a5
ffffffc050304d32:	70a2                	ld	ra,40(sp)
ffffffc050304d34:	7402                	ld	s0,32(sp)
ffffffc050304d36:	6145                	addi	sp,sp,48
ffffffc050304d38:	8082                	ret

ffffffc050304d3a <EmacPsUtilRtlPhyInit>:
ffffffc050304d3a:	715d                	addi	sp,sp,-80
ffffffc050304d3c:	e486                	sd	ra,72(sp)
ffffffc050304d3e:	e0a2                	sd	s0,64(sp)
ffffffc050304d40:	0880                	addi	s0,sp,80
ffffffc050304d42:	fca43423          	sd	a0,-56(s0)
ffffffc050304d46:	fcb43023          	sd	a1,-64(s0)
ffffffc050304d4a:	87b2                	mv	a5,a2
ffffffc050304d4c:	faf42e23          	sw	a5,-68(s0)
ffffffc050304d50:	fc041f23          	sh	zero,-34(s0)
ffffffc050304d54:	fbc42783          	lw	a5,-68(s0)
ffffffc050304d58:	14100693          	li	a3,321
ffffffc050304d5c:	4611                	li	a2,4
ffffffc050304d5e:	85be                	mv	a1,a5
ffffffc050304d60:	fc843503          	ld	a0,-56(s0)
ffffffc050304d64:	ccdfe0ef          	jal	ra,ffffffc050303a30 <XEmacPs_PhyWrite>
ffffffc050304d68:	fea43423          	sd	a0,-24(s0)
ffffffc050304d6c:	77e5                	lui	a5,0xffff9
ffffffc050304d6e:	fcf41f23          	sh	a5,-34(s0)
ffffffc050304d72:	fde45703          	lhu	a4,-34(s0)
ffffffc050304d76:	fbc42783          	lw	a5,-68(s0)
ffffffc050304d7a:	86ba                	mv	a3,a4
ffffffc050304d7c:	4601                	li	a2,0
ffffffc050304d7e:	85be                	mv	a1,a5
ffffffc050304d80:	fc843503          	ld	a0,-56(s0)
ffffffc050304d84:	cadfe0ef          	jal	ra,ffffffc050303a30 <XEmacPs_PhyWrite>
ffffffc050304d88:	fea43423          	sd	a0,-24(s0)
ffffffc050304d8c:	fde40713          	addi	a4,s0,-34
ffffffc050304d90:	fbc42783          	lw	a5,-68(s0)
ffffffc050304d94:	86ba                	mv	a3,a4
ffffffc050304d96:	4601                	li	a2,0
ffffffc050304d98:	85be                	mv	a1,a5
ffffffc050304d9a:	fc843503          	ld	a0,-56(s0)
ffffffc050304d9e:	bbbfe0ef          	jal	ra,ffffffc050303958 <XEmacPs_PhyRead>
ffffffc050304da2:	fea43423          	sd	a0,-24(s0)
ffffffc050304da6:	fe843783          	ld	a5,-24(s0)
ffffffc050304daa:	cb89                	beqz	a5,ffffffc050304dbc <EmacPsUtilRtlPhyInit+0x82>
ffffffc050304dac:	00006517          	auipc	a0,0x6
ffffffc050304db0:	55c50513          	addi	a0,a0,1372 # ffffffc05030b308 <__FUNCTION__.1991+0xa8>
ffffffc050304db4:	3d0000ef          	jal	ra,ffffffc050305184 <EmacPsUtilErrorTrap>
ffffffc050304db8:	4785                	li	a5,1
ffffffc050304dba:	a485                	j	ffffffc05030501a <EmacPsUtilRtlPhyInit+0x2e0>
ffffffc050304dbc:	fde45783          	lhu	a5,-34(s0)
ffffffc050304dc0:	2781                	sext.w	a5,a5
ffffffc050304dc2:	85be                	mv	a1,a5
ffffffc050304dc4:	00006517          	auipc	a0,0x6
ffffffc050304dc8:	58450513          	addi	a0,a0,1412 # ffffffc05030b348 <__FUNCTION__.1991+0xe8>
ffffffc050304dcc:	605050ef          	jal	ra,ffffffc05030abd0 <printk>
ffffffc050304dd0:	fbc42703          	lw	a4,-68(s0)
ffffffc050304dd4:	67a9                	lui	a5,0xa
ffffffc050304dd6:	f0178693          	addi	a3,a5,-255 # 9f01 <_start-0xffffffc0502f60ff>
ffffffc050304dda:	4649                	li	a2,18
ffffffc050304ddc:	85ba                	mv	a1,a4
ffffffc050304dde:	fc843503          	ld	a0,-56(s0)
ffffffc050304de2:	c4ffe0ef          	jal	ra,ffffffc050303a30 <XEmacPs_PhyWrite>
ffffffc050304de6:	fea43423          	sd	a0,-24(s0)
ffffffc050304dea:	fbc42783          	lw	a5,-68(s0)
ffffffc050304dee:	469d                	li	a3,7
ffffffc050304df0:	467d                	li	a2,31
ffffffc050304df2:	85be                	mv	a1,a5
ffffffc050304df4:	fc843503          	ld	a0,-56(s0)
ffffffc050304df8:	c39fe0ef          	jal	ra,ffffffc050303a30 <XEmacPs_PhyWrite>
ffffffc050304dfc:	fea43423          	sd	a0,-24(s0)
ffffffc050304e00:	fbc42783          	lw	a5,-68(s0)
ffffffc050304e04:	0a400693          	li	a3,164
ffffffc050304e08:	4679                	li	a2,30
ffffffc050304e0a:	85be                	mv	a1,a5
ffffffc050304e0c:	fc843503          	ld	a0,-56(s0)
ffffffc050304e10:	c21fe0ef          	jal	ra,ffffffc050303a30 <XEmacPs_PhyWrite>
ffffffc050304e14:	fea43423          	sd	a0,-24(s0)
ffffffc050304e18:	fde40713          	addi	a4,s0,-34
ffffffc050304e1c:	fbc42783          	lw	a5,-68(s0)
ffffffc050304e20:	86ba                	mv	a3,a4
ffffffc050304e22:	4671                	li	a2,28
ffffffc050304e24:	85be                	mv	a1,a5
ffffffc050304e26:	fc843503          	ld	a0,-56(s0)
ffffffc050304e2a:	b2ffe0ef          	jal	ra,ffffffc050303958 <XEmacPs_PhyRead>
ffffffc050304e2e:	fea43423          	sd	a0,-24(s0)
ffffffc050304e32:	fde45783          	lhu	a5,-34(s0)
ffffffc050304e36:	0067e793          	ori	a5,a5,6
ffffffc050304e3a:	17c2                	slli	a5,a5,0x30
ffffffc050304e3c:	93c1                	srli	a5,a5,0x30
ffffffc050304e3e:	fcf41f23          	sh	a5,-34(s0)
ffffffc050304e42:	fde45703          	lhu	a4,-34(s0)
ffffffc050304e46:	fbc42783          	lw	a5,-68(s0)
ffffffc050304e4a:	86ba                	mv	a3,a4
ffffffc050304e4c:	4671                	li	a2,28
ffffffc050304e4e:	85be                	mv	a1,a5
ffffffc050304e50:	fc843503          	ld	a0,-56(s0)
ffffffc050304e54:	bddfe0ef          	jal	ra,ffffffc050303a30 <XEmacPs_PhyWrite>
ffffffc050304e58:	fea43423          	sd	a0,-24(s0)
ffffffc050304e5c:	fbc42783          	lw	a5,-68(s0)
ffffffc050304e60:	4681                	li	a3,0
ffffffc050304e62:	467d                	li	a2,31
ffffffc050304e64:	85be                	mv	a1,a5
ffffffc050304e66:	fc843503          	ld	a0,-56(s0)
ffffffc050304e6a:	bc7fe0ef          	jal	ra,ffffffc050303a30 <XEmacPs_PhyWrite>
ffffffc050304e6e:	fea43423          	sd	a0,-24(s0)
ffffffc050304e72:	fde40713          	addi	a4,s0,-34
ffffffc050304e76:	fbc42783          	lw	a5,-68(s0)
ffffffc050304e7a:	86ba                	mv	a3,a4
ffffffc050304e7c:	464d                	li	a2,19
ffffffc050304e7e:	85be                	mv	a1,a5
ffffffc050304e80:	fc843503          	ld	a0,-56(s0)
ffffffc050304e84:	ad5fe0ef          	jal	ra,ffffffc050303958 <XEmacPs_PhyRead>
ffffffc050304e88:	fea43423          	sd	a0,-24(s0)
ffffffc050304e8c:	00006517          	auipc	a0,0x6
ffffffc050304e90:	57450513          	addi	a0,a0,1396 # ffffffc05030b400 <__FUNCTION__.1991+0x1a0>
ffffffc050304e94:	53d050ef          	jal	ra,ffffffc05030abd0 <printk>
ffffffc050304e98:	fc041e23          	sh	zero,-36(s0)
ffffffc050304e9c:	00006517          	auipc	a0,0x6
ffffffc050304ea0:	58450513          	addi	a0,a0,1412 # ffffffc05030b420 <__FUNCTION__.1991+0x1c0>
ffffffc050304ea4:	52d050ef          	jal	ra,ffffffc05030abd0 <printk>
ffffffc050304ea8:	4529                	li	a0,10
ffffffc050304eaa:	17a000ef          	jal	ra,ffffffc050305024 <EmacpsDelay>
ffffffc050304eae:	fdc40713          	addi	a4,s0,-36
ffffffc050304eb2:	fbc42783          	lw	a5,-68(s0)
ffffffc050304eb6:	86ba                	mv	a3,a4
ffffffc050304eb8:	4645                	li	a2,17
ffffffc050304eba:	85be                	mv	a1,a5
ffffffc050304ebc:	fc843503          	ld	a0,-56(s0)
ffffffc050304ec0:	a99fe0ef          	jal	ra,ffffffc050303958 <XEmacPs_PhyRead>
ffffffc050304ec4:	fea43423          	sd	a0,-24(s0)
ffffffc050304ec8:	fdc45783          	lhu	a5,-36(s0)
ffffffc050304ecc:	0007871b          	sext.w	a4,a5
ffffffc050304ed0:	6785                	lui	a5,0x1
ffffffc050304ed2:	c0078793          	addi	a5,a5,-1024 # c00 <_start-0xffffffc0502ff400>
ffffffc050304ed6:	8ff9                	and	a5,a5,a4
ffffffc050304ed8:	2781                	sext.w	a5,a5
ffffffc050304eda:	873e                	mv	a4,a5
ffffffc050304edc:	6785                	lui	a5,0x1
ffffffc050304ede:	c0078793          	addi	a5,a5,-1024 # c00 <_start-0xffffffc0502ff400>
ffffffc050304ee2:	faf71de3          	bne	a4,a5,ffffffc050304e9c <EmacPsUtilRtlPhyInit+0x162>
ffffffc050304ee6:	00006517          	auipc	a0,0x6
ffffffc050304eea:	4ca50513          	addi	a0,a0,1226 # ffffffc05030b3b0 <__FUNCTION__.1991+0x150>
ffffffc050304eee:	4e3050ef          	jal	ra,ffffffc05030abd0 <printk>
ffffffc050304ef2:	00006517          	auipc	a0,0x6
ffffffc050304ef6:	53650513          	addi	a0,a0,1334 # ffffffc05030b428 <__FUNCTION__.1991+0x1c8>
ffffffc050304efa:	4d7050ef          	jal	ra,ffffffc05030abd0 <printk>
ffffffc050304efe:	fc041d23          	sh	zero,-38(s0)
ffffffc050304f02:	00006517          	auipc	a0,0x6
ffffffc050304f06:	51e50513          	addi	a0,a0,1310 # ffffffc05030b420 <__FUNCTION__.1991+0x1c0>
ffffffc050304f0a:	4c7050ef          	jal	ra,ffffffc05030abd0 <printk>
ffffffc050304f0e:	4529                	li	a0,10
ffffffc050304f10:	114000ef          	jal	ra,ffffffc050305024 <EmacpsDelay>
ffffffc050304f14:	fda40713          	addi	a4,s0,-38
ffffffc050304f18:	fbc42783          	lw	a5,-68(s0)
ffffffc050304f1c:	86ba                	mv	a3,a4
ffffffc050304f1e:	4605                	li	a2,1
ffffffc050304f20:	85be                	mv	a1,a5
ffffffc050304f22:	fc843503          	ld	a0,-56(s0)
ffffffc050304f26:	a33fe0ef          	jal	ra,ffffffc050303958 <XEmacPs_PhyRead>
ffffffc050304f2a:	fea43423          	sd	a0,-24(s0)
ffffffc050304f2e:	fda45783          	lhu	a5,-38(s0)
ffffffc050304f32:	2781                	sext.w	a5,a5
ffffffc050304f34:	0207f793          	andi	a5,a5,32
ffffffc050304f38:	2781                	sext.w	a5,a5
ffffffc050304f3a:	d7e1                	beqz	a5,ffffffc050304f02 <EmacPsUtilRtlPhyInit+0x1c8>
ffffffc050304f3c:	00006517          	auipc	a0,0x6
ffffffc050304f40:	47450513          	addi	a0,a0,1140 # ffffffc05030b3b0 <__FUNCTION__.1991+0x150>
ffffffc050304f44:	48d050ef          	jal	ra,ffffffc05030abd0 <printk>
ffffffc050304f48:	fdc40713          	addi	a4,s0,-36
ffffffc050304f4c:	fbc42783          	lw	a5,-68(s0)
ffffffc050304f50:	86ba                	mv	a3,a4
ffffffc050304f52:	4645                	li	a2,17
ffffffc050304f54:	85be                	mv	a1,a5
ffffffc050304f56:	fc843503          	ld	a0,-56(s0)
ffffffc050304f5a:	9fffe0ef          	jal	ra,ffffffc050303958 <XEmacPs_PhyRead>
ffffffc050304f5e:	fea43423          	sd	a0,-24(s0)
ffffffc050304f62:	fdc45783          	lhu	a5,-36(s0)
ffffffc050304f66:	2781                	sext.w	a5,a5
ffffffc050304f68:	873e                	mv	a4,a5
ffffffc050304f6a:	67b1                	lui	a5,0xc
ffffffc050304f6c:	8ff9                	and	a5,a5,a4
ffffffc050304f6e:	fef42223          	sw	a5,-28(s0)
ffffffc050304f72:	fe442783          	lw	a5,-28(s0)
ffffffc050304f76:	0007871b          	sext.w	a4,a5
ffffffc050304f7a:	67a1                	lui	a5,0x8
ffffffc050304f7c:	04f70063          	beq	a4,a5,ffffffc050304fbc <EmacPsUtilRtlPhyInit+0x282>
ffffffc050304f80:	fe442783          	lw	a5,-28(s0)
ffffffc050304f84:	0007871b          	sext.w	a4,a5
ffffffc050304f88:	67a1                	lui	a5,0x8
ffffffc050304f8a:	02e7ef63          	bltu	a5,a4,ffffffc050304fc8 <EmacPsUtilRtlPhyInit+0x28e>
ffffffc050304f8e:	fe442783          	lw	a5,-28(s0)
ffffffc050304f92:	2781                	sext.w	a5,a5
ffffffc050304f94:	cb89                	beqz	a5,ffffffc050304fa6 <EmacPsUtilRtlPhyInit+0x26c>
ffffffc050304f96:	fe442783          	lw	a5,-28(s0)
ffffffc050304f9a:	0007871b          	sext.w	a4,a5
ffffffc050304f9e:	6791                	lui	a5,0x4
ffffffc050304fa0:	00f70863          	beq	a4,a5,ffffffc050304fb0 <EmacPsUtilRtlPhyInit+0x276>
ffffffc050304fa4:	a015                	j	ffffffc050304fc8 <EmacPsUtilRtlPhyInit+0x28e>
ffffffc050304fa6:	fc043783          	ld	a5,-64(s0)
ffffffc050304faa:	4729                	li	a4,10
ffffffc050304fac:	c398                	sw	a4,0(a5)
ffffffc050304fae:	a02d                	j	ffffffc050304fd8 <EmacPsUtilRtlPhyInit+0x29e>
ffffffc050304fb0:	fc043783          	ld	a5,-64(s0)
ffffffc050304fb4:	06400713          	li	a4,100
ffffffc050304fb8:	c398                	sw	a4,0(a5)
ffffffc050304fba:	a839                	j	ffffffc050304fd8 <EmacPsUtilRtlPhyInit+0x29e>
ffffffc050304fbc:	fc043783          	ld	a5,-64(s0)
ffffffc050304fc0:	3e800713          	li	a4,1000
ffffffc050304fc4:	c398                	sw	a4,0(a5)
ffffffc050304fc6:	a809                	j	ffffffc050304fd8 <EmacPsUtilRtlPhyInit+0x29e>
ffffffc050304fc8:	00006517          	auipc	a0,0x6
ffffffc050304fcc:	49050513          	addi	a0,a0,1168 # ffffffc05030b458 <__FUNCTION__.1991+0x1f8>
ffffffc050304fd0:	401050ef          	jal	ra,ffffffc05030abd0 <printk>
ffffffc050304fd4:	4785                	li	a5,1
ffffffc050304fd6:	a091                	j	ffffffc05030501a <EmacPsUtilRtlPhyInit+0x2e0>
ffffffc050304fd8:	fdc45783          	lhu	a5,-36(s0)
ffffffc050304fdc:	2781                	sext.w	a5,a5
ffffffc050304fde:	873e                	mv	a4,a5
ffffffc050304fe0:	6789                	lui	a5,0x2
ffffffc050304fe2:	8ff9                	and	a5,a5,a4
ffffffc050304fe4:	fef42023          	sw	a5,-32(s0)
ffffffc050304fe8:	fc043783          	ld	a5,-64(s0)
ffffffc050304fec:	4398                	lw	a4,0(a5)
ffffffc050304fee:	fe042783          	lw	a5,-32(s0)
ffffffc050304ff2:	2781                	sext.w	a5,a5
ffffffc050304ff4:	e791                	bnez	a5,ffffffc050305000 <EmacPsUtilRtlPhyInit+0x2c6>
ffffffc050304ff6:	00006797          	auipc	a5,0x6
ffffffc050304ffa:	47a78793          	addi	a5,a5,1146 # ffffffc05030b470 <__FUNCTION__.1991+0x210>
ffffffc050304ffe:	a029                	j	ffffffc050305008 <EmacPsUtilRtlPhyInit+0x2ce>
ffffffc050305000:	00006797          	auipc	a5,0x6
ffffffc050305004:	47878793          	addi	a5,a5,1144 # ffffffc05030b478 <__FUNCTION__.1991+0x218>
ffffffc050305008:	863e                	mv	a2,a5
ffffffc05030500a:	85ba                	mv	a1,a4
ffffffc05030500c:	00006517          	auipc	a0,0x6
ffffffc050305010:	47450513          	addi	a0,a0,1140 # ffffffc05030b480 <__FUNCTION__.1991+0x220>
ffffffc050305014:	3bd050ef          	jal	ra,ffffffc05030abd0 <printk>
ffffffc050305018:	4781                	li	a5,0
ffffffc05030501a:	853e                	mv	a0,a5
ffffffc05030501c:	60a6                	ld	ra,72(sp)
ffffffc05030501e:	6406                	ld	s0,64(sp)
ffffffc050305020:	6161                	addi	sp,sp,80
ffffffc050305022:	8082                	ret

ffffffc050305024 <EmacpsDelay>:
ffffffc050305024:	7179                	addi	sp,sp,-48
ffffffc050305026:	f422                	sd	s0,40(sp)
ffffffc050305028:	1800                	addi	s0,sp,48
ffffffc05030502a:	87aa                	mv	a5,a0
ffffffc05030502c:	fcf42e23          	sw	a5,-36(s0)
ffffffc050305030:	fe043423          	sd	zero,-24(s0)
ffffffc050305034:	a031                	j	ffffffc050305040 <EmacpsDelay+0x1c>
ffffffc050305036:	fe843783          	ld	a5,-24(s0)
ffffffc05030503a:	0785                	addi	a5,a5,1
ffffffc05030503c:	fef43423          	sd	a5,-24(s0)
ffffffc050305040:	fdc42703          	lw	a4,-36(s0)
ffffffc050305044:	87ba                	mv	a5,a4
ffffffc050305046:	0107979b          	slliw	a5,a5,0x10
ffffffc05030504a:	9f99                	subw	a5,a5,a4
ffffffc05030504c:	2781                	sext.w	a5,a5
ffffffc05030504e:	1782                	slli	a5,a5,0x20
ffffffc050305050:	9381                	srli	a5,a5,0x20
ffffffc050305052:	fe843703          	ld	a4,-24(s0)
ffffffc050305056:	fef760e3          	bltu	a4,a5,ffffffc050305036 <EmacpsDelay+0x12>
ffffffc05030505a:	0001                	nop
ffffffc05030505c:	0001                	nop
ffffffc05030505e:	7422                	ld	s0,40(sp)
ffffffc050305060:	6145                	addi	sp,sp,48
ffffffc050305062:	8082                	ret

ffffffc050305064 <EmacPsUtilEnterLoopback>:
ffffffc050305064:	7179                	addi	sp,sp,-48
ffffffc050305066:	f406                	sd	ra,40(sp)
ffffffc050305068:	f022                	sd	s0,32(sp)
ffffffc05030506a:	1800                	addi	s0,sp,48
ffffffc05030506c:	fca43c23          	sd	a0,-40(s0)
ffffffc050305070:	87ae                	mv	a5,a1
ffffffc050305072:	fcf42a23          	sw	a5,-44(s0)
ffffffc050305076:	fd843503          	ld	a0,-40(s0)
ffffffc05030507a:	fdffe0ef          	jal	ra,ffffffc050304058 <XEmacPsDetectPHY>
ffffffc05030507e:	87aa                	mv	a5,a0
ffffffc050305080:	fef42223          	sw	a5,-28(s0)
ffffffc050305084:	fe442783          	lw	a5,-28(s0)
ffffffc050305088:	0007871b          	sext.w	a4,a5
ffffffc05030508c:	47fd                	li	a5,31
ffffffc05030508e:	00e7fa63          	bgeu	a5,a4,ffffffc0503050a2 <EmacPsUtilEnterLoopback+0x3e>
ffffffc050305092:	00006517          	auipc	a0,0x6
ffffffc050305096:	41650513          	addi	a0,a0,1046 # ffffffc05030b4a8 <__FUNCTION__.1991+0x248>
ffffffc05030509a:	0ea000ef          	jal	ra,ffffffc050305184 <EmacPsUtilErrorTrap>
ffffffc05030509e:	4785                	li	a5,1
ffffffc0503050a0:	a8e9                	j	ffffffc05030517a <EmacPsUtilEnterLoopback+0x116>
ffffffc0503050a2:	fe240713          	addi	a4,s0,-30
ffffffc0503050a6:	fe442783          	lw	a5,-28(s0)
ffffffc0503050aa:	86ba                	mv	a3,a4
ffffffc0503050ac:	4609                	li	a2,2
ffffffc0503050ae:	85be                	mv	a1,a5
ffffffc0503050b0:	fd843503          	ld	a0,-40(s0)
ffffffc0503050b4:	8a5fe0ef          	jal	ra,ffffffc050303958 <XEmacPs_PhyRead>
ffffffc0503050b8:	87aa                	mv	a5,a0
ffffffc0503050ba:	c799                	beqz	a5,ffffffc0503050c8 <EmacPsUtilEnterLoopback+0x64>
ffffffc0503050bc:	00006517          	auipc	a0,0x6
ffffffc0503050c0:	40450513          	addi	a0,a0,1028 # ffffffc05030b4c0 <__FUNCTION__.1991+0x260>
ffffffc0503050c4:	0c0000ef          	jal	ra,ffffffc050305184 <EmacPsUtilErrorTrap>
ffffffc0503050c8:	fe245783          	lhu	a5,-30(s0)
ffffffc0503050cc:	0007871b          	sext.w	a4,a5
ffffffc0503050d0:	14100793          	li	a5,321
ffffffc0503050d4:	00f71f63          	bne	a4,a5,ffffffc0503050f2 <EmacPsUtilEnterLoopback+0x8e>
ffffffc0503050d8:	fe442703          	lw	a4,-28(s0)
ffffffc0503050dc:	fd442783          	lw	a5,-44(s0)
ffffffc0503050e0:	863a                	mv	a2,a4
ffffffc0503050e2:	85be                	mv	a1,a5
ffffffc0503050e4:	fd843503          	ld	a0,-40(s0)
ffffffc0503050e8:	826ff0ef          	jal	ra,ffffffc05030410e <EmacPsUtilMarvellPhyLoopback>
ffffffc0503050ec:	fea43423          	sd	a0,-24(s0)
ffffffc0503050f0:	a88d                	j	ffffffc050305162 <EmacPsUtilEnterLoopback+0xfe>
ffffffc0503050f2:	fe245783          	lhu	a5,-30(s0)
ffffffc0503050f6:	0007871b          	sext.w	a4,a5
ffffffc0503050fa:	6789                	lui	a5,0x2
ffffffc0503050fc:	00f71f63          	bne	a4,a5,ffffffc05030511a <EmacPsUtilEnterLoopback+0xb6>
ffffffc050305100:	fe442703          	lw	a4,-28(s0)
ffffffc050305104:	fd442783          	lw	a5,-44(s0)
ffffffc050305108:	863a                	mv	a2,a4
ffffffc05030510a:	85be                	mv	a1,a5
ffffffc05030510c:	fd843503          	ld	a0,-40(s0)
ffffffc050305110:	a94ff0ef          	jal	ra,ffffffc0503043a4 <EmacPsUtilTiPhyLoopback>
ffffffc050305114:	fea43423          	sd	a0,-24(s0)
ffffffc050305118:	a0a9                	j	ffffffc050305162 <EmacPsUtilEnterLoopback+0xfe>
ffffffc05030511a:	fe245783          	lhu	a5,-30(s0)
ffffffc05030511e:	0007871b          	sext.w	a4,a5
ffffffc050305122:	47f1                	li	a5,28
ffffffc050305124:	00f71f63          	bne	a4,a5,ffffffc050305142 <EmacPsUtilEnterLoopback+0xde>
ffffffc050305128:	fe442703          	lw	a4,-28(s0)
ffffffc05030512c:	fd442783          	lw	a5,-44(s0)
ffffffc050305130:	863a                	mv	a2,a4
ffffffc050305132:	85be                	mv	a1,a5
ffffffc050305134:	fd843503          	ld	a0,-40(s0)
ffffffc050305138:	803ff0ef          	jal	ra,ffffffc05030493a <EmacPsUtilRtlPhyLoopback>
ffffffc05030513c:	fea43423          	sd	a0,-24(s0)
ffffffc050305140:	a00d                	j	ffffffc050305162 <EmacPsUtilEnterLoopback+0xfe>
ffffffc050305142:	fe245783          	lhu	a5,-30(s0)
ffffffc050305146:	2781                	sext.w	a5,a5
ffffffc050305148:	85be                	mv	a1,a5
ffffffc05030514a:	00006517          	auipc	a0,0x6
ffffffc05030514e:	38650513          	addi	a0,a0,902 # ffffffc05030b4d0 <__FUNCTION__.1991+0x270>
ffffffc050305152:	27f050ef          	jal	ra,ffffffc05030abd0 <printk>
ffffffc050305156:	00006517          	auipc	a0,0x6
ffffffc05030515a:	39250513          	addi	a0,a0,914 # ffffffc05030b4e8 <__FUNCTION__.1991+0x288>
ffffffc05030515e:	026000ef          	jal	ra,ffffffc050305184 <EmacPsUtilErrorTrap>
ffffffc050305162:	fe843783          	ld	a5,-24(s0)
ffffffc050305166:	cb89                	beqz	a5,ffffffc050305178 <EmacPsUtilEnterLoopback+0x114>
ffffffc050305168:	00006517          	auipc	a0,0x6
ffffffc05030516c:	1b050513          	addi	a0,a0,432 # ffffffc05030b318 <__FUNCTION__.1991+0xb8>
ffffffc050305170:	014000ef          	jal	ra,ffffffc050305184 <EmacPsUtilErrorTrap>
ffffffc050305174:	4785                	li	a5,1
ffffffc050305176:	a011                	j	ffffffc05030517a <EmacPsUtilEnterLoopback+0x116>
ffffffc050305178:	4781                	li	a5,0
ffffffc05030517a:	853e                	mv	a0,a5
ffffffc05030517c:	70a2                	ld	ra,40(sp)
ffffffc05030517e:	7402                	ld	s0,32(sp)
ffffffc050305180:	6145                	addi	sp,sp,48
ffffffc050305182:	8082                	ret

ffffffc050305184 <EmacPsUtilErrorTrap>:
ffffffc050305184:	1101                	addi	sp,sp,-32
ffffffc050305186:	ec06                	sd	ra,24(sp)
ffffffc050305188:	e822                	sd	s0,16(sp)
ffffffc05030518a:	1000                	addi	s0,sp,32
ffffffc05030518c:	fea43423          	sd	a0,-24(s0)
ffffffc050305190:	00034797          	auipc	a5,0x34
ffffffc050305194:	33078793          	addi	a5,a5,816 # ffffffc0503394c0 <Count.1722>
ffffffc050305198:	439c                	lw	a5,0(a5)
ffffffc05030519a:	2785                	addiw	a5,a5,1
ffffffc05030519c:	0007871b          	sext.w	a4,a5
ffffffc0503051a0:	00034797          	auipc	a5,0x34
ffffffc0503051a4:	32078793          	addi	a5,a5,800 # ffffffc0503394c0 <Count.1722>
ffffffc0503051a8:	c398                	sw	a4,0(a5)
ffffffc0503051aa:	fe843583          	ld	a1,-24(s0)
ffffffc0503051ae:	00006517          	auipc	a0,0x6
ffffffc0503051b2:	35250513          	addi	a0,a0,850 # ffffffc05030b500 <__FUNCTION__.1991+0x2a0>
ffffffc0503051b6:	21b050ef          	jal	ra,ffffffc05030abd0 <printk>
ffffffc0503051ba:	a001                	j	ffffffc0503051ba <EmacPsUtilErrorTrap+0x36>

ffffffc0503051bc <writel>:
ffffffc0503051bc:	1101                	addi	sp,sp,-32
ffffffc0503051be:	ec22                	sd	s0,24(sp)
ffffffc0503051c0:	1000                	addi	s0,sp,32
ffffffc0503051c2:	87aa                	mv	a5,a0
ffffffc0503051c4:	feb43023          	sd	a1,-32(s0)
ffffffc0503051c8:	fef42623          	sw	a5,-20(s0)
ffffffc0503051cc:	0550000f          	fence	ow,ow
ffffffc0503051d0:	fe043783          	ld	a5,-32(s0)
ffffffc0503051d4:	fec42703          	lw	a4,-20(s0)
ffffffc0503051d8:	c398                	sw	a4,0(a5)
ffffffc0503051da:	0001                	nop
ffffffc0503051dc:	6462                	ld	s0,24(sp)
ffffffc0503051de:	6105                	addi	sp,sp,32
ffffffc0503051e0:	8082                	ret

ffffffc0503051e2 <readl>:
ffffffc0503051e2:	7179                	addi	sp,sp,-48
ffffffc0503051e4:	f422                	sd	s0,40(sp)
ffffffc0503051e6:	1800                	addi	s0,sp,48
ffffffc0503051e8:	fca43c23          	sd	a0,-40(s0)
ffffffc0503051ec:	fd843783          	ld	a5,-40(s0)
ffffffc0503051f0:	439c                	lw	a5,0(a5)
ffffffc0503051f2:	fef42623          	sw	a5,-20(s0)
ffffffc0503051f6:	0aa0000f          	fence	ir,ir
ffffffc0503051fa:	fec42783          	lw	a5,-20(s0)
ffffffc0503051fe:	853e                	mv	a0,a5
ffffffc050305200:	7422                	ld	s0,40(sp)
ffffffc050305202:	6145                	addi	sp,sp,48
ffffffc050305204:	8082                	ret

ffffffc050305206 <Xil_Out32>:
ffffffc050305206:	1101                	addi	sp,sp,-32
ffffffc050305208:	ec06                	sd	ra,24(sp)
ffffffc05030520a:	e822                	sd	s0,16(sp)
ffffffc05030520c:	1000                	addi	s0,sp,32
ffffffc05030520e:	fea43423          	sd	a0,-24(s0)
ffffffc050305212:	87ae                	mv	a5,a1
ffffffc050305214:	fef42223          	sw	a5,-28(s0)
ffffffc050305218:	fe843703          	ld	a4,-24(s0)
ffffffc05030521c:	fe442783          	lw	a5,-28(s0)
ffffffc050305220:	85ba                	mv	a1,a4
ffffffc050305222:	853e                	mv	a0,a5
ffffffc050305224:	f99ff0ef          	jal	ra,ffffffc0503051bc <writel>
ffffffc050305228:	0001                	nop
ffffffc05030522a:	60e2                	ld	ra,24(sp)
ffffffc05030522c:	6442                	ld	s0,16(sp)
ffffffc05030522e:	6105                	addi	sp,sp,32
ffffffc050305230:	8082                	ret

ffffffc050305232 <Xil_In32>:
ffffffc050305232:	1101                	addi	sp,sp,-32
ffffffc050305234:	ec06                	sd	ra,24(sp)
ffffffc050305236:	e822                	sd	s0,16(sp)
ffffffc050305238:	1000                	addi	s0,sp,32
ffffffc05030523a:	fea43423          	sd	a0,-24(s0)
ffffffc05030523e:	fe843783          	ld	a5,-24(s0)
ffffffc050305242:	853e                	mv	a0,a5
ffffffc050305244:	f9fff0ef          	jal	ra,ffffffc0503051e2 <readl>
ffffffc050305248:	87aa                	mv	a5,a0
ffffffc05030524a:	2781                	sext.w	a5,a5
ffffffc05030524c:	853e                	mv	a0,a5
ffffffc05030524e:	60e2                	ld	ra,24(sp)
ffffffc050305250:	6442                	ld	s0,16(sp)
ffffffc050305252:	6105                	addi	sp,sp,32
ffffffc050305254:	8082                	ret

ffffffc050305256 <XEmacPs_ResetHw>:
ffffffc050305256:	7179                	addi	sp,sp,-48
ffffffc050305258:	f406                	sd	ra,40(sp)
ffffffc05030525a:	f022                	sd	s0,32(sp)
ffffffc05030525c:	1800                	addi	s0,sp,48
ffffffc05030525e:	87aa                	mv	a5,a0
ffffffc050305260:	fcf42e23          	sw	a5,-36(s0)
ffffffc050305264:	fdc42783          	lw	a5,-36(s0)
ffffffc050305268:	02c7879b          	addiw	a5,a5,44
ffffffc05030526c:	2781                	sext.w	a5,a5
ffffffc05030526e:	1782                	slli	a5,a5,0x20
ffffffc050305270:	9381                	srli	a5,a5,0x20
ffffffc050305272:	4581                	li	a1,0
ffffffc050305274:	853e                	mv	a0,a5
ffffffc050305276:	f91ff0ef          	jal	ra,ffffffc050305206 <Xil_Out32>
ffffffc05030527a:	fdc46783          	lwu	a5,-36(s0)
ffffffc05030527e:	853e                	mv	a0,a5
ffffffc050305280:	fb3ff0ef          	jal	ra,ffffffc050305232 <Xil_In32>
ffffffc050305284:	87aa                	mv	a5,a0
ffffffc050305286:	fef42623          	sw	a5,-20(s0)
ffffffc05030528a:	fec42783          	lw	a5,-20(s0)
ffffffc05030528e:	bf17f793          	andi	a5,a5,-1039
ffffffc050305292:	fef42623          	sw	a5,-20(s0)
ffffffc050305296:	fec42703          	lw	a4,-20(s0)
ffffffc05030529a:	000407b7          	lui	a5,0x40
ffffffc05030529e:	02078793          	addi	a5,a5,32 # 40020 <_start-0xffffffc0502bffe0>
ffffffc0503052a2:	8fd9                	or	a5,a5,a4
ffffffc0503052a4:	fef42623          	sw	a5,-20(s0)
ffffffc0503052a8:	fdc46783          	lwu	a5,-36(s0)
ffffffc0503052ac:	fec42703          	lw	a4,-20(s0)
ffffffc0503052b0:	85ba                	mv	a1,a4
ffffffc0503052b2:	853e                	mv	a0,a5
ffffffc0503052b4:	f53ff0ef          	jal	ra,ffffffc050305206 <Xil_Out32>
ffffffc0503052b8:	fdc42783          	lw	a5,-36(s0)
ffffffc0503052bc:	0247879b          	addiw	a5,a5,36
ffffffc0503052c0:	2781                	sext.w	a5,a5
ffffffc0503052c2:	02079713          	slli	a4,a5,0x20
ffffffc0503052c6:	9301                	srli	a4,a4,0x20
ffffffc0503052c8:	67a1                	lui	a5,0x8
ffffffc0503052ca:	fff78593          	addi	a1,a5,-1 # 7fff <_start-0xffffffc0502f8001>
ffffffc0503052ce:	853a                	mv	a0,a4
ffffffc0503052d0:	f37ff0ef          	jal	ra,ffffffc050305206 <Xil_Out32>
ffffffc0503052d4:	fdc42783          	lw	a5,-36(s0)
ffffffc0503052d8:	27d1                	addiw	a5,a5,20
ffffffc0503052da:	2781                	sext.w	a5,a5
ffffffc0503052dc:	1782                	slli	a5,a5,0x20
ffffffc0503052de:	9381                	srli	a5,a5,0x20
ffffffc0503052e0:	17f00593          	li	a1,383
ffffffc0503052e4:	853e                	mv	a0,a5
ffffffc0503052e6:	f21ff0ef          	jal	ra,ffffffc050305206 <Xil_Out32>
ffffffc0503052ea:	fdc42783          	lw	a5,-36(s0)
ffffffc0503052ee:	0207879b          	addiw	a5,a5,32
ffffffc0503052f2:	2781                	sext.w	a5,a5
ffffffc0503052f4:	1782                	slli	a5,a5,0x20
ffffffc0503052f6:	9381                	srli	a5,a5,0x20
ffffffc0503052f8:	4589                	li	a1,2
ffffffc0503052fa:	853e                	mv	a0,a5
ffffffc0503052fc:	f0bff0ef          	jal	ra,ffffffc050305206 <Xil_Out32>
ffffffc050305300:	fdc42783          	lw	a5,-36(s0)
ffffffc050305304:	27f1                	addiw	a5,a5,28
ffffffc050305306:	2781                	sext.w	a5,a5
ffffffc050305308:	1782                	slli	a5,a5,0x20
ffffffc05030530a:	9381                	srli	a5,a5,0x20
ffffffc05030530c:	4581                	li	a1,0
ffffffc05030530e:	853e                	mv	a0,a5
ffffffc050305310:	ef7ff0ef          	jal	ra,ffffffc050305206 <Xil_Out32>
ffffffc050305314:	fdc42783          	lw	a5,-36(s0)
ffffffc050305318:	27e1                	addiw	a5,a5,24
ffffffc05030531a:	2781                	sext.w	a5,a5
ffffffc05030531c:	1782                	slli	a5,a5,0x20
ffffffc05030531e:	9381                	srli	a5,a5,0x20
ffffffc050305320:	4581                	li	a1,0
ffffffc050305322:	853e                	mv	a0,a5
ffffffc050305324:	ee3ff0ef          	jal	ra,ffffffc050305206 <Xil_Out32>
ffffffc050305328:	fdc42783          	lw	a5,-36(s0)
ffffffc05030532c:	2791                	addiw	a5,a5,4
ffffffc05030532e:	2781                	sext.w	a5,a5
ffffffc050305330:	1782                	slli	a5,a5,0x20
ffffffc050305332:	9381                	srli	a5,a5,0x20
ffffffc050305334:	000805b7          	lui	a1,0x80
ffffffc050305338:	853e                	mv	a0,a5
ffffffc05030533a:	ecdff0ef          	jal	ra,ffffffc050305206 <Xil_Out32>
ffffffc05030533e:	fdc42783          	lw	a5,-36(s0)
ffffffc050305342:	0807879b          	addiw	a5,a5,128
ffffffc050305346:	2781                	sext.w	a5,a5
ffffffc050305348:	1782                	slli	a5,a5,0x20
ffffffc05030534a:	9381                	srli	a5,a5,0x20
ffffffc05030534c:	4581                	li	a1,0
ffffffc05030534e:	853e                	mv	a0,a5
ffffffc050305350:	eb7ff0ef          	jal	ra,ffffffc050305206 <Xil_Out32>
ffffffc050305354:	fdc42783          	lw	a5,-36(s0)
ffffffc050305358:	0847879b          	addiw	a5,a5,132
ffffffc05030535c:	2781                	sext.w	a5,a5
ffffffc05030535e:	1782                	slli	a5,a5,0x20
ffffffc050305360:	9381                	srli	a5,a5,0x20
ffffffc050305362:	4581                	li	a1,0
ffffffc050305364:	853e                	mv	a0,a5
ffffffc050305366:	ea1ff0ef          	jal	ra,ffffffc050305206 <Xil_Out32>
ffffffc05030536a:	0001                	nop
ffffffc05030536c:	70a2                	ld	ra,40(sp)
ffffffc05030536e:	7402                	ld	s0,32(sp)
ffffffc050305370:	6145                	addi	sp,sp,48
ffffffc050305372:	8082                	ret

ffffffc050305374 <writel>:
ffffffc050305374:	1101                	addi	sp,sp,-32
ffffffc050305376:	ec22                	sd	s0,24(sp)
ffffffc050305378:	1000                	addi	s0,sp,32
ffffffc05030537a:	87aa                	mv	a5,a0
ffffffc05030537c:	feb43023          	sd	a1,-32(s0)
ffffffc050305380:	fef42623          	sw	a5,-20(s0)
ffffffc050305384:	0550000f          	fence	ow,ow
ffffffc050305388:	fe043783          	ld	a5,-32(s0)
ffffffc05030538c:	fec42703          	lw	a4,-20(s0)
ffffffc050305390:	c398                	sw	a4,0(a5)
ffffffc050305392:	0001                	nop
ffffffc050305394:	6462                	ld	s0,24(sp)
ffffffc050305396:	6105                	addi	sp,sp,32
ffffffc050305398:	8082                	ret

ffffffc05030539a <readl>:
ffffffc05030539a:	7179                	addi	sp,sp,-48
ffffffc05030539c:	f422                	sd	s0,40(sp)
ffffffc05030539e:	1800                	addi	s0,sp,48
ffffffc0503053a0:	fca43c23          	sd	a0,-40(s0)
ffffffc0503053a4:	fd843783          	ld	a5,-40(s0)
ffffffc0503053a8:	439c                	lw	a5,0(a5)
ffffffc0503053aa:	fef42623          	sw	a5,-20(s0)
ffffffc0503053ae:	0aa0000f          	fence	ir,ir
ffffffc0503053b2:	fec42783          	lw	a5,-20(s0)
ffffffc0503053b6:	853e                	mv	a0,a5
ffffffc0503053b8:	7422                	ld	s0,40(sp)
ffffffc0503053ba:	6145                	addi	sp,sp,48
ffffffc0503053bc:	8082                	ret

ffffffc0503053be <Xil_Out32>:
ffffffc0503053be:	1101                	addi	sp,sp,-32
ffffffc0503053c0:	ec06                	sd	ra,24(sp)
ffffffc0503053c2:	e822                	sd	s0,16(sp)
ffffffc0503053c4:	1000                	addi	s0,sp,32
ffffffc0503053c6:	fea43423          	sd	a0,-24(s0)
ffffffc0503053ca:	87ae                	mv	a5,a1
ffffffc0503053cc:	fef42223          	sw	a5,-28(s0)
ffffffc0503053d0:	fe843703          	ld	a4,-24(s0)
ffffffc0503053d4:	fe442783          	lw	a5,-28(s0)
ffffffc0503053d8:	85ba                	mv	a1,a4
ffffffc0503053da:	853e                	mv	a0,a5
ffffffc0503053dc:	f99ff0ef          	jal	ra,ffffffc050305374 <writel>
ffffffc0503053e0:	0001                	nop
ffffffc0503053e2:	60e2                	ld	ra,24(sp)
ffffffc0503053e4:	6442                	ld	s0,16(sp)
ffffffc0503053e6:	6105                	addi	sp,sp,32
ffffffc0503053e8:	8082                	ret

ffffffc0503053ea <Xil_In32>:
ffffffc0503053ea:	1101                	addi	sp,sp,-32
ffffffc0503053ec:	ec06                	sd	ra,24(sp)
ffffffc0503053ee:	e822                	sd	s0,16(sp)
ffffffc0503053f0:	1000                	addi	s0,sp,32
ffffffc0503053f2:	fea43423          	sd	a0,-24(s0)
ffffffc0503053f6:	fe843783          	ld	a5,-24(s0)
ffffffc0503053fa:	853e                	mv	a0,a5
ffffffc0503053fc:	f9fff0ef          	jal	ra,ffffffc05030539a <readl>
ffffffc050305400:	87aa                	mv	a5,a0
ffffffc050305402:	2781                	sext.w	a5,a5
ffffffc050305404:	853e                	mv	a0,a5
ffffffc050305406:	60e2                	ld	ra,24(sp)
ffffffc050305408:	6442                	ld	s0,16(sp)
ffffffc05030540a:	6105                	addi	sp,sp,32
ffffffc05030540c:	8082                	ret

ffffffc05030540e <XEmacPs_SetHandler>:
ffffffc05030540e:	7139                	addi	sp,sp,-64
ffffffc050305410:	fc22                	sd	s0,56(sp)
ffffffc050305412:	0080                	addi	s0,sp,64
ffffffc050305414:	fca43c23          	sd	a0,-40(s0)
ffffffc050305418:	87ae                	mv	a5,a1
ffffffc05030541a:	fcc43423          	sd	a2,-56(s0)
ffffffc05030541e:	fcd43023          	sd	a3,-64(s0)
ffffffc050305422:	fcf42a23          	sw	a5,-44(s0)
ffffffc050305426:	fd442783          	lw	a5,-44(s0)
ffffffc05030542a:	0007871b          	sext.w	a4,a5
ffffffc05030542e:	478d                	li	a5,3
ffffffc050305430:	06f70663          	beq	a4,a5,ffffffc05030549c <XEmacPs_SetHandler+0x8e>
ffffffc050305434:	fd442783          	lw	a5,-44(s0)
ffffffc050305438:	0007871b          	sext.w	a4,a5
ffffffc05030543c:	478d                	li	a5,3
ffffffc05030543e:	06e7ee63          	bltu	a5,a4,ffffffc0503054ba <XEmacPs_SetHandler+0xac>
ffffffc050305442:	fd442783          	lw	a5,-44(s0)
ffffffc050305446:	0007871b          	sext.w	a4,a5
ffffffc05030544a:	4785                	li	a5,1
ffffffc05030544c:	00f70a63          	beq	a4,a5,ffffffc050305460 <XEmacPs_SetHandler+0x52>
ffffffc050305450:	fd442783          	lw	a5,-44(s0)
ffffffc050305454:	0007871b          	sext.w	a4,a5
ffffffc050305458:	4789                	li	a5,2
ffffffc05030545a:	02f70263          	beq	a4,a5,ffffffc05030547e <XEmacPs_SetHandler+0x70>
ffffffc05030545e:	a8b1                	j	ffffffc0503054ba <XEmacPs_SetHandler+0xac>
ffffffc050305460:	fe043423          	sd	zero,-24(s0)
ffffffc050305464:	fc843703          	ld	a4,-56(s0)
ffffffc050305468:	fd843783          	ld	a5,-40(s0)
ffffffc05030546c:	10e7b423          	sd	a4,264(a5)
ffffffc050305470:	fd843783          	ld	a5,-40(s0)
ffffffc050305474:	fc043703          	ld	a4,-64(s0)
ffffffc050305478:	10e7bc23          	sd	a4,280(a5)
ffffffc05030547c:	a099                	j	ffffffc0503054c2 <XEmacPs_SetHandler+0xb4>
ffffffc05030547e:	fe043423          	sd	zero,-24(s0)
ffffffc050305482:	fc843703          	ld	a4,-56(s0)
ffffffc050305486:	fd843783          	ld	a5,-40(s0)
ffffffc05030548a:	10e7b823          	sd	a4,272(a5)
ffffffc05030548e:	fd843783          	ld	a5,-40(s0)
ffffffc050305492:	fc043703          	ld	a4,-64(s0)
ffffffc050305496:	12e7b023          	sd	a4,288(a5)
ffffffc05030549a:	a025                	j	ffffffc0503054c2 <XEmacPs_SetHandler+0xb4>
ffffffc05030549c:	fe043423          	sd	zero,-24(s0)
ffffffc0503054a0:	fc843703          	ld	a4,-56(s0)
ffffffc0503054a4:	fd843783          	ld	a5,-40(s0)
ffffffc0503054a8:	12e7b423          	sd	a4,296(a5)
ffffffc0503054ac:	fd843783          	ld	a5,-40(s0)
ffffffc0503054b0:	fc043703          	ld	a4,-64(s0)
ffffffc0503054b4:	12e7b823          	sd	a4,304(a5)
ffffffc0503054b8:	a029                	j	ffffffc0503054c2 <XEmacPs_SetHandler+0xb4>
ffffffc0503054ba:	47bd                	li	a5,15
ffffffc0503054bc:	fef43423          	sd	a5,-24(s0)
ffffffc0503054c0:	0001                	nop
ffffffc0503054c2:	fe843783          	ld	a5,-24(s0)
ffffffc0503054c6:	853e                	mv	a0,a5
ffffffc0503054c8:	7462                	ld	s0,56(sp)
ffffffc0503054ca:	6121                	addi	sp,sp,64
ffffffc0503054cc:	8082                	ret

ffffffc0503054ce <XEmacPs_IntrHandler>:
ffffffc0503054ce:	7139                	addi	sp,sp,-64
ffffffc0503054d0:	fc06                	sd	ra,56(sp)
ffffffc0503054d2:	f822                	sd	s0,48(sp)
ffffffc0503054d4:	0080                	addi	s0,sp,64
ffffffc0503054d6:	fca43423          	sd	a0,-56(s0)
ffffffc0503054da:	fc843783          	ld	a5,-56(s0)
ffffffc0503054de:	fef43423          	sd	a5,-24(s0)
ffffffc0503054e2:	fe843783          	ld	a5,-24(s0)
ffffffc0503054e6:	679c                	ld	a5,8(a5)
ffffffc0503054e8:	02478793          	addi	a5,a5,36
ffffffc0503054ec:	853e                	mv	a0,a5
ffffffc0503054ee:	efdff0ef          	jal	ra,ffffffc0503053ea <Xil_In32>
ffffffc0503054f2:	87aa                	mv	a5,a0
ffffffc0503054f4:	fef42223          	sw	a5,-28(s0)
ffffffc0503054f8:	fe843783          	ld	a5,-24(s0)
ffffffc0503054fc:	679c                	ld	a5,8(a5)
ffffffc0503054fe:	02478793          	addi	a5,a5,36
ffffffc050305502:	fe442703          	lw	a4,-28(s0)
ffffffc050305506:	85ba                	mv	a1,a4
ffffffc050305508:	853e                	mv	a0,a5
ffffffc05030550a:	eb5ff0ef          	jal	ra,ffffffc0503053be <Xil_Out32>
ffffffc05030550e:	fe442783          	lw	a5,-28(s0)
ffffffc050305512:	8b89                	andi	a5,a5,2
ffffffc050305514:	2781                	sext.w	a5,a5
ffffffc050305516:	c785                	beqz	a5,ffffffc05030553e <XEmacPs_IntrHandler+0x70>
ffffffc050305518:	fe843783          	ld	a5,-24(s0)
ffffffc05030551c:	679c                	ld	a5,8(a5)
ffffffc05030551e:	02078793          	addi	a5,a5,32
ffffffc050305522:	458d                	li	a1,3
ffffffc050305524:	853e                	mv	a0,a5
ffffffc050305526:	e99ff0ef          	jal	ra,ffffffc0503053be <Xil_Out32>
ffffffc05030552a:	fe843783          	ld	a5,-24(s0)
ffffffc05030552e:	1107b703          	ld	a4,272(a5)
ffffffc050305532:	fe843783          	ld	a5,-24(s0)
ffffffc050305536:	1207b783          	ld	a5,288(a5)
ffffffc05030553a:	853e                	mv	a0,a5
ffffffc05030553c:	9702                	jalr	a4
ffffffc05030553e:	fe442783          	lw	a5,-28(s0)
ffffffc050305542:	0807f793          	andi	a5,a5,128
ffffffc050305546:	2781                	sext.w	a5,a5
ffffffc050305548:	c785                	beqz	a5,ffffffc050305570 <XEmacPs_IntrHandler+0xa2>
ffffffc05030554a:	fe843783          	ld	a5,-24(s0)
ffffffc05030554e:	679c                	ld	a5,8(a5)
ffffffc050305550:	07d1                	addi	a5,a5,20
ffffffc050305552:	02100593          	li	a1,33
ffffffc050305556:	853e                	mv	a0,a5
ffffffc050305558:	e67ff0ef          	jal	ra,ffffffc0503053be <Xil_Out32>
ffffffc05030555c:	fe843783          	ld	a5,-24(s0)
ffffffc050305560:	1087b703          	ld	a4,264(a5)
ffffffc050305564:	fe843783          	ld	a5,-24(s0)
ffffffc050305568:	1187b783          	ld	a5,280(a5)
ffffffc05030556c:	853e                	mv	a0,a5
ffffffc05030556e:	9702                	jalr	a4
ffffffc050305570:	fe442703          	lw	a4,-28(s0)
ffffffc050305574:	6785                	lui	a5,0x1
ffffffc050305576:	c0478793          	addi	a5,a5,-1020 # c04 <_start-0xffffffc0502ff3fc>
ffffffc05030557a:	8ff9                	and	a5,a5,a4
ffffffc05030557c:	2781                	sext.w	a5,a5
ffffffc05030557e:	c7d9                	beqz	a5,ffffffc05030560c <XEmacPs_IntrHandler+0x13e>
ffffffc050305580:	fe843783          	ld	a5,-24(s0)
ffffffc050305584:	679c                	ld	a5,8(a5)
ffffffc050305586:	02078793          	addi	a5,a5,32
ffffffc05030558a:	853e                	mv	a0,a5
ffffffc05030558c:	e5fff0ef          	jal	ra,ffffffc0503053ea <Xil_In32>
ffffffc050305590:	87aa                	mv	a5,a0
ffffffc050305592:	fef42023          	sw	a5,-32(s0)
ffffffc050305596:	fe843783          	ld	a5,-24(s0)
ffffffc05030559a:	679c                	ld	a5,8(a5)
ffffffc05030559c:	02078793          	addi	a5,a5,32
ffffffc0503055a0:	fe042703          	lw	a4,-32(s0)
ffffffc0503055a4:	85ba                	mv	a1,a4
ffffffc0503055a6:	853e                	mv	a0,a5
ffffffc0503055a8:	e17ff0ef          	jal	ra,ffffffc0503053be <Xil_Out32>
ffffffc0503055ac:	fe442783          	lw	a5,-28(s0)
ffffffc0503055b0:	8b91                	andi	a5,a5,4
ffffffc0503055b2:	2781                	sext.w	a5,a5
ffffffc0503055b4:	cb95                	beqz	a5,ffffffc0503055e8 <XEmacPs_IntrHandler+0x11a>
ffffffc0503055b6:	fe843783          	ld	a5,-24(s0)
ffffffc0503055ba:	679c                	ld	a5,8(a5)
ffffffc0503055bc:	853e                	mv	a0,a5
ffffffc0503055be:	e2dff0ef          	jal	ra,ffffffc0503053ea <Xil_In32>
ffffffc0503055c2:	87aa                	mv	a5,a0
ffffffc0503055c4:	fcf42e23          	sw	a5,-36(s0)
ffffffc0503055c8:	fdc42703          	lw	a4,-36(s0)
ffffffc0503055cc:	000407b7          	lui	a5,0x40
ffffffc0503055d0:	8fd9                	or	a5,a5,a4
ffffffc0503055d2:	fcf42e23          	sw	a5,-36(s0)
ffffffc0503055d6:	fe843783          	ld	a5,-24(s0)
ffffffc0503055da:	679c                	ld	a5,8(a5)
ffffffc0503055dc:	fdc42703          	lw	a4,-36(s0)
ffffffc0503055e0:	85ba                	mv	a1,a4
ffffffc0503055e2:	853e                	mv	a0,a5
ffffffc0503055e4:	ddbff0ef          	jal	ra,ffffffc0503053be <Xil_Out32>
ffffffc0503055e8:	fe042783          	lw	a5,-32(s0)
ffffffc0503055ec:	2781                	sext.w	a5,a5
ffffffc0503055ee:	cf99                	beqz	a5,ffffffc05030560c <XEmacPs_IntrHandler+0x13e>
ffffffc0503055f0:	fe843783          	ld	a5,-24(s0)
ffffffc0503055f4:	1287b683          	ld	a3,296(a5) # 40128 <_start-0xffffffc0502bfed8>
ffffffc0503055f8:	fe843783          	ld	a5,-24(s0)
ffffffc0503055fc:	1307b783          	ld	a5,304(a5)
ffffffc050305600:	fe042703          	lw	a4,-32(s0)
ffffffc050305604:	863a                	mv	a2,a4
ffffffc050305606:	4589                	li	a1,2
ffffffc050305608:	853e                	mv	a0,a5
ffffffc05030560a:	9682                	jalr	a3
ffffffc05030560c:	fe442783          	lw	a5,-28(s0)
ffffffc050305610:	0707f793          	andi	a5,a5,112
ffffffc050305614:	2781                	sext.w	a5,a5
ffffffc050305616:	cfa9                	beqz	a5,ffffffc050305670 <XEmacPs_IntrHandler+0x1a2>
ffffffc050305618:	fe442783          	lw	a5,-28(s0)
ffffffc05030561c:	0807f793          	andi	a5,a5,128
ffffffc050305620:	2781                	sext.w	a5,a5
ffffffc050305622:	e399                	bnez	a5,ffffffc050305628 <XEmacPs_IntrHandler+0x15a>
ffffffc050305624:	4785                	li	a5,1
ffffffc050305626:	a011                	j	ffffffc05030562a <XEmacPs_IntrHandler+0x15c>
ffffffc050305628:	4781                	li	a5,0
ffffffc05030562a:	c3b9                	beqz	a5,ffffffc050305670 <XEmacPs_IntrHandler+0x1a2>
ffffffc05030562c:	fe843783          	ld	a5,-24(s0)
ffffffc050305630:	679c                	ld	a5,8(a5)
ffffffc050305632:	07d1                	addi	a5,a5,20
ffffffc050305634:	853e                	mv	a0,a5
ffffffc050305636:	db5ff0ef          	jal	ra,ffffffc0503053ea <Xil_In32>
ffffffc05030563a:	87aa                	mv	a5,a0
ffffffc05030563c:	fef42023          	sw	a5,-32(s0)
ffffffc050305640:	fe843783          	ld	a5,-24(s0)
ffffffc050305644:	679c                	ld	a5,8(a5)
ffffffc050305646:	07d1                	addi	a5,a5,20
ffffffc050305648:	fe042703          	lw	a4,-32(s0)
ffffffc05030564c:	85ba                	mv	a1,a4
ffffffc05030564e:	853e                	mv	a0,a5
ffffffc050305650:	d6fff0ef          	jal	ra,ffffffc0503053be <Xil_Out32>
ffffffc050305654:	fe843783          	ld	a5,-24(s0)
ffffffc050305658:	1287b683          	ld	a3,296(a5)
ffffffc05030565c:	fe843783          	ld	a5,-24(s0)
ffffffc050305660:	1307b783          	ld	a5,304(a5)
ffffffc050305664:	fe042703          	lw	a4,-32(s0)
ffffffc050305668:	863a                	mv	a2,a4
ffffffc05030566a:	4585                	li	a1,1
ffffffc05030566c:	853e                	mv	a0,a5
ffffffc05030566e:	9682                	jalr	a3
ffffffc050305670:	0001                	nop
ffffffc050305672:	70e2                	ld	ra,56(sp)
ffffffc050305674:	7442                	ld	s0,48(sp)
ffffffc050305676:	6121                	addi	sp,sp,64
ffffffc050305678:	8082                	ret

ffffffc05030567a <writel>:
ffffffc05030567a:	1101                	addi	sp,sp,-32
ffffffc05030567c:	ec22                	sd	s0,24(sp)
ffffffc05030567e:	1000                	addi	s0,sp,32
ffffffc050305680:	87aa                	mv	a5,a0
ffffffc050305682:	feb43023          	sd	a1,-32(s0)
ffffffc050305686:	fef42623          	sw	a5,-20(s0)
ffffffc05030568a:	0550000f          	fence	ow,ow
ffffffc05030568e:	fe043783          	ld	a5,-32(s0)
ffffffc050305692:	fec42703          	lw	a4,-20(s0)
ffffffc050305696:	c398                	sw	a4,0(a5)
ffffffc050305698:	0001                	nop
ffffffc05030569a:	6462                	ld	s0,24(sp)
ffffffc05030569c:	6105                	addi	sp,sp,32
ffffffc05030569e:	8082                	ret

ffffffc0503056a0 <readl>:
ffffffc0503056a0:	7179                	addi	sp,sp,-48
ffffffc0503056a2:	f422                	sd	s0,40(sp)
ffffffc0503056a4:	1800                	addi	s0,sp,48
ffffffc0503056a6:	fca43c23          	sd	a0,-40(s0)
ffffffc0503056aa:	fd843783          	ld	a5,-40(s0)
ffffffc0503056ae:	439c                	lw	a5,0(a5)
ffffffc0503056b0:	fef42623          	sw	a5,-20(s0)
ffffffc0503056b4:	0aa0000f          	fence	ir,ir
ffffffc0503056b8:	fec42783          	lw	a5,-20(s0)
ffffffc0503056bc:	853e                	mv	a0,a5
ffffffc0503056be:	7422                	ld	s0,40(sp)
ffffffc0503056c0:	6145                	addi	sp,sp,48
ffffffc0503056c2:	8082                	ret

ffffffc0503056c4 <local_flush_dcache_all>:
ffffffc0503056c4:	1141                	addi	sp,sp,-16
ffffffc0503056c6:	e422                	sd	s0,8(sp)
ffffffc0503056c8:	0800                	addi	s0,sp,16
ffffffc0503056ca:	0ff0000f          	fence
ffffffc0503056ce:	0001                	nop
ffffffc0503056d0:	6422                	ld	s0,8(sp)
ffffffc0503056d2:	0141                	addi	sp,sp,16
ffffffc0503056d4:	8082                	ret

ffffffc0503056d6 <kva2pa>:
ffffffc0503056d6:	1101                	addi	sp,sp,-32
ffffffc0503056d8:	ec22                	sd	s0,24(sp)
ffffffc0503056da:	1000                	addi	s0,sp,32
ffffffc0503056dc:	fea43423          	sd	a0,-24(s0)
ffffffc0503056e0:	fe843703          	ld	a4,-24(s0)
ffffffc0503056e4:	4785                	li	a5,1
ffffffc0503056e6:	179a                	slli	a5,a5,0x26
ffffffc0503056e8:	97ba                	add	a5,a5,a4
ffffffc0503056ea:	853e                	mv	a0,a5
ffffffc0503056ec:	6462                	ld	s0,24(sp)
ffffffc0503056ee:	6105                	addi	sp,sp,32
ffffffc0503056f0:	8082                	ret

ffffffc0503056f2 <Xil_Out32>:
ffffffc0503056f2:	1101                	addi	sp,sp,-32
ffffffc0503056f4:	ec06                	sd	ra,24(sp)
ffffffc0503056f6:	e822                	sd	s0,16(sp)
ffffffc0503056f8:	1000                	addi	s0,sp,32
ffffffc0503056fa:	fea43423          	sd	a0,-24(s0)
ffffffc0503056fe:	87ae                	mv	a5,a1
ffffffc050305700:	fef42223          	sw	a5,-28(s0)
ffffffc050305704:	fe843703          	ld	a4,-24(s0)
ffffffc050305708:	fe442783          	lw	a5,-28(s0)
ffffffc05030570c:	85ba                	mv	a1,a4
ffffffc05030570e:	853e                	mv	a0,a5
ffffffc050305710:	f6bff0ef          	jal	ra,ffffffc05030567a <writel>
ffffffc050305714:	0001                	nop
ffffffc050305716:	60e2                	ld	ra,24(sp)
ffffffc050305718:	6442                	ld	s0,16(sp)
ffffffc05030571a:	6105                	addi	sp,sp,32
ffffffc05030571c:	8082                	ret

ffffffc05030571e <Xil_In32>:
ffffffc05030571e:	1101                	addi	sp,sp,-32
ffffffc050305720:	ec06                	sd	ra,24(sp)
ffffffc050305722:	e822                	sd	s0,16(sp)
ffffffc050305724:	1000                	addi	s0,sp,32
ffffffc050305726:	fea43423          	sd	a0,-24(s0)
ffffffc05030572a:	fe843783          	ld	a5,-24(s0)
ffffffc05030572e:	853e                	mv	a0,a5
ffffffc050305730:	f71ff0ef          	jal	ra,ffffffc0503056a0 <readl>
ffffffc050305734:	87aa                	mv	a5,a0
ffffffc050305736:	2781                	sext.w	a5,a5
ffffffc050305738:	853e                	mv	a0,a5
ffffffc05030573a:	60e2                	ld	ra,24(sp)
ffffffc05030573c:	6442                	ld	s0,16(sp)
ffffffc05030573e:	6105                	addi	sp,sp,32
ffffffc050305740:	8082                	ret

ffffffc050305742 <Xil_DCacheFlushRange>:
ffffffc050305742:	1101                	addi	sp,sp,-32
ffffffc050305744:	ec06                	sd	ra,24(sp)
ffffffc050305746:	e822                	sd	s0,16(sp)
ffffffc050305748:	1000                	addi	s0,sp,32
ffffffc05030574a:	fea43423          	sd	a0,-24(s0)
ffffffc05030574e:	feb43023          	sd	a1,-32(s0)
ffffffc050305752:	f73ff0ef          	jal	ra,ffffffc0503056c4 <local_flush_dcache_all>
ffffffc050305756:	0001                	nop
ffffffc050305758:	60e2                	ld	ra,24(sp)
ffffffc05030575a:	6442                	ld	s0,16(sp)
ffffffc05030575c:	6105                	addi	sp,sp,32
ffffffc05030575e:	8082                	ret

ffffffc050305760 <Xil_DCacheInvalidateRange>:
ffffffc050305760:	1101                	addi	sp,sp,-32
ffffffc050305762:	ec06                	sd	ra,24(sp)
ffffffc050305764:	e822                	sd	s0,16(sp)
ffffffc050305766:	1000                	addi	s0,sp,32
ffffffc050305768:	fea43423          	sd	a0,-24(s0)
ffffffc05030576c:	feb43023          	sd	a1,-32(s0)
ffffffc050305770:	f55ff0ef          	jal	ra,ffffffc0503056c4 <local_flush_dcache_all>
ffffffc050305774:	0001                	nop
ffffffc050305776:	60e2                	ld	ra,24(sp)
ffffffc050305778:	6442                	ld	s0,16(sp)
ffffffc05030577a:	6105                	addi	sp,sp,32
ffffffc05030577c:	8082                	ret

ffffffc05030577e <xemacps_example_main>:
ffffffc05030577e:	1101                	addi	sp,sp,-32
ffffffc050305780:	ec06                	sd	ra,24(sp)
ffffffc050305782:	e822                	sd	s0,16(sp)
ffffffc050305784:	1000                	addi	s0,sp,32
ffffffc050305786:	00006517          	auipc	a0,0x6
ffffffc05030578a:	d8a50513          	addi	a0,a0,-630 # ffffffc05030b510 <__FUNCTION__.1991+0x2b0>
ffffffc05030578e:	442050ef          	jal	ra,ffffffc05030abd0 <printk>
ffffffc050305792:	00035517          	auipc	a0,0x35
ffffffc050305796:	e9e50513          	addi	a0,a0,-354 # ffffffc05033a630 <EmacPsInstance>
ffffffc05030579a:	1af000ef          	jal	ra,ffffffc050306148 <EmacPsDmaIntrExample>
ffffffc05030579e:	fea43423          	sd	a0,-24(s0)
ffffffc0503057a2:	fe843783          	ld	a5,-24(s0)
ffffffc0503057a6:	cb89                	beqz	a5,ffffffc0503057b8 <xemacps_example_main+0x3a>
ffffffc0503057a8:	00006517          	auipc	a0,0x6
ffffffc0503057ac:	d8050513          	addi	a0,a0,-640 # ffffffc05030b528 <__FUNCTION__.1991+0x2c8>
ffffffc0503057b0:	9d5ff0ef          	jal	ra,ffffffc050305184 <EmacPsUtilErrorTrap>
ffffffc0503057b4:	4785                	li	a5,1
ffffffc0503057b6:	a801                	j	ffffffc0503057c6 <xemacps_example_main+0x48>
ffffffc0503057b8:	00006517          	auipc	a0,0x6
ffffffc0503057bc:	d9850513          	addi	a0,a0,-616 # ffffffc05030b550 <__FUNCTION__.1991+0x2f0>
ffffffc0503057c0:	410050ef          	jal	ra,ffffffc05030abd0 <printk>
ffffffc0503057c4:	4781                	li	a5,0
ffffffc0503057c6:	853e                	mv	a0,a5
ffffffc0503057c8:	60e2                	ld	ra,24(sp)
ffffffc0503057ca:	6442                	ld	s0,16(sp)
ffffffc0503057cc:	6105                	addi	sp,sp,32
ffffffc0503057ce:	8082                	ret

ffffffc0503057d0 <EmacPsSetupBD>:
ffffffc0503057d0:	7139                	addi	sp,sp,-64
ffffffc0503057d2:	fc06                	sd	ra,56(sp)
ffffffc0503057d4:	f822                	sd	s0,48(sp)
ffffffc0503057d6:	f426                	sd	s1,40(sp)
ffffffc0503057d8:	0080                	addi	s0,sp,64
ffffffc0503057da:	fca43423          	sd	a0,-56(s0)
ffffffc0503057de:	00036797          	auipc	a5,0x36
ffffffc0503057e2:	be278793          	addi	a5,a5,-1054 # ffffffc05033b3c0 <RxBdSpacePtr>
ffffffc0503057e6:	00036717          	auipc	a4,0x36
ffffffc0503057ea:	c1a70713          	addi	a4,a4,-998 # ffffffc05033b400 <bd_space>
ffffffc0503057ee:	e398                	sd	a4,0(a5)
ffffffc0503057f0:	00036797          	auipc	a5,0x36
ffffffc0503057f4:	be878793          	addi	a5,a5,-1048 # ffffffc05033b3d8 <TxBdSpacePtr>
ffffffc0503057f8:	00036717          	auipc	a4,0x36
ffffffc0503057fc:	e0870713          	addi	a4,a4,-504 # ffffffc05033b600 <bd_space+0x200>
ffffffc050305800:	e398                	sd	a4,0(a5)
ffffffc050305802:	fd040793          	addi	a5,s0,-48
ffffffc050305806:	4621                	li	a2,8
ffffffc050305808:	4581                	li	a1,0
ffffffc05030580a:	853e                	mv	a0,a5
ffffffc05030580c:	1d9040ef          	jal	ra,ffffffc05030a1e4 <memset>
ffffffc050305810:	fc843783          	ld	a5,-56(s0)
ffffffc050305814:	09878493          	addi	s1,a5,152
ffffffc050305818:	00036797          	auipc	a5,0x36
ffffffc05030581c:	ba878793          	addi	a5,a5,-1112 # ffffffc05033b3c0 <RxBdSpacePtr>
ffffffc050305820:	639c                	ld	a5,0(a5)
ffffffc050305822:	853e                	mv	a0,a5
ffffffc050305824:	eb3ff0ef          	jal	ra,ffffffc0503056d6 <kva2pa>
ffffffc050305828:	85aa                	mv	a1,a0
ffffffc05030582a:	00036797          	auipc	a5,0x36
ffffffc05030582e:	b9678793          	addi	a5,a5,-1130 # ffffffc05033b3c0 <RxBdSpacePtr>
ffffffc050305832:	639c                	ld	a5,0(a5)
ffffffc050305834:	863e                	mv	a2,a5
ffffffc050305836:	fc843783          	ld	a5,-56(s0)
ffffffc05030583a:	02878793          	addi	a5,a5,40
ffffffc05030583e:	02000713          	li	a4,32
ffffffc050305842:	04000693          	li	a3,64
ffffffc050305846:	8526                	mv	a0,s1
ffffffc050305848:	a44fc0ef          	jal	ra,ffffffc050301a8c <XEmacPs_BdRingCreate>
ffffffc05030584c:	fca43c23          	sd	a0,-40(s0)
ffffffc050305850:	fd843783          	ld	a5,-40(s0)
ffffffc050305854:	cb89                	beqz	a5,ffffffc050305866 <EmacPsSetupBD+0x96>
ffffffc050305856:	00006517          	auipc	a0,0x6
ffffffc05030585a:	d2a50513          	addi	a0,a0,-726 # ffffffc05030b580 <__FUNCTION__.1991+0x320>
ffffffc05030585e:	927ff0ef          	jal	ra,ffffffc050305184 <EmacPsUtilErrorTrap>
ffffffc050305862:	4785                	li	a5,1
ffffffc050305864:	a0cd                	j	ffffffc050305946 <EmacPsSetupBD+0x176>
ffffffc050305866:	fc843783          	ld	a5,-56(s0)
ffffffc05030586a:	09878793          	addi	a5,a5,152
ffffffc05030586e:	fd040713          	addi	a4,s0,-48
ffffffc050305872:	4609                	li	a2,2
ffffffc050305874:	85ba                	mv	a1,a4
ffffffc050305876:	853e                	mv	a0,a5
ffffffc050305878:	c28fc0ef          	jal	ra,ffffffc050301ca0 <XEmacPs_BdRingClone>
ffffffc05030587c:	fca43c23          	sd	a0,-40(s0)
ffffffc050305880:	fd843783          	ld	a5,-40(s0)
ffffffc050305884:	cb89                	beqz	a5,ffffffc050305896 <EmacPsSetupBD+0xc6>
ffffffc050305886:	00006517          	auipc	a0,0x6
ffffffc05030588a:	d2a50513          	addi	a0,a0,-726 # ffffffc05030b5b0 <__FUNCTION__.1991+0x350>
ffffffc05030588e:	8f7ff0ef          	jal	ra,ffffffc050305184 <EmacPsUtilErrorTrap>
ffffffc050305892:	4785                	li	a5,1
ffffffc050305894:	a84d                	j	ffffffc050305946 <EmacPsSetupBD+0x176>
ffffffc050305896:	fd040793          	addi	a5,s0,-48
ffffffc05030589a:	4621                	li	a2,8
ffffffc05030589c:	4581                	li	a1,0
ffffffc05030589e:	853e                	mv	a0,a5
ffffffc0503058a0:	145040ef          	jal	ra,ffffffc05030a1e4 <memset>
ffffffc0503058a4:	fd040793          	addi	a5,s0,-48
ffffffc0503058a8:	0791                	addi	a5,a5,4
ffffffc0503058aa:	4394                	lw	a3,0(a5)
ffffffc0503058ac:	fd040793          	addi	a5,s0,-48
ffffffc0503058b0:	0791                	addi	a5,a5,4
ffffffc0503058b2:	873e                	mv	a4,a5
ffffffc0503058b4:	800007b7          	lui	a5,0x80000
ffffffc0503058b8:	8fd5                	or	a5,a5,a3
ffffffc0503058ba:	2781                	sext.w	a5,a5
ffffffc0503058bc:	c31c                	sw	a5,0(a4)
ffffffc0503058be:	fc843783          	ld	a5,-56(s0)
ffffffc0503058c2:	02878493          	addi	s1,a5,40 # ffffffff80000028 <__BSS_END__+0x3f2fcb6ff8>
ffffffc0503058c6:	00036797          	auipc	a5,0x36
ffffffc0503058ca:	b1278793          	addi	a5,a5,-1262 # ffffffc05033b3d8 <TxBdSpacePtr>
ffffffc0503058ce:	639c                	ld	a5,0(a5)
ffffffc0503058d0:	853e                	mv	a0,a5
ffffffc0503058d2:	e05ff0ef          	jal	ra,ffffffc0503056d6 <kva2pa>
ffffffc0503058d6:	85aa                	mv	a1,a0
ffffffc0503058d8:	00036797          	auipc	a5,0x36
ffffffc0503058dc:	b0078793          	addi	a5,a5,-1280 # ffffffc05033b3d8 <TxBdSpacePtr>
ffffffc0503058e0:	639c                	ld	a5,0(a5)
ffffffc0503058e2:	863e                	mv	a2,a5
ffffffc0503058e4:	fc843783          	ld	a5,-56(s0)
ffffffc0503058e8:	09878793          	addi	a5,a5,152
ffffffc0503058ec:	02000713          	li	a4,32
ffffffc0503058f0:	04000693          	li	a3,64
ffffffc0503058f4:	8526                	mv	a0,s1
ffffffc0503058f6:	996fc0ef          	jal	ra,ffffffc050301a8c <XEmacPs_BdRingCreate>
ffffffc0503058fa:	fca43c23          	sd	a0,-40(s0)
ffffffc0503058fe:	fd843783          	ld	a5,-40(s0)
ffffffc050305902:	cb89                	beqz	a5,ffffffc050305914 <EmacPsSetupBD+0x144>
ffffffc050305904:	00006517          	auipc	a0,0x6
ffffffc050305908:	cdc50513          	addi	a0,a0,-804 # ffffffc05030b5e0 <__FUNCTION__.1991+0x380>
ffffffc05030590c:	879ff0ef          	jal	ra,ffffffc050305184 <EmacPsUtilErrorTrap>
ffffffc050305910:	4785                	li	a5,1
ffffffc050305912:	a815                	j	ffffffc050305946 <EmacPsSetupBD+0x176>
ffffffc050305914:	fc843783          	ld	a5,-56(s0)
ffffffc050305918:	02878793          	addi	a5,a5,40
ffffffc05030591c:	fd040713          	addi	a4,s0,-48
ffffffc050305920:	4605                	li	a2,1
ffffffc050305922:	85ba                	mv	a1,a4
ffffffc050305924:	853e                	mv	a0,a5
ffffffc050305926:	b7afc0ef          	jal	ra,ffffffc050301ca0 <XEmacPs_BdRingClone>
ffffffc05030592a:	fca43c23          	sd	a0,-40(s0)
ffffffc05030592e:	fd843783          	ld	a5,-40(s0)
ffffffc050305932:	cb89                	beqz	a5,ffffffc050305944 <EmacPsSetupBD+0x174>
ffffffc050305934:	00006517          	auipc	a0,0x6
ffffffc050305938:	cdc50513          	addi	a0,a0,-804 # ffffffc05030b610 <__FUNCTION__.1991+0x3b0>
ffffffc05030593c:	849ff0ef          	jal	ra,ffffffc050305184 <EmacPsUtilErrorTrap>
ffffffc050305940:	4785                	li	a5,1
ffffffc050305942:	a011                	j	ffffffc050305946 <EmacPsSetupBD+0x176>
ffffffc050305944:	4781                	li	a5,0
ffffffc050305946:	853e                	mv	a0,a5
ffffffc050305948:	70e2                	ld	ra,56(sp)
ffffffc05030594a:	7442                	ld	s0,48(sp)
ffffffc05030594c:	74a2                	ld	s1,40(sp)
ffffffc05030594e:	6121                	addi	sp,sp,64
ffffffc050305950:	8082                	ret

ffffffc050305952 <EmacPsInitPhy>:
ffffffc050305952:	7179                	addi	sp,sp,-48
ffffffc050305954:	f406                	sd	ra,40(sp)
ffffffc050305956:	f022                	sd	s0,32(sp)
ffffffc050305958:	1800                	addi	s0,sp,48
ffffffc05030595a:	fca43c23          	sd	a0,-40(s0)
ffffffc05030595e:	fcb43823          	sd	a1,-48(s0)
ffffffc050305962:	fd843503          	ld	a0,-40(s0)
ffffffc050305966:	ef2fe0ef          	jal	ra,ffffffc050304058 <XEmacPsDetectPHY>
ffffffc05030596a:	87aa                	mv	a5,a0
ffffffc05030596c:	fef42223          	sw	a5,-28(s0)
ffffffc050305970:	fe442783          	lw	a5,-28(s0)
ffffffc050305974:	0007871b          	sext.w	a4,a5
ffffffc050305978:	47fd                	li	a5,31
ffffffc05030597a:	00e7fa63          	bgeu	a5,a4,ffffffc05030598e <EmacPsInitPhy+0x3c>
ffffffc05030597e:	00006517          	auipc	a0,0x6
ffffffc050305982:	cc250513          	addi	a0,a0,-830 # ffffffc05030b640 <__FUNCTION__.1991+0x3e0>
ffffffc050305986:	ffeff0ef          	jal	ra,ffffffc050305184 <EmacPsUtilErrorTrap>
ffffffc05030598a:	4785                	li	a5,1
ffffffc05030598c:	a87d                	j	ffffffc050305a4a <EmacPsInitPhy+0xf8>
ffffffc05030598e:	fe240713          	addi	a4,s0,-30
ffffffc050305992:	fe442783          	lw	a5,-28(s0)
ffffffc050305996:	86ba                	mv	a3,a4
ffffffc050305998:	4609                	li	a2,2
ffffffc05030599a:	85be                	mv	a1,a5
ffffffc05030599c:	fd843503          	ld	a0,-40(s0)
ffffffc0503059a0:	fb9fd0ef          	jal	ra,ffffffc050303958 <XEmacPs_PhyRead>
ffffffc0503059a4:	87aa                	mv	a5,a0
ffffffc0503059a6:	c799                	beqz	a5,ffffffc0503059b4 <EmacPsInitPhy+0x62>
ffffffc0503059a8:	00006517          	auipc	a0,0x6
ffffffc0503059ac:	cb050513          	addi	a0,a0,-848 # ffffffc05030b658 <__FUNCTION__.1991+0x3f8>
ffffffc0503059b0:	fd4ff0ef          	jal	ra,ffffffc050305184 <EmacPsUtilErrorTrap>
ffffffc0503059b4:	fe040713          	addi	a4,s0,-32
ffffffc0503059b8:	fe442783          	lw	a5,-28(s0)
ffffffc0503059bc:	86ba                	mv	a3,a4
ffffffc0503059be:	460d                	li	a2,3
ffffffc0503059c0:	85be                	mv	a1,a5
ffffffc0503059c2:	fd843503          	ld	a0,-40(s0)
ffffffc0503059c6:	f93fd0ef          	jal	ra,ffffffc050303958 <XEmacPs_PhyRead>
ffffffc0503059ca:	87aa                	mv	a5,a0
ffffffc0503059cc:	c799                	beqz	a5,ffffffc0503059da <EmacPsInitPhy+0x88>
ffffffc0503059ce:	00006517          	auipc	a0,0x6
ffffffc0503059d2:	c8a50513          	addi	a0,a0,-886 # ffffffc05030b658 <__FUNCTION__.1991+0x3f8>
ffffffc0503059d6:	faeff0ef          	jal	ra,ffffffc050305184 <EmacPsUtilErrorTrap>
ffffffc0503059da:	fe245783          	lhu	a5,-30(s0)
ffffffc0503059de:	2781                	sext.w	a5,a5
ffffffc0503059e0:	0107979b          	slliw	a5,a5,0x10
ffffffc0503059e4:	0007871b          	sext.w	a4,a5
ffffffc0503059e8:	fe045783          	lhu	a5,-32(s0)
ffffffc0503059ec:	2781                	sext.w	a5,a5
ffffffc0503059ee:	8fd9                	or	a5,a5,a4
ffffffc0503059f0:	2781                	sext.w	a5,a5
ffffffc0503059f2:	85be                	mv	a1,a5
ffffffc0503059f4:	00006517          	auipc	a0,0x6
ffffffc0503059f8:	c7450513          	addi	a0,a0,-908 # ffffffc05030b668 <__FUNCTION__.1991+0x408>
ffffffc0503059fc:	1d4050ef          	jal	ra,ffffffc05030abd0 <printk>
ffffffc050305a00:	fe245783          	lhu	a5,-30(s0)
ffffffc050305a04:	0007871b          	sext.w	a4,a5
ffffffc050305a08:	47f1                	li	a5,28
ffffffc050305a0a:	00f71e63          	bne	a4,a5,ffffffc050305a26 <EmacPsInitPhy+0xd4>
ffffffc050305a0e:	fe442783          	lw	a5,-28(s0)
ffffffc050305a12:	863e                	mv	a2,a5
ffffffc050305a14:	fd043583          	ld	a1,-48(s0)
ffffffc050305a18:	fd843503          	ld	a0,-40(s0)
ffffffc050305a1c:	b1eff0ef          	jal	ra,ffffffc050304d3a <EmacPsUtilRtlPhyInit>
ffffffc050305a20:	fea43423          	sd	a0,-24(s0)
ffffffc050305a24:	a039                	j	ffffffc050305a32 <EmacPsInitPhy+0xe0>
ffffffc050305a26:	00006517          	auipc	a0,0x6
ffffffc050305a2a:	c5a50513          	addi	a0,a0,-934 # ffffffc05030b680 <__FUNCTION__.1991+0x420>
ffffffc050305a2e:	f56ff0ef          	jal	ra,ffffffc050305184 <EmacPsUtilErrorTrap>
ffffffc050305a32:	fe843783          	ld	a5,-24(s0)
ffffffc050305a36:	cb89                	beqz	a5,ffffffc050305a48 <EmacPsInitPhy+0xf6>
ffffffc050305a38:	00006517          	auipc	a0,0x6
ffffffc050305a3c:	c6050513          	addi	a0,a0,-928 # ffffffc05030b698 <__FUNCTION__.1991+0x438>
ffffffc050305a40:	f44ff0ef          	jal	ra,ffffffc050305184 <EmacPsUtilErrorTrap>
ffffffc050305a44:	4785                	li	a5,1
ffffffc050305a46:	a011                	j	ffffffc050305a4a <EmacPsInitPhy+0xf8>
ffffffc050305a48:	4781                	li	a5,0
ffffffc050305a4a:	853e                	mv	a0,a5
ffffffc050305a4c:	70a2                	ld	ra,40(sp)
ffffffc050305a4e:	7402                	ld	s0,32(sp)
ffffffc050305a50:	6145                	addi	sp,sp,48
ffffffc050305a52:	8082                	ret

ffffffc050305a54 <EmacPsSetupDevice>:
ffffffc050305a54:	7179                	addi	sp,sp,-48
ffffffc050305a56:	f406                	sd	ra,40(sp)
ffffffc050305a58:	f022                	sd	s0,32(sp)
ffffffc050305a5a:	1800                	addi	s0,sp,48
ffffffc050305a5c:	fca43c23          	sd	a0,-40(s0)
ffffffc050305a60:	00036797          	auipc	a5,0x36
ffffffc050305a64:	db878793          	addi	a5,a5,-584 # ffffffc05033b818 <xemacps_config>
ffffffc050305a68:	fef43423          	sd	a5,-24(s0)
ffffffc050305a6c:	fe843783          	ld	a5,-24(s0)
ffffffc050305a70:	679c                	ld	a5,8(a5)
ffffffc050305a72:	863e                	mv	a2,a5
ffffffc050305a74:	fe843583          	ld	a1,-24(s0)
ffffffc050305a78:	fd843503          	ld	a0,-40(s0)
ffffffc050305a7c:	733000ef          	jal	ra,ffffffc0503069ae <XEmacPs_CfgInitialize>
ffffffc050305a80:	fea43023          	sd	a0,-32(s0)
ffffffc050305a84:	fe043783          	ld	a5,-32(s0)
ffffffc050305a88:	cb89                	beqz	a5,ffffffc050305a9a <EmacPsSetupDevice+0x46>
ffffffc050305a8a:	00006517          	auipc	a0,0x6
ffffffc050305a8e:	c2e50513          	addi	a0,a0,-978 # ffffffc05030b6b8 <__FUNCTION__.1991+0x458>
ffffffc050305a92:	ef2ff0ef          	jal	ra,ffffffc050305184 <EmacPsUtilErrorTrap>
ffffffc050305a96:	4785                	li	a5,1
ffffffc050305a98:	aa25                	j	ffffffc050305bd0 <EmacPsSetupDevice+0x17c>
ffffffc050305a9a:	00006517          	auipc	a0,0x6
ffffffc050305a9e:	c3650513          	addi	a0,a0,-970 # ffffffc05030b6d0 <__FUNCTION__.1991+0x470>
ffffffc050305aa2:	12e050ef          	jal	ra,ffffffc05030abd0 <printk>
ffffffc050305aa6:	fe843783          	ld	a5,-24(s0)
ffffffc050305aaa:	679c                	ld	a5,8(a5)
ffffffc050305aac:	0fc78793          	addi	a5,a5,252
ffffffc050305ab0:	853e                	mv	a0,a5
ffffffc050305ab2:	c6dff0ef          	jal	ra,ffffffc05030571e <Xil_In32>
ffffffc050305ab6:	87aa                	mv	a5,a0
ffffffc050305ab8:	2781                	sext.w	a5,a5
ffffffc050305aba:	0107d79b          	srliw	a5,a5,0x10
ffffffc050305abe:	2781                	sext.w	a5,a5
ffffffc050305ac0:	873e                	mv	a4,a5
ffffffc050305ac2:	6785                	lui	a5,0x1
ffffffc050305ac4:	17fd                	addi	a5,a5,-1
ffffffc050305ac6:	8ff9                	and	a5,a5,a4
ffffffc050305ac8:	0007871b          	sext.w	a4,a5
ffffffc050305acc:	00036797          	auipc	a5,0x36
ffffffc050305ad0:	90478793          	addi	a5,a5,-1788 # ffffffc05033b3d0 <GemVersion>
ffffffc050305ad4:	c398                	sw	a4,0(a5)
ffffffc050305ad6:	00036797          	auipc	a5,0x36
ffffffc050305ada:	8fa78793          	addi	a5,a5,-1798 # ffffffc05033b3d0 <GemVersion>
ffffffc050305ade:	439c                	lw	a5,0(a5)
ffffffc050305ae0:	85be                	mv	a1,a5
ffffffc050305ae2:	00006517          	auipc	a0,0x6
ffffffc050305ae6:	c1650513          	addi	a0,a0,-1002 # ffffffc05030b6f8 <__FUNCTION__.1991+0x498>
ffffffc050305aea:	0e6050ef          	jal	ra,ffffffc05030abd0 <printk>
ffffffc050305aee:	00036797          	auipc	a5,0x36
ffffffc050305af2:	d1a78793          	addi	a5,a5,-742 # ffffffc05033b808 <Platform>
ffffffc050305af6:	6715                	lui	a4,0x5
ffffffc050305af8:	c398                	sw	a4,0(a5)
ffffffc050305afa:	fd843503          	ld	a0,-40(s0)
ffffffc050305afe:	535000ef          	jal	ra,ffffffc050306832 <XEmacPsClkSetup>
ffffffc050305b02:	00006517          	auipc	a0,0x6
ffffffc050305b06:	c0e50513          	addi	a0,a0,-1010 # ffffffc05030b710 <__FUNCTION__.1991+0x4b0>
ffffffc050305b0a:	0c6050ef          	jal	ra,ffffffc05030abd0 <printk>
ffffffc050305b0e:	fd843503          	ld	a0,-40(s0)
ffffffc050305b12:	0b0010ef          	jal	ra,ffffffc050306bc2 <XEmacPs_Reset>
ffffffc050305b16:	4605                	li	a2,1
ffffffc050305b18:	00032597          	auipc	a1,0x32
ffffffc050305b1c:	9e058593          	addi	a1,a1,-1568 # ffffffc0503374f8 <EmacPsMAC>
ffffffc050305b20:	fd843503          	ld	a0,-40(s0)
ffffffc050305b24:	db1fc0ef          	jal	ra,ffffffc0503028d4 <XEmacPs_SetMacAddress>
ffffffc050305b28:	fea43023          	sd	a0,-32(s0)
ffffffc050305b2c:	fe043783          	ld	a5,-32(s0)
ffffffc050305b30:	cb89                	beqz	a5,ffffffc050305b42 <EmacPsSetupDevice+0xee>
ffffffc050305b32:	00006517          	auipc	a0,0x6
ffffffc050305b36:	bfe50513          	addi	a0,a0,-1026 # ffffffc05030b730 <__FUNCTION__.1991+0x4d0>
ffffffc050305b3a:	e4aff0ef          	jal	ra,ffffffc050305184 <EmacPsUtilErrorTrap>
ffffffc050305b3e:	4785                	li	a5,1
ffffffc050305b40:	a841                	j	ffffffc050305bd0 <EmacPsSetupDevice+0x17c>
ffffffc050305b42:	00006517          	auipc	a0,0x6
ffffffc050305b46:	c0e50513          	addi	a0,a0,-1010 # ffffffc05030b750 <__FUNCTION__.1991+0x4f0>
ffffffc050305b4a:	086050ef          	jal	ra,ffffffc05030abd0 <printk>
ffffffc050305b4e:	fd843683          	ld	a3,-40(s0)
ffffffc050305b52:	00001617          	auipc	a2,0x1
ffffffc050305b56:	b1260613          	addi	a2,a2,-1262 # ffffffc050306664 <XEmacPsSendHandler>
ffffffc050305b5a:	4585                	li	a1,1
ffffffc050305b5c:	fd843503          	ld	a0,-40(s0)
ffffffc050305b60:	8afff0ef          	jal	ra,ffffffc05030540e <XEmacPs_SetHandler>
ffffffc050305b64:	fea43023          	sd	a0,-32(s0)
ffffffc050305b68:	fd843683          	ld	a3,-40(s0)
ffffffc050305b6c:	00001617          	auipc	a2,0x1
ffffffc050305b70:	b2e60613          	addi	a2,a2,-1234 # ffffffc05030669a <XEmacPsRecvHandler>
ffffffc050305b74:	4589                	li	a1,2
ffffffc050305b76:	fd843503          	ld	a0,-40(s0)
ffffffc050305b7a:	895ff0ef          	jal	ra,ffffffc05030540e <XEmacPs_SetHandler>
ffffffc050305b7e:	872a                	mv	a4,a0
ffffffc050305b80:	fe043783          	ld	a5,-32(s0)
ffffffc050305b84:	8fd9                	or	a5,a5,a4
ffffffc050305b86:	fef43023          	sd	a5,-32(s0)
ffffffc050305b8a:	fd843683          	ld	a3,-40(s0)
ffffffc050305b8e:	00001617          	auipc	a2,0x1
ffffffc050305b92:	b5860613          	addi	a2,a2,-1192 # ffffffc0503066e6 <XEmacPsErrorHandler>
ffffffc050305b96:	458d                	li	a1,3
ffffffc050305b98:	fd843503          	ld	a0,-40(s0)
ffffffc050305b9c:	873ff0ef          	jal	ra,ffffffc05030540e <XEmacPs_SetHandler>
ffffffc050305ba0:	872a                	mv	a4,a0
ffffffc050305ba2:	fe043783          	ld	a5,-32(s0)
ffffffc050305ba6:	8fd9                	or	a5,a5,a4
ffffffc050305ba8:	fef43023          	sd	a5,-32(s0)
ffffffc050305bac:	fe043783          	ld	a5,-32(s0)
ffffffc050305bb0:	cb89                	beqz	a5,ffffffc050305bc2 <EmacPsSetupDevice+0x16e>
ffffffc050305bb2:	00006517          	auipc	a0,0x6
ffffffc050305bb6:	bb650513          	addi	a0,a0,-1098 # ffffffc05030b768 <__FUNCTION__.1991+0x508>
ffffffc050305bba:	dcaff0ef          	jal	ra,ffffffc050305184 <EmacPsUtilErrorTrap>
ffffffc050305bbe:	4785                	li	a5,1
ffffffc050305bc0:	a801                	j	ffffffc050305bd0 <EmacPsSetupDevice+0x17c>
ffffffc050305bc2:	00006517          	auipc	a0,0x6
ffffffc050305bc6:	bc650513          	addi	a0,a0,-1082 # ffffffc05030b788 <__FUNCTION__.1991+0x528>
ffffffc050305bca:	006050ef          	jal	ra,ffffffc05030abd0 <printk>
ffffffc050305bce:	4781                	li	a5,0
ffffffc050305bd0:	853e                	mv	a0,a5
ffffffc050305bd2:	70a2                	ld	ra,40(sp)
ffffffc050305bd4:	7402                	ld	s0,32(sp)
ffffffc050305bd6:	6145                	addi	sp,sp,48
ffffffc050305bd8:	8082                	ret

ffffffc050305bda <EmacPsInit>:
ffffffc050305bda:	7179                	addi	sp,sp,-48
ffffffc050305bdc:	f406                	sd	ra,40(sp)
ffffffc050305bde:	f022                	sd	s0,32(sp)
ffffffc050305be0:	1800                	addi	s0,sp,48
ffffffc050305be2:	fca43c23          	sd	a0,-40(s0)
ffffffc050305be6:	fe043423          	sd	zero,-24(s0)
ffffffc050305bea:	fd843503          	ld	a0,-40(s0)
ffffffc050305bee:	e67ff0ef          	jal	ra,ffffffc050305a54 <EmacPsSetupDevice>
ffffffc050305bf2:	fea43423          	sd	a0,-24(s0)
ffffffc050305bf6:	fe843783          	ld	a5,-24(s0)
ffffffc050305bfa:	c799                	beqz	a5,ffffffc050305c08 <EmacPsInit+0x2e>
ffffffc050305bfc:	00006517          	auipc	a0,0x6
ffffffc050305c00:	bac50513          	addi	a0,a0,-1108 # ffffffc05030b7a8 <__FUNCTION__.1991+0x548>
ffffffc050305c04:	7cd040ef          	jal	ra,ffffffc05030abd0 <printk>
ffffffc050305c08:	fd843503          	ld	a0,-40(s0)
ffffffc050305c0c:	bc5ff0ef          	jal	ra,ffffffc0503057d0 <EmacPsSetupBD>
ffffffc050305c10:	fea43423          	sd	a0,-24(s0)
ffffffc050305c14:	fe843783          	ld	a5,-24(s0)
ffffffc050305c18:	c799                	beqz	a5,ffffffc050305c26 <EmacPsInit+0x4c>
ffffffc050305c1a:	00006517          	auipc	a0,0x6
ffffffc050305c1e:	ba650513          	addi	a0,a0,-1114 # ffffffc05030b7c0 <__FUNCTION__.1991+0x560>
ffffffc050305c22:	7af040ef          	jal	ra,ffffffc05030abd0 <printk>
ffffffc050305c26:	00035797          	auipc	a5,0x35
ffffffc050305c2a:	7aa78793          	addi	a5,a5,1962 # ffffffc05033b3d0 <GemVersion>
ffffffc050305c2e:	439c                	lw	a5,0(a5)
ffffffc050305c30:	873e                	mv	a4,a5
ffffffc050305c32:	4789                	li	a5,2
ffffffc050305c34:	04f71363          	bne	a4,a5,ffffffc050305c7a <EmacPsInit+0xa0>
ffffffc050305c38:	459d                	li	a1,7
ffffffc050305c3a:	fd843503          	ld	a0,-40(s0)
ffffffc050305c3e:	cb1fd0ef          	jal	ra,ffffffc0503038ee <XEmacPs_SetMdioDivisor>
ffffffc050305c42:	4505                	li	a0,1
ffffffc050305c44:	be0ff0ef          	jal	ra,ffffffc050305024 <EmacpsDelay>
ffffffc050305c48:	3e800793          	li	a5,1000
ffffffc050305c4c:	fef42223          	sw	a5,-28(s0)
ffffffc050305c50:	fe440793          	addi	a5,s0,-28
ffffffc050305c54:	85be                	mv	a1,a5
ffffffc050305c56:	fd843503          	ld	a0,-40(s0)
ffffffc050305c5a:	cf9ff0ef          	jal	ra,ffffffc050305952 <EmacPsInitPhy>
ffffffc050305c5e:	87aa                	mv	a5,a0
ffffffc050305c60:	c799                	beqz	a5,ffffffc050305c6e <EmacPsInit+0x94>
ffffffc050305c62:	00006517          	auipc	a0,0x6
ffffffc050305c66:	b7650513          	addi	a0,a0,-1162 # ffffffc05030b7d8 <__FUNCTION__.1991+0x578>
ffffffc050305c6a:	d1aff0ef          	jal	ra,ffffffc050305184 <EmacPsUtilErrorTrap>
ffffffc050305c6e:	3e800593          	li	a1,1000
ffffffc050305c72:	fd843503          	ld	a0,-40(s0)
ffffffc050305c76:	bdffd0ef          	jal	ra,ffffffc050303854 <XEmacPs_SetOperatingSpeed>
ffffffc050305c7a:	fd843783          	ld	a5,-40(s0)
ffffffc050305c7e:	679c                	ld	a5,8(a5)
ffffffc050305c80:	02478713          	addi	a4,a5,36
ffffffc050305c84:	67a1                	lui	a5,0x8
ffffffc050305c86:	fff78593          	addi	a1,a5,-1 # 7fff <_start-0xffffffc0502f8001>
ffffffc050305c8a:	853a                	mv	a0,a4
ffffffc050305c8c:	a67ff0ef          	jal	ra,ffffffc0503056f2 <Xil_Out32>
ffffffc050305c90:	fd843783          	ld	a5,-40(s0)
ffffffc050305c94:	679c                	ld	a5,8(a5)
ffffffc050305c96:	02878713          	addi	a4,a5,40
ffffffc050305c9a:	6785                	lui	a5,0x1
ffffffc050305c9c:	cf678593          	addi	a1,a5,-778 # cf6 <_start-0xffffffc0502ff30a>
ffffffc050305ca0:	853a                	mv	a0,a4
ffffffc050305ca2:	a51ff0ef          	jal	ra,ffffffc0503056f2 <Xil_Out32>
ffffffc050305ca6:	fe843783          	ld	a5,-24(s0)
ffffffc050305caa:	853e                	mv	a0,a5
ffffffc050305cac:	70a2                	ld	ra,40(sp)
ffffffc050305cae:	7402                	ld	s0,32(sp)
ffffffc050305cb0:	6145                	addi	sp,sp,48
ffffffc050305cb2:	8082                	ret

ffffffc050305cb4 <EmacPsSend>:
ffffffc050305cb4:	711d                	addi	sp,sp,-96
ffffffc050305cb6:	ec86                	sd	ra,88(sp)
ffffffc050305cb8:	e8a2                	sd	s0,80(sp)
ffffffc050305cba:	e4a6                	sd	s1,72(sp)
ffffffc050305cbc:	1080                	addi	s0,sp,96
ffffffc050305cbe:	faa43c23          	sd	a0,-72(s0)
ffffffc050305cc2:	fab43823          	sd	a1,-80(s0)
ffffffc050305cc6:	fac43423          	sd	a2,-88(s0)
ffffffc050305cca:	fc043c23          	sd	zero,-40(s0)
ffffffc050305cce:	fb043783          	ld	a5,-80(s0)
ffffffc050305cd2:	2781                	sext.w	a5,a5
ffffffc050305cd4:	fcf42423          	sw	a5,-56(s0)
ffffffc050305cd8:	fa843783          	ld	a5,-88(s0)
ffffffc050305cdc:	2781                	sext.w	a5,a5
ffffffc050305cde:	873e                	mv	a4,a5
ffffffc050305ce0:	67a1                	lui	a5,0x8
ffffffc050305ce2:	8fd9                	or	a5,a5,a4
ffffffc050305ce4:	2781                	sext.w	a5,a5
ffffffc050305ce6:	fcf42623          	sw	a5,-52(s0)
ffffffc050305cea:	fcc42783          	lw	a5,-52(s0)
ffffffc050305cee:	1782                	slli	a5,a5,0x20
ffffffc050305cf0:	9381                	srli	a5,a5,0x20
ffffffc050305cf2:	02079713          	slli	a4,a5,0x20
ffffffc050305cf6:	fc842783          	lw	a5,-56(s0)
ffffffc050305cfa:	1782                	slli	a5,a5,0x20
ffffffc050305cfc:	9381                	srli	a5,a5,0x20
ffffffc050305cfe:	8f5d                	or	a4,a4,a5
ffffffc050305d00:	00035797          	auipc	a5,0x35
ffffffc050305d04:	70078793          	addi	a5,a5,1792 # ffffffc05033b400 <bd_space>
ffffffc050305d08:	20e7b023          	sd	a4,512(a5)
ffffffc050305d0c:	04000593          	li	a1,64
ffffffc050305d10:	4501                	li	a0,0
ffffffc050305d12:	a31ff0ef          	jal	ra,ffffffc050305742 <Xil_DCacheFlushRange>
ffffffc050305d16:	00035717          	auipc	a4,0x35
ffffffc050305d1a:	6ea70713          	addi	a4,a4,1770 # ffffffc05033b400 <bd_space>
ffffffc050305d1e:	4785                	li	a5,1
ffffffc050305d20:	17a6                	slli	a5,a5,0x29
ffffffc050305d22:	97ba                	add	a5,a5,a4
ffffffc050305d24:	20078793          	addi	a5,a5,512
ffffffc050305d28:	fcf42a23          	sw	a5,-44(s0)
ffffffc050305d2c:	fb843783          	ld	a5,-72(s0)
ffffffc050305d30:	679c                	ld	a5,8(a5)
ffffffc050305d32:	07f1                	addi	a5,a5,28
ffffffc050305d34:	fd442703          	lw	a4,-44(s0)
ffffffc050305d38:	85ba                	mv	a1,a4
ffffffc050305d3a:	853e                	mv	a0,a5
ffffffc050305d3c:	9b7ff0ef          	jal	ra,ffffffc0503056f2 <Xil_Out32>
ffffffc050305d40:	fb843783          	ld	a5,-72(s0)
ffffffc050305d44:	539c                	lw	a5,32(a5)
ffffffc050305d46:	1007f793          	andi	a5,a5,256
ffffffc050305d4a:	2781                	sext.w	a5,a5
ffffffc050305d4c:	cb9d                	beqz	a5,ffffffc050305d82 <EmacPsSend+0xce>
ffffffc050305d4e:	fb843783          	ld	a5,-72(s0)
ffffffc050305d52:	679c                	ld	a5,8(a5)
ffffffc050305d54:	853e                	mv	a0,a5
ffffffc050305d56:	9c9ff0ef          	jal	ra,ffffffc05030571e <Xil_In32>
ffffffc050305d5a:	87aa                	mv	a5,a0
ffffffc050305d5c:	fcf42823          	sw	a5,-48(s0)
ffffffc050305d60:	fd042783          	lw	a5,-48(s0)
ffffffc050305d64:	8ba1                	andi	a5,a5,8
ffffffc050305d66:	2781                	sext.w	a5,a5
ffffffc050305d68:	ef89                	bnez	a5,ffffffc050305d82 <EmacPsSend+0xce>
ffffffc050305d6a:	fb843783          	ld	a5,-72(s0)
ffffffc050305d6e:	6798                	ld	a4,8(a5)
ffffffc050305d70:	fd042783          	lw	a5,-48(s0)
ffffffc050305d74:	0087e793          	ori	a5,a5,8
ffffffc050305d78:	2781                	sext.w	a5,a5
ffffffc050305d7a:	85be                	mv	a1,a5
ffffffc050305d7c:	853a                	mv	a0,a4
ffffffc050305d7e:	975ff0ef          	jal	ra,ffffffc0503056f2 <Xil_Out32>
ffffffc050305d82:	fb843783          	ld	a5,-72(s0)
ffffffc050305d86:	6784                	ld	s1,8(a5)
ffffffc050305d88:	fb843783          	ld	a5,-72(s0)
ffffffc050305d8c:	679c                	ld	a5,8(a5)
ffffffc050305d8e:	853e                	mv	a0,a5
ffffffc050305d90:	98fff0ef          	jal	ra,ffffffc05030571e <Xil_In32>
ffffffc050305d94:	87aa                	mv	a5,a0
ffffffc050305d96:	2781                	sext.w	a5,a5
ffffffc050305d98:	2007e793          	ori	a5,a5,512
ffffffc050305d9c:	2781                	sext.w	a5,a5
ffffffc050305d9e:	85be                	mv	a1,a5
ffffffc050305da0:	8526                	mv	a0,s1
ffffffc050305da2:	951ff0ef          	jal	ra,ffffffc0503056f2 <Xil_Out32>
ffffffc050305da6:	fd843783          	ld	a5,-40(s0)
ffffffc050305daa:	853e                	mv	a0,a5
ffffffc050305dac:	60e6                	ld	ra,88(sp)
ffffffc050305dae:	6446                	ld	s0,80(sp)
ffffffc050305db0:	64a6                	ld	s1,72(sp)
ffffffc050305db2:	6125                	addi	sp,sp,96
ffffffc050305db4:	8082                	ret

ffffffc050305db6 <EmacPsWaitSend>:
ffffffc050305db6:	7139                	addi	sp,sp,-64
ffffffc050305db8:	fc06                	sd	ra,56(sp)
ffffffc050305dba:	f822                	sd	s0,48(sp)
ffffffc050305dbc:	0080                	addi	s0,sp,64
ffffffc050305dbe:	fca43423          	sd	a0,-56(s0)
ffffffc050305dc2:	fe043023          	sd	zero,-32(s0)
ffffffc050305dc6:	00042797          	auipc	a5,0x42
ffffffc050305dca:	aba78793          	addi	a5,a5,-1350 # ffffffc050347880 <net_poll_mode>
ffffffc050305dce:	439c                	lw	a5,0(a5)
ffffffc050305dd0:	e7d1                	bnez	a5,ffffffc050305e5c <EmacPsWaitSend+0xa6>
ffffffc050305dd2:	a8ad                	j	ffffffc050305e4c <EmacPsWaitSend+0x96>
ffffffc050305dd4:	fc843783          	ld	a5,-56(s0)
ffffffc050305dd8:	679c                	ld	a5,8(a5)
ffffffc050305dda:	07d1                	addi	a5,a5,20
ffffffc050305ddc:	853e                	mv	a0,a5
ffffffc050305dde:	941ff0ef          	jal	ra,ffffffc05030571e <Xil_In32>
ffffffc050305de2:	87aa                	mv	a5,a0
ffffffc050305de4:	fef42623          	sw	a5,-20(s0)
ffffffc050305de8:	a819                	j	ffffffc050305dfe <EmacPsWaitSend+0x48>
ffffffc050305dea:	fc843783          	ld	a5,-56(s0)
ffffffc050305dee:	679c                	ld	a5,8(a5)
ffffffc050305df0:	07d1                	addi	a5,a5,20
ffffffc050305df2:	853e                	mv	a0,a5
ffffffc050305df4:	92bff0ef          	jal	ra,ffffffc05030571e <Xil_In32>
ffffffc050305df8:	87aa                	mv	a5,a0
ffffffc050305dfa:	fef42623          	sw	a5,-20(s0)
ffffffc050305dfe:	fec42783          	lw	a5,-20(s0)
ffffffc050305e02:	0207f793          	andi	a5,a5,32
ffffffc050305e06:	2781                	sext.w	a5,a5
ffffffc050305e08:	d3ed                	beqz	a5,ffffffc050305dea <EmacPsWaitSend+0x34>
ffffffc050305e0a:	00035797          	auipc	a5,0x35
ffffffc050305e0e:	5f678793          	addi	a5,a5,1526 # ffffffc05033b400 <bd_space>
ffffffc050305e12:	2007b783          	ld	a5,512(a5)
ffffffc050305e16:	93fd                	srli	a5,a5,0x3f
ffffffc050305e18:	fcf42e23          	sw	a5,-36(s0)
ffffffc050305e1c:	fdc42783          	lw	a5,-36(s0)
ffffffc050305e20:	2781                	sext.w	a5,a5
ffffffc050305e22:	c799                	beqz	a5,ffffffc050305e30 <EmacPsWaitSend+0x7a>
ffffffc050305e24:	00006517          	auipc	a0,0x6
ffffffc050305e28:	9cc50513          	addi	a0,a0,-1588 # ffffffc05030b7f0 <__FUNCTION__.1991+0x590>
ffffffc050305e2c:	5a5040ef          	jal	ra,ffffffc05030abd0 <printk>
ffffffc050305e30:	00036797          	auipc	a5,0x36
ffffffc050305e34:	9d078793          	addi	a5,a5,-1584 # ffffffc05033b800 <FramesTx>
ffffffc050305e38:	439c                	lw	a5,0(a5)
ffffffc050305e3a:	2781                	sext.w	a5,a5
ffffffc050305e3c:	2785                	addiw	a5,a5,1
ffffffc050305e3e:	0007871b          	sext.w	a4,a5
ffffffc050305e42:	00036797          	auipc	a5,0x36
ffffffc050305e46:	9be78793          	addi	a5,a5,-1602 # ffffffc05033b800 <FramesTx>
ffffffc050305e4a:	c398                	sw	a4,0(a5)
ffffffc050305e4c:	00036797          	auipc	a5,0x36
ffffffc050305e50:	9b478793          	addi	a5,a5,-1612 # ffffffc05033b800 <FramesTx>
ffffffc050305e54:	439c                	lw	a5,0(a5)
ffffffc050305e56:	2781                	sext.w	a5,a5
ffffffc050305e58:	dfb5                	beqz	a5,ffffffc050305dd4 <EmacPsWaitSend+0x1e>
ffffffc050305e5a:	a839                	j	ffffffc050305e78 <EmacPsWaitSend+0xc2>
ffffffc050305e5c:	00036797          	auipc	a5,0x36
ffffffc050305e60:	9a478793          	addi	a5,a5,-1628 # ffffffc05033b800 <FramesTx>
ffffffc050305e64:	439c                	lw	a5,0(a5)
ffffffc050305e66:	2781                	sext.w	a5,a5
ffffffc050305e68:	2785                	addiw	a5,a5,1
ffffffc050305e6a:	0007871b          	sext.w	a4,a5
ffffffc050305e6e:	00036797          	auipc	a5,0x36
ffffffc050305e72:	99278793          	addi	a5,a5,-1646 # ffffffc05033b800 <FramesTx>
ffffffc050305e76:	c398                	sw	a4,0(a5)
ffffffc050305e78:	00036797          	auipc	a5,0x36
ffffffc050305e7c:	98878793          	addi	a5,a5,-1656 # ffffffc05033b800 <FramesTx>
ffffffc050305e80:	439c                	lw	a5,0(a5)
ffffffc050305e82:	2781                	sext.w	a5,a5
ffffffc050305e84:	37fd                	addiw	a5,a5,-1
ffffffc050305e86:	0007871b          	sext.w	a4,a5
ffffffc050305e8a:	00036797          	auipc	a5,0x36
ffffffc050305e8e:	97678793          	addi	a5,a5,-1674 # ffffffc05033b800 <FramesTx>
ffffffc050305e92:	c398                	sw	a4,0(a5)
ffffffc050305e94:	04000593          	li	a1,64
ffffffc050305e98:	4501                	li	a0,0
ffffffc050305e9a:	8a9ff0ef          	jal	ra,ffffffc050305742 <Xil_DCacheFlushRange>
ffffffc050305e9e:	fe043783          	ld	a5,-32(s0)
ffffffc050305ea2:	853e                	mv	a0,a5
ffffffc050305ea4:	70e2                	ld	ra,56(sp)
ffffffc050305ea6:	7442                	ld	s0,48(sp)
ffffffc050305ea8:	6121                	addi	sp,sp,64
ffffffc050305eaa:	8082                	ret

ffffffc050305eac <EmacPsRecv>:
ffffffc050305eac:	711d                	addi	sp,sp,-96
ffffffc050305eae:	ec86                	sd	ra,88(sp)
ffffffc050305eb0:	e8a2                	sd	s0,80(sp)
ffffffc050305eb2:	1080                	addi	s0,sp,96
ffffffc050305eb4:	faa43c23          	sd	a0,-72(s0)
ffffffc050305eb8:	fab43823          	sd	a1,-80(s0)
ffffffc050305ebc:	87b2                	mv	a5,a2
ffffffc050305ebe:	faf42623          	sw	a5,-84(s0)
ffffffc050305ec2:	fc043c23          	sd	zero,-40(s0)
ffffffc050305ec6:	fb843783          	ld	a5,-72(s0)
ffffffc050305eca:	539c                	lw	a5,32(a5)
ffffffc050305ecc:	2007f793          	andi	a5,a5,512
ffffffc050305ed0:	2781                	sext.w	a5,a5
ffffffc050305ed2:	cb91                	beqz	a5,ffffffc050305ee6 <EmacPsRecv+0x3a>
ffffffc050305ed4:	fb843783          	ld	a5,-72(s0)
ffffffc050305ed8:	679c                	ld	a5,8(a5)
ffffffc050305eda:	853e                	mv	a0,a5
ffffffc050305edc:	843ff0ef          	jal	ra,ffffffc05030571e <Xil_In32>
ffffffc050305ee0:	87aa                	mv	a5,a0
ffffffc050305ee2:	fcf42a23          	sw	a5,-44(s0)
ffffffc050305ee6:	fb043703          	ld	a4,-80(s0)
ffffffc050305eea:	478d                	li	a5,3
ffffffc050305eec:	17be                	slli	a5,a5,0x2f
ffffffc050305eee:	97ba                	add	a5,a5,a4
ffffffc050305ef0:	fef43423          	sd	a5,-24(s0)
ffffffc050305ef4:	fe042223          	sw	zero,-28(s0)
ffffffc050305ef8:	a8b5                	j	ffffffc050305f74 <EmacPsRecv+0xc8>
ffffffc050305efa:	fc042023          	sw	zero,-64(s0)
ffffffc050305efe:	fac42783          	lw	a5,-84(s0)
ffffffc050305f02:	37fd                	addiw	a5,a5,-1
ffffffc050305f04:	0007871b          	sext.w	a4,a5
ffffffc050305f08:	fe442783          	lw	a5,-28(s0)
ffffffc050305f0c:	2781                	sext.w	a5,a5
ffffffc050305f0e:	00e79d63          	bne	a5,a4,ffffffc050305f28 <EmacPsRecv+0x7c>
ffffffc050305f12:	fe843783          	ld	a5,-24(s0)
ffffffc050305f16:	2781                	sext.w	a5,a5
ffffffc050305f18:	0027e793          	ori	a5,a5,2
ffffffc050305f1c:	2781                	sext.w	a5,a5
ffffffc050305f1e:	fcf42023          	sw	a5,-64(s0)
ffffffc050305f22:	fc042223          	sw	zero,-60(s0)
ffffffc050305f26:	a801                	j	ffffffc050305f36 <EmacPsRecv+0x8a>
ffffffc050305f28:	fe843783          	ld	a5,-24(s0)
ffffffc050305f2c:	2781                	sext.w	a5,a5
ffffffc050305f2e:	fcf42023          	sw	a5,-64(s0)
ffffffc050305f32:	fc042223          	sw	zero,-60(s0)
ffffffc050305f36:	fc442783          	lw	a5,-60(s0)
ffffffc050305f3a:	1782                	slli	a5,a5,0x20
ffffffc050305f3c:	9381                	srli	a5,a5,0x20
ffffffc050305f3e:	02079713          	slli	a4,a5,0x20
ffffffc050305f42:	fc042783          	lw	a5,-64(s0)
ffffffc050305f46:	1782                	slli	a5,a5,0x20
ffffffc050305f48:	9381                	srli	a5,a5,0x20
ffffffc050305f4a:	8f5d                	or	a4,a4,a5
ffffffc050305f4c:	00035697          	auipc	a3,0x35
ffffffc050305f50:	4b468693          	addi	a3,a3,1204 # ffffffc05033b400 <bd_space>
ffffffc050305f54:	fe442783          	lw	a5,-28(s0)
ffffffc050305f58:	078e                	slli	a5,a5,0x3
ffffffc050305f5a:	97b6                	add	a5,a5,a3
ffffffc050305f5c:	e398                	sd	a4,0(a5)
ffffffc050305f5e:	fe843783          	ld	a5,-24(s0)
ffffffc050305f62:	60078793          	addi	a5,a5,1536
ffffffc050305f66:	fef43423          	sd	a5,-24(s0)
ffffffc050305f6a:	fe442783          	lw	a5,-28(s0)
ffffffc050305f6e:	2785                	addiw	a5,a5,1
ffffffc050305f70:	fef42223          	sw	a5,-28(s0)
ffffffc050305f74:	fe442703          	lw	a4,-28(s0)
ffffffc050305f78:	fac42783          	lw	a5,-84(s0)
ffffffc050305f7c:	2701                	sext.w	a4,a4
ffffffc050305f7e:	2781                	sext.w	a5,a5
ffffffc050305f80:	f6f74de3          	blt	a4,a5,ffffffc050305efa <EmacPsRecv+0x4e>
ffffffc050305f84:	a005                	j	ffffffc050305fa4 <EmacPsRecv+0xf8>
ffffffc050305f86:	00035717          	auipc	a4,0x35
ffffffc050305f8a:	47a70713          	addi	a4,a4,1146 # ffffffc05033b400 <bd_space>
ffffffc050305f8e:	fe442783          	lw	a5,-28(s0)
ffffffc050305f92:	078e                	slli	a5,a5,0x3
ffffffc050305f94:	97ba                	add	a5,a5,a4
ffffffc050305f96:	4709                	li	a4,2
ffffffc050305f98:	e398                	sd	a4,0(a5)
ffffffc050305f9a:	fe442783          	lw	a5,-28(s0)
ffffffc050305f9e:	2785                	addiw	a5,a5,1
ffffffc050305fa0:	fef42223          	sw	a5,-28(s0)
ffffffc050305fa4:	fe442783          	lw	a5,-28(s0)
ffffffc050305fa8:	0007871b          	sext.w	a4,a5
ffffffc050305fac:	03f00793          	li	a5,63
ffffffc050305fb0:	fce7dbe3          	bge	a5,a4,ffffffc050305f86 <EmacPsRecv+0xda>
ffffffc050305fb4:	04000593          	li	a1,64
ffffffc050305fb8:	4501                	li	a0,0
ffffffc050305fba:	f88ff0ef          	jal	ra,ffffffc050305742 <Xil_DCacheFlushRange>
ffffffc050305fbe:	00035717          	auipc	a4,0x35
ffffffc050305fc2:	44270713          	addi	a4,a4,1090 # ffffffc05033b400 <bd_space>
ffffffc050305fc6:	4785                	li	a5,1
ffffffc050305fc8:	17a6                	slli	a5,a5,0x29
ffffffc050305fca:	97ba                	add	a5,a5,a4
ffffffc050305fcc:	fcf42823          	sw	a5,-48(s0)
ffffffc050305fd0:	fb843783          	ld	a5,-72(s0)
ffffffc050305fd4:	679c                	ld	a5,8(a5)
ffffffc050305fd6:	07e1                	addi	a5,a5,24
ffffffc050305fd8:	fd042703          	lw	a4,-48(s0)
ffffffc050305fdc:	85ba                	mv	a1,a4
ffffffc050305fde:	853e                	mv	a0,a5
ffffffc050305fe0:	f12ff0ef          	jal	ra,ffffffc0503056f2 <Xil_Out32>
ffffffc050305fe4:	fb843783          	ld	a5,-72(s0)
ffffffc050305fe8:	539c                	lw	a5,32(a5)
ffffffc050305fea:	2007f793          	andi	a5,a5,512
ffffffc050305fee:	2781                	sext.w	a5,a5
ffffffc050305ff0:	cb9d                	beqz	a5,ffffffc050306026 <EmacPsRecv+0x17a>
ffffffc050305ff2:	fb843783          	ld	a5,-72(s0)
ffffffc050305ff6:	679c                	ld	a5,8(a5)
ffffffc050305ff8:	853e                	mv	a0,a5
ffffffc050305ffa:	f24ff0ef          	jal	ra,ffffffc05030571e <Xil_In32>
ffffffc050305ffe:	87aa                	mv	a5,a0
ffffffc050306000:	fcf42623          	sw	a5,-52(s0)
ffffffc050306004:	fcc42783          	lw	a5,-52(s0)
ffffffc050306008:	8b91                	andi	a5,a5,4
ffffffc05030600a:	2781                	sext.w	a5,a5
ffffffc05030600c:	ef89                	bnez	a5,ffffffc050306026 <EmacPsRecv+0x17a>
ffffffc05030600e:	fb843783          	ld	a5,-72(s0)
ffffffc050306012:	6798                	ld	a4,8(a5)
ffffffc050306014:	fcc42783          	lw	a5,-52(s0)
ffffffc050306018:	0047e793          	ori	a5,a5,4
ffffffc05030601c:	2781                	sext.w	a5,a5
ffffffc05030601e:	85be                	mv	a1,a5
ffffffc050306020:	853a                	mv	a0,a4
ffffffc050306022:	ed0ff0ef          	jal	ra,ffffffc0503056f2 <Xil_Out32>
ffffffc050306026:	fd843783          	ld	a5,-40(s0)
ffffffc05030602a:	853e                	mv	a0,a5
ffffffc05030602c:	60e6                	ld	ra,88(sp)
ffffffc05030602e:	6446                	ld	s0,80(sp)
ffffffc050306030:	6125                	addi	sp,sp,96
ffffffc050306032:	8082                	ret

ffffffc050306034 <EmacPsWaitRecv>:
ffffffc050306034:	715d                	addi	sp,sp,-80
ffffffc050306036:	e486                	sd	ra,72(sp)
ffffffc050306038:	e0a2                	sd	s0,64(sp)
ffffffc05030603a:	0880                	addi	s0,sp,80
ffffffc05030603c:	fca43423          	sd	a0,-56(s0)
ffffffc050306040:	87ae                	mv	a5,a1
ffffffc050306042:	fac43c23          	sd	a2,-72(s0)
ffffffc050306046:	fcf42223          	sw	a5,-60(s0)
ffffffc05030604a:	fe043023          	sd	zero,-32(s0)
ffffffc05030604e:	fc042e23          	sw	zero,-36(s0)
ffffffc050306052:	fe042623          	sw	zero,-20(s0)
ffffffc050306056:	a0b5                	j	ffffffc0503060c2 <EmacPsWaitRecv+0x8e>
ffffffc050306058:	00035797          	auipc	a5,0x35
ffffffc05030605c:	7b478793          	addi	a5,a5,1972 # ffffffc05033b80c <FramesRx>
ffffffc050306060:	439c                	lw	a5,0(a5)
ffffffc050306062:	2781                	sext.w	a5,a5
ffffffc050306064:	00035717          	auipc	a4,0x35
ffffffc050306068:	39c70713          	addi	a4,a4,924 # ffffffc05033b400 <bd_space>
ffffffc05030606c:	078e                	slli	a5,a5,0x3
ffffffc05030606e:	97ba                	add	a5,a5,a4
ffffffc050306070:	639c                	ld	a5,0(a5)
ffffffc050306072:	2781                	sext.w	a5,a5
ffffffc050306074:	8b85                	andi	a5,a5,1
ffffffc050306076:	fef42423          	sw	a5,-24(s0)
ffffffc05030607a:	a015                	j	ffffffc05030609e <EmacPsWaitRecv+0x6a>
ffffffc05030607c:	00035797          	auipc	a5,0x35
ffffffc050306080:	79078793          	addi	a5,a5,1936 # ffffffc05033b80c <FramesRx>
ffffffc050306084:	439c                	lw	a5,0(a5)
ffffffc050306086:	2781                	sext.w	a5,a5
ffffffc050306088:	00035717          	auipc	a4,0x35
ffffffc05030608c:	37870713          	addi	a4,a4,888 # ffffffc05033b400 <bd_space>
ffffffc050306090:	078e                	slli	a5,a5,0x3
ffffffc050306092:	97ba                	add	a5,a5,a4
ffffffc050306094:	639c                	ld	a5,0(a5)
ffffffc050306096:	2781                	sext.w	a5,a5
ffffffc050306098:	8b85                	andi	a5,a5,1
ffffffc05030609a:	fef42423          	sw	a5,-24(s0)
ffffffc05030609e:	fe842783          	lw	a5,-24(s0)
ffffffc0503060a2:	2781                	sext.w	a5,a5
ffffffc0503060a4:	dfe1                	beqz	a5,ffffffc05030607c <EmacPsWaitRecv+0x48>
ffffffc0503060a6:	00035797          	auipc	a5,0x35
ffffffc0503060aa:	76678793          	addi	a5,a5,1894 # ffffffc05033b80c <FramesRx>
ffffffc0503060ae:	439c                	lw	a5,0(a5)
ffffffc0503060b0:	2781                	sext.w	a5,a5
ffffffc0503060b2:	2785                	addiw	a5,a5,1
ffffffc0503060b4:	0007871b          	sext.w	a4,a5
ffffffc0503060b8:	00035797          	auipc	a5,0x35
ffffffc0503060bc:	75478793          	addi	a5,a5,1876 # ffffffc05033b80c <FramesRx>
ffffffc0503060c0:	c398                	sw	a4,0(a5)
ffffffc0503060c2:	00035797          	auipc	a5,0x35
ffffffc0503060c6:	74a78793          	addi	a5,a5,1866 # ffffffc05033b80c <FramesRx>
ffffffc0503060ca:	439c                	lw	a5,0(a5)
ffffffc0503060cc:	0007871b          	sext.w	a4,a5
ffffffc0503060d0:	fc442783          	lw	a5,-60(s0)
ffffffc0503060d4:	2781                	sext.w	a5,a5
ffffffc0503060d6:	f8e791e3          	bne	a5,a4,ffffffc050306058 <EmacPsWaitRecv+0x24>
ffffffc0503060da:	04000593          	li	a1,64
ffffffc0503060de:	4501                	li	a0,0
ffffffc0503060e0:	e62ff0ef          	jal	ra,ffffffc050305742 <Xil_DCacheFlushRange>
ffffffc0503060e4:	00035797          	auipc	a5,0x35
ffffffc0503060e8:	72878793          	addi	a5,a5,1832 # ffffffc05033b80c <FramesRx>
ffffffc0503060ec:	0007a023          	sw	zero,0(a5)
ffffffc0503060f0:	fe042623          	sw	zero,-20(s0)
ffffffc0503060f4:	a81d                	j	ffffffc05030612a <EmacPsWaitRecv+0xf6>
ffffffc0503060f6:	00035717          	auipc	a4,0x35
ffffffc0503060fa:	30a70713          	addi	a4,a4,778 # ffffffc05033b400 <bd_space>
ffffffc0503060fe:	fec42783          	lw	a5,-20(s0)
ffffffc050306102:	078e                	slli	a5,a5,0x3
ffffffc050306104:	97ba                	add	a5,a5,a4
ffffffc050306106:	639c                	ld	a5,0(a5)
ffffffc050306108:	07ce                	slli	a5,a5,0x13
ffffffc05030610a:	0337d693          	srli	a3,a5,0x33
ffffffc05030610e:	fec42783          	lw	a5,-20(s0)
ffffffc050306112:	078a                	slli	a5,a5,0x2
ffffffc050306114:	fb843703          	ld	a4,-72(s0)
ffffffc050306118:	97ba                	add	a5,a5,a4
ffffffc05030611a:	0006871b          	sext.w	a4,a3
ffffffc05030611e:	c398                	sw	a4,0(a5)
ffffffc050306120:	fec42783          	lw	a5,-20(s0)
ffffffc050306124:	2785                	addiw	a5,a5,1
ffffffc050306126:	fef42623          	sw	a5,-20(s0)
ffffffc05030612a:	fec42703          	lw	a4,-20(s0)
ffffffc05030612e:	fc442783          	lw	a5,-60(s0)
ffffffc050306132:	2701                	sext.w	a4,a4
ffffffc050306134:	2781                	sext.w	a5,a5
ffffffc050306136:	fcf740e3          	blt	a4,a5,ffffffc0503060f6 <EmacPsWaitRecv+0xc2>
ffffffc05030613a:	fe043783          	ld	a5,-32(s0)
ffffffc05030613e:	853e                	mv	a0,a5
ffffffc050306140:	60a6                	ld	ra,72(sp)
ffffffc050306142:	6406                	ld	s0,64(sp)
ffffffc050306144:	6161                	addi	sp,sp,80
ffffffc050306146:	8082                	ret

ffffffc050306148 <EmacPsDmaIntrExample>:
ffffffc050306148:	7179                	addi	sp,sp,-48
ffffffc05030614a:	f406                	sd	ra,40(sp)
ffffffc05030614c:	f022                	sd	s0,32(sp)
ffffffc05030614e:	1800                	addi	s0,sp,48
ffffffc050306150:	fca43c23          	sd	a0,-40(s0)
ffffffc050306154:	fd843503          	ld	a0,-40(s0)
ffffffc050306158:	a83ff0ef          	jal	ra,ffffffc050305bda <EmacPsInit>
ffffffc05030615c:	fea43423          	sd	a0,-24(s0)
ffffffc050306160:	00005517          	auipc	a0,0x5
ffffffc050306164:	6a050513          	addi	a0,a0,1696 # ffffffc05030b800 <__FUNCTION__.1991+0x5a0>
ffffffc050306168:	269040ef          	jal	ra,ffffffc05030abd0 <printk>
ffffffc05030616c:	fd843503          	ld	a0,-40(s0)
ffffffc050306170:	032000ef          	jal	ra,ffffffc0503061a2 <EmacPsDmaSingleFrameIntrExample>
ffffffc050306174:	fea43423          	sd	a0,-24(s0)
ffffffc050306178:	fe843783          	ld	a5,-24(s0)
ffffffc05030617c:	c399                	beqz	a5,ffffffc050306182 <EmacPsDmaIntrExample+0x3a>
ffffffc05030617e:	4785                	li	a5,1
ffffffc050306180:	a821                	j	ffffffc050306198 <EmacPsDmaIntrExample+0x50>
ffffffc050306182:	00005517          	auipc	a0,0x5
ffffffc050306186:	6be50513          	addi	a0,a0,1726 # ffffffc05030b840 <__FUNCTION__.1991+0x5e0>
ffffffc05030618a:	247040ef          	jal	ra,ffffffc05030abd0 <printk>
ffffffc05030618e:	fd843503          	ld	a0,-40(s0)
ffffffc050306192:	1c5000ef          	jal	ra,ffffffc050306b56 <XEmacPs_Stop>
ffffffc050306196:	4781                	li	a5,0
ffffffc050306198:	853e                	mv	a0,a5
ffffffc05030619a:	70a2                	ld	ra,40(sp)
ffffffc05030619c:	7402                	ld	s0,32(sp)
ffffffc05030619e:	6145                	addi	sp,sp,48
ffffffc0503061a0:	8082                	ret

ffffffc0503061a2 <EmacPsDmaSingleFrameIntrExample>:
ffffffc0503061a2:	7139                	addi	sp,sp,-64
ffffffc0503061a4:	fc06                	sd	ra,56(sp)
ffffffc0503061a6:	f822                	sd	s0,48(sp)
ffffffc0503061a8:	0080                	addi	s0,sp,64
ffffffc0503061aa:	fca43423          	sd	a0,-56(s0)
ffffffc0503061ae:	3e800793          	li	a5,1000
ffffffc0503061b2:	fef42023          	sw	a5,-32(s0)
ffffffc0503061b6:	00035797          	auipc	a5,0x35
ffffffc0503061ba:	65678793          	addi	a5,a5,1622 # ffffffc05033b80c <FramesRx>
ffffffc0503061be:	0007a023          	sw	zero,0(a5)
ffffffc0503061c2:	00035797          	auipc	a5,0x35
ffffffc0503061c6:	63e78793          	addi	a5,a5,1598 # ffffffc05033b800 <FramesTx>
ffffffc0503061ca:	0007a023          	sw	zero,0(a5)
ffffffc0503061ce:	00035797          	auipc	a5,0x35
ffffffc0503061d2:	63678793          	addi	a5,a5,1590 # ffffffc05033b804 <DeviceErrors>
ffffffc0503061d6:	0007a023          	sw	zero,0(a5)
ffffffc0503061da:	fe042783          	lw	a5,-32(s0)
ffffffc0503061de:	27b9                	addiw	a5,a5,14
ffffffc0503061e0:	0007871b          	sext.w	a4,a5
ffffffc0503061e4:	00035797          	auipc	a5,0x35
ffffffc0503061e8:	62c78793          	addi	a5,a5,1580 # ffffffc05033b810 <TxFrameLength>
ffffffc0503061ec:	c398                	sw	a4,0(a5)
ffffffc0503061ee:	00031597          	auipc	a1,0x31
ffffffc0503061f2:	31258593          	addi	a1,a1,786 # ffffffc050337500 <BroadcastMAC>
ffffffc0503061f6:	00035517          	auipc	a0,0x35
ffffffc0503061fa:	bca50513          	addi	a0,a0,-1078 # ffffffc05033adc0 <TxFrame>
ffffffc0503061fe:	a95fd0ef          	jal	ra,ffffffc050303c92 <EmacPsUtilFrameHdrFormatMAC>
ffffffc050306202:	fe042783          	lw	a5,-32(s0)
ffffffc050306206:	17c2                	slli	a5,a5,0x30
ffffffc050306208:	93c1                	srli	a5,a5,0x30
ffffffc05030620a:	85be                	mv	a1,a5
ffffffc05030620c:	00035517          	auipc	a0,0x35
ffffffc050306210:	bb450513          	addi	a0,a0,-1100 # ffffffc05033adc0 <TxFrame>
ffffffc050306214:	b23fd0ef          	jal	ra,ffffffc050303d36 <EmacPsUtilFrameHdrFormatType>
ffffffc050306218:	fe042783          	lw	a5,-32(s0)
ffffffc05030621c:	85be                	mv	a1,a5
ffffffc05030621e:	00035517          	auipc	a0,0x35
ffffffc050306222:	ba250513          	addi	a0,a0,-1118 # ffffffc05033adc0 <TxFrame>
ffffffc050306226:	b5bfd0ef          	jal	ra,ffffffc050303d80 <EmacPsUtilFrameSetPayloadData>
ffffffc05030622a:	00005517          	auipc	a0,0x5
ffffffc05030622e:	65650513          	addi	a0,a0,1622 # ffffffc05030b880 <__FUNCTION__.1991+0x620>
ffffffc050306232:	19f040ef          	jal	ra,ffffffc05030abd0 <printk>
ffffffc050306236:	00035797          	auipc	a5,0x35
ffffffc05030623a:	b8a78793          	addi	a5,a5,-1142 # ffffffc05033adc0 <TxFrame>
ffffffc05030623e:	60000593          	li	a1,1536
ffffffc050306242:	853e                	mv	a0,a5
ffffffc050306244:	cfeff0ef          	jal	ra,ffffffc050305742 <Xil_DCacheFlushRange>
ffffffc050306248:	00034517          	auipc	a0,0x34
ffffffc05030624c:	53850513          	addi	a0,a0,1336 # ffffffc05033a780 <RxFrame>
ffffffc050306250:	d2ffd0ef          	jal	ra,ffffffc050303f7e <EmacPsUtilFrameMemClear>
ffffffc050306254:	00005517          	auipc	a0,0x5
ffffffc050306258:	65450513          	addi	a0,a0,1620 # ffffffc05030b8a8 <__FUNCTION__.1991+0x648>
ffffffc05030625c:	175040ef          	jal	ra,ffffffc05030abd0 <printk>
ffffffc050306260:	00034797          	auipc	a5,0x34
ffffffc050306264:	52078793          	addi	a5,a5,1312 # ffffffc05033a780 <RxFrame>
ffffffc050306268:	60000593          	li	a1,1536
ffffffc05030626c:	853e                	mv	a0,a5
ffffffc05030626e:	cd4ff0ef          	jal	ra,ffffffc050305742 <Xil_DCacheFlushRange>
ffffffc050306272:	4605                	li	a2,1
ffffffc050306274:	00034597          	auipc	a1,0x34
ffffffc050306278:	50c58593          	addi	a1,a1,1292 # ffffffc05033a780 <RxFrame>
ffffffc05030627c:	fc843503          	ld	a0,-56(s0)
ffffffc050306280:	c2dff0ef          	jal	ra,ffffffc050305eac <EmacPsRecv>
ffffffc050306284:	00035797          	auipc	a5,0x35
ffffffc050306288:	58c78793          	addi	a5,a5,1420 # ffffffc05033b810 <TxFrameLength>
ffffffc05030628c:	439c                	lw	a5,0(a5)
ffffffc05030628e:	1782                	slli	a5,a5,0x20
ffffffc050306290:	9381                	srli	a5,a5,0x20
ffffffc050306292:	863e                	mv	a2,a5
ffffffc050306294:	00035597          	auipc	a1,0x35
ffffffc050306298:	b2c58593          	addi	a1,a1,-1236 # ffffffc05033adc0 <TxFrame>
ffffffc05030629c:	fc843503          	ld	a0,-56(s0)
ffffffc0503062a0:	a15ff0ef          	jal	ra,ffffffc050305cb4 <EmacPsSend>
ffffffc0503062a4:	fc843503          	ld	a0,-56(s0)
ffffffc0503062a8:	b0fff0ef          	jal	ra,ffffffc050305db6 <EmacPsWaitSend>
ffffffc0503062ac:	fdc40793          	addi	a5,s0,-36
ffffffc0503062b0:	863e                	mv	a2,a5
ffffffc0503062b2:	4585                	li	a1,1
ffffffc0503062b4:	fc843503          	ld	a0,-56(s0)
ffffffc0503062b8:	d7dff0ef          	jal	ra,ffffffc050306034 <EmacPsWaitRecv>
ffffffc0503062bc:	00034597          	auipc	a1,0x34
ffffffc0503062c0:	4c458593          	addi	a1,a1,1220 # ffffffc05033a780 <RxFrame>
ffffffc0503062c4:	00035517          	auipc	a0,0x35
ffffffc0503062c8:	afc50513          	addi	a0,a0,-1284 # ffffffc05033adc0 <TxFrame>
ffffffc0503062cc:	b93fd0ef          	jal	ra,ffffffc050303e5e <EmacPsUtilFrameVerify>
ffffffc0503062d0:	87aa                	mv	a5,a0
ffffffc0503062d2:	10078363          	beqz	a5,ffffffc0503063d8 <EmacPsDmaSingleFrameIntrExample+0x236>
ffffffc0503062d6:	fe042623          	sw	zero,-20(s0)
ffffffc0503062da:	a8c1                	j	ffffffc0503063aa <EmacPsDmaSingleFrameIntrExample+0x208>
ffffffc0503062dc:	00005517          	auipc	a0,0x5
ffffffc0503062e0:	5f450513          	addi	a0,a0,1524 # ffffffc05030b8d0 <__FUNCTION__.1991+0x670>
ffffffc0503062e4:	0ed040ef          	jal	ra,ffffffc05030abd0 <printk>
ffffffc0503062e8:	fe042423          	sw	zero,-24(s0)
ffffffc0503062ec:	a83d                	j	ffffffc05030632a <EmacPsDmaSingleFrameIntrExample+0x188>
ffffffc0503062ee:	fec42783          	lw	a5,-20(s0)
ffffffc0503062f2:	0047979b          	slliw	a5,a5,0x4
ffffffc0503062f6:	2781                	sext.w	a5,a5
ffffffc0503062f8:	fe842703          	lw	a4,-24(s0)
ffffffc0503062fc:	9fb9                	addw	a5,a5,a4
ffffffc0503062fe:	2781                	sext.w	a5,a5
ffffffc050306300:	873e                	mv	a4,a5
ffffffc050306302:	00035797          	auipc	a5,0x35
ffffffc050306306:	abe78793          	addi	a5,a5,-1346 # ffffffc05033adc0 <TxFrame>
ffffffc05030630a:	97ba                	add	a5,a5,a4
ffffffc05030630c:	0007c783          	lbu	a5,0(a5)
ffffffc050306310:	2781                	sext.w	a5,a5
ffffffc050306312:	85be                	mv	a1,a5
ffffffc050306314:	00005517          	auipc	a0,0x5
ffffffc050306318:	5c450513          	addi	a0,a0,1476 # ffffffc05030b8d8 <__FUNCTION__.1991+0x678>
ffffffc05030631c:	0b5040ef          	jal	ra,ffffffc05030abd0 <printk>
ffffffc050306320:	fe842783          	lw	a5,-24(s0)
ffffffc050306324:	2785                	addiw	a5,a5,1
ffffffc050306326:	fef42423          	sw	a5,-24(s0)
ffffffc05030632a:	fe842783          	lw	a5,-24(s0)
ffffffc05030632e:	0007871b          	sext.w	a4,a5
ffffffc050306332:	47bd                	li	a5,15
ffffffc050306334:	fae7dde3          	bge	a5,a4,ffffffc0503062ee <EmacPsDmaSingleFrameIntrExample+0x14c>
ffffffc050306338:	00005517          	auipc	a0,0x5
ffffffc05030633c:	5a850513          	addi	a0,a0,1448 # ffffffc05030b8e0 <__FUNCTION__.1991+0x680>
ffffffc050306340:	091040ef          	jal	ra,ffffffc05030abd0 <printk>
ffffffc050306344:	fe042223          	sw	zero,-28(s0)
ffffffc050306348:	a83d                	j	ffffffc050306386 <EmacPsDmaSingleFrameIntrExample+0x1e4>
ffffffc05030634a:	fec42783          	lw	a5,-20(s0)
ffffffc05030634e:	0047979b          	slliw	a5,a5,0x4
ffffffc050306352:	2781                	sext.w	a5,a5
ffffffc050306354:	fe442703          	lw	a4,-28(s0)
ffffffc050306358:	9fb9                	addw	a5,a5,a4
ffffffc05030635a:	2781                	sext.w	a5,a5
ffffffc05030635c:	873e                	mv	a4,a5
ffffffc05030635e:	00034797          	auipc	a5,0x34
ffffffc050306362:	42278793          	addi	a5,a5,1058 # ffffffc05033a780 <RxFrame>
ffffffc050306366:	97ba                	add	a5,a5,a4
ffffffc050306368:	0007c783          	lbu	a5,0(a5)
ffffffc05030636c:	2781                	sext.w	a5,a5
ffffffc05030636e:	85be                	mv	a1,a5
ffffffc050306370:	00005517          	auipc	a0,0x5
ffffffc050306374:	56850513          	addi	a0,a0,1384 # ffffffc05030b8d8 <__FUNCTION__.1991+0x678>
ffffffc050306378:	059040ef          	jal	ra,ffffffc05030abd0 <printk>
ffffffc05030637c:	fe442783          	lw	a5,-28(s0)
ffffffc050306380:	2785                	addiw	a5,a5,1
ffffffc050306382:	fef42223          	sw	a5,-28(s0)
ffffffc050306386:	fe442783          	lw	a5,-28(s0)
ffffffc05030638a:	0007871b          	sext.w	a4,a5
ffffffc05030638e:	47bd                	li	a5,15
ffffffc050306390:	fae7dde3          	bge	a5,a4,ffffffc05030634a <EmacPsDmaSingleFrameIntrExample+0x1a8>
ffffffc050306394:	00005517          	auipc	a0,0x5
ffffffc050306398:	55450513          	addi	a0,a0,1364 # ffffffc05030b8e8 <__FUNCTION__.1991+0x688>
ffffffc05030639c:	035040ef          	jal	ra,ffffffc05030abd0 <printk>
ffffffc0503063a0:	fec42783          	lw	a5,-20(s0)
ffffffc0503063a4:	2785                	addiw	a5,a5,1
ffffffc0503063a6:	fef42623          	sw	a5,-20(s0)
ffffffc0503063aa:	00035797          	auipc	a5,0x35
ffffffc0503063ae:	46678793          	addi	a5,a5,1126 # ffffffc05033b810 <TxFrameLength>
ffffffc0503063b2:	439c                	lw	a5,0(a5)
ffffffc0503063b4:	0047d79b          	srliw	a5,a5,0x4
ffffffc0503063b8:	2781                	sext.w	a5,a5
ffffffc0503063ba:	37fd                	addiw	a5,a5,-1
ffffffc0503063bc:	0007871b          	sext.w	a4,a5
ffffffc0503063c0:	fec42783          	lw	a5,-20(s0)
ffffffc0503063c4:	f0e7ece3          	bltu	a5,a4,ffffffc0503062dc <EmacPsDmaSingleFrameIntrExample+0x13a>
ffffffc0503063c8:	00005517          	auipc	a0,0x5
ffffffc0503063cc:	52850513          	addi	a0,a0,1320 # ffffffc05030b8f0 <__FUNCTION__.1991+0x690>
ffffffc0503063d0:	db5fe0ef          	jal	ra,ffffffc050305184 <EmacPsUtilErrorTrap>
ffffffc0503063d4:	4785                	li	a5,1
ffffffc0503063d6:	a821                	j	ffffffc0503063ee <EmacPsDmaSingleFrameIntrExample+0x24c>
ffffffc0503063d8:	00005517          	auipc	a0,0x5
ffffffc0503063dc:	52850513          	addi	a0,a0,1320 # ffffffc05030b900 <__FUNCTION__.1991+0x6a0>
ffffffc0503063e0:	7f0040ef          	jal	ra,ffffffc05030abd0 <printk>
ffffffc0503063e4:	fc843503          	ld	a0,-56(s0)
ffffffc0503063e8:	76e000ef          	jal	ra,ffffffc050306b56 <XEmacPs_Stop>
ffffffc0503063ec:	4781                	li	a5,0
ffffffc0503063ee:	853e                	mv	a0,a5
ffffffc0503063f0:	70e2                	ld	ra,56(sp)
ffffffc0503063f2:	7442                	ld	s0,48(sp)
ffffffc0503063f4:	6121                	addi	sp,sp,64
ffffffc0503063f6:	8082                	ret

ffffffc0503063f8 <EmacPsResetDevice>:
ffffffc0503063f8:	715d                	addi	sp,sp,-80
ffffffc0503063fa:	e486                	sd	ra,72(sp)
ffffffc0503063fc:	e0a2                	sd	s0,64(sp)
ffffffc0503063fe:	fc26                	sd	s1,56(sp)
ffffffc050306400:	0880                	addi	s0,sp,80
ffffffc050306402:	faa43c23          	sd	a0,-72(s0)
ffffffc050306406:	fc043c23          	sd	zero,-40(s0)
ffffffc05030640a:	fb843503          	ld	a0,-72(s0)
ffffffc05030640e:	748000ef          	jal	ra,ffffffc050306b56 <XEmacPs_Stop>
ffffffc050306412:	fc840793          	addi	a5,s0,-56
ffffffc050306416:	4605                	li	a2,1
ffffffc050306418:	85be                	mv	a1,a5
ffffffc05030641a:	fb843503          	ld	a0,-72(s0)
ffffffc05030641e:	e38fc0ef          	jal	ra,ffffffc050302a56 <XEmacPs_GetMacAddress>
ffffffc050306422:	fb843503          	ld	a0,-72(s0)
ffffffc050306426:	b4afd0ef          	jal	ra,ffffffc050303770 <XEmacPs_GetOptions>
ffffffc05030642a:	87aa                	mv	a5,a0
ffffffc05030642c:	fcf42a23          	sw	a5,-44(s0)
ffffffc050306430:	fb843503          	ld	a0,-72(s0)
ffffffc050306434:	78e000ef          	jal	ra,ffffffc050306bc2 <XEmacPs_Reset>
ffffffc050306438:	fc840793          	addi	a5,s0,-56
ffffffc05030643c:	4605                	li	a2,1
ffffffc05030643e:	85be                	mv	a1,a5
ffffffc050306440:	fb843503          	ld	a0,-72(s0)
ffffffc050306444:	c90fc0ef          	jal	ra,ffffffc0503028d4 <XEmacPs_SetMacAddress>
ffffffc050306448:	fd442783          	lw	a5,-44(s0)
ffffffc05030644c:	85be                	mv	a1,a5
ffffffc05030644e:	fb843503          	ld	a0,-72(s0)
ffffffc050306452:	cf1fc0ef          	jal	ra,ffffffc050303142 <XEmacPs_SetOptions>
ffffffc050306456:	872a                	mv	a4,a0
ffffffc050306458:	fd843783          	ld	a5,-40(s0)
ffffffc05030645c:	8fd9                	or	a5,a5,a4
ffffffc05030645e:	fcf43c23          	sd	a5,-40(s0)
ffffffc050306462:	fd442783          	lw	a5,-44(s0)
ffffffc050306466:	fff7c793          	not	a5,a5
ffffffc05030646a:	2781                	sext.w	a5,a5
ffffffc05030646c:	85be                	mv	a1,a5
ffffffc05030646e:	fb843503          	ld	a0,-72(s0)
ffffffc050306472:	ffdfc0ef          	jal	ra,ffffffc05030346e <XEmacPs_ClearOptions>
ffffffc050306476:	872a                	mv	a4,a0
ffffffc050306478:	fd843783          	ld	a5,-40(s0)
ffffffc05030647c:	8fd9                	or	a5,a5,a4
ffffffc05030647e:	fcf43c23          	sd	a5,-40(s0)
ffffffc050306482:	fd843783          	ld	a5,-40(s0)
ffffffc050306486:	cb89                	beqz	a5,ffffffc050306498 <EmacPsResetDevice+0xa0>
ffffffc050306488:	00005517          	auipc	a0,0x5
ffffffc05030648c:	49050513          	addi	a0,a0,1168 # ffffffc05030b918 <__FUNCTION__.1991+0x6b8>
ffffffc050306490:	cf5fe0ef          	jal	ra,ffffffc050305184 <EmacPsUtilErrorTrap>
ffffffc050306494:	4785                	li	a5,1
ffffffc050306496:	a2c9                	j	ffffffc050306658 <EmacPsResetDevice+0x260>
ffffffc050306498:	fb843683          	ld	a3,-72(s0)
ffffffc05030649c:	00000617          	auipc	a2,0x0
ffffffc0503064a0:	1c860613          	addi	a2,a2,456 # ffffffc050306664 <XEmacPsSendHandler>
ffffffc0503064a4:	4585                	li	a1,1
ffffffc0503064a6:	fb843503          	ld	a0,-72(s0)
ffffffc0503064aa:	f65fe0ef          	jal	ra,ffffffc05030540e <XEmacPs_SetHandler>
ffffffc0503064ae:	fca43c23          	sd	a0,-40(s0)
ffffffc0503064b2:	fb843683          	ld	a3,-72(s0)
ffffffc0503064b6:	00000617          	auipc	a2,0x0
ffffffc0503064ba:	1e460613          	addi	a2,a2,484 # ffffffc05030669a <XEmacPsRecvHandler>
ffffffc0503064be:	4589                	li	a1,2
ffffffc0503064c0:	fb843503          	ld	a0,-72(s0)
ffffffc0503064c4:	f4bfe0ef          	jal	ra,ffffffc05030540e <XEmacPs_SetHandler>
ffffffc0503064c8:	872a                	mv	a4,a0
ffffffc0503064ca:	fd843783          	ld	a5,-40(s0)
ffffffc0503064ce:	8fd9                	or	a5,a5,a4
ffffffc0503064d0:	fcf43c23          	sd	a5,-40(s0)
ffffffc0503064d4:	fb843683          	ld	a3,-72(s0)
ffffffc0503064d8:	00000617          	auipc	a2,0x0
ffffffc0503064dc:	20e60613          	addi	a2,a2,526 # ffffffc0503066e6 <XEmacPsErrorHandler>
ffffffc0503064e0:	458d                	li	a1,3
ffffffc0503064e2:	fb843503          	ld	a0,-72(s0)
ffffffc0503064e6:	f29fe0ef          	jal	ra,ffffffc05030540e <XEmacPs_SetHandler>
ffffffc0503064ea:	872a                	mv	a4,a0
ffffffc0503064ec:	fd843783          	ld	a5,-40(s0)
ffffffc0503064f0:	8fd9                	or	a5,a5,a4
ffffffc0503064f2:	fcf43c23          	sd	a5,-40(s0)
ffffffc0503064f6:	fd843783          	ld	a5,-40(s0)
ffffffc0503064fa:	cb89                	beqz	a5,ffffffc05030650c <EmacPsResetDevice+0x114>
ffffffc0503064fc:	00005517          	auipc	a0,0x5
ffffffc050306500:	26c50513          	addi	a0,a0,620 # ffffffc05030b768 <__FUNCTION__.1991+0x508>
ffffffc050306504:	c81fe0ef          	jal	ra,ffffffc050305184 <EmacPsUtilErrorTrap>
ffffffc050306508:	4785                	li	a5,1
ffffffc05030650a:	a2b9                	j	ffffffc050306658 <EmacPsResetDevice+0x260>
ffffffc05030650c:	fc040793          	addi	a5,s0,-64
ffffffc050306510:	4621                	li	a2,8
ffffffc050306512:	4581                	li	a1,0
ffffffc050306514:	853e                	mv	a0,a5
ffffffc050306516:	4cf030ef          	jal	ra,ffffffc05030a1e4 <memset>
ffffffc05030651a:	fb843783          	ld	a5,-72(s0)
ffffffc05030651e:	09878493          	addi	s1,a5,152
ffffffc050306522:	00035797          	auipc	a5,0x35
ffffffc050306526:	e9e78793          	addi	a5,a5,-354 # ffffffc05033b3c0 <RxBdSpacePtr>
ffffffc05030652a:	639c                	ld	a5,0(a5)
ffffffc05030652c:	853e                	mv	a0,a5
ffffffc05030652e:	9a8ff0ef          	jal	ra,ffffffc0503056d6 <kva2pa>
ffffffc050306532:	85aa                	mv	a1,a0
ffffffc050306534:	00035797          	auipc	a5,0x35
ffffffc050306538:	e8c78793          	addi	a5,a5,-372 # ffffffc05033b3c0 <RxBdSpacePtr>
ffffffc05030653c:	639c                	ld	a5,0(a5)
ffffffc05030653e:	863e                	mv	a2,a5
ffffffc050306540:	fb843783          	ld	a5,-72(s0)
ffffffc050306544:	02878793          	addi	a5,a5,40
ffffffc050306548:	02000713          	li	a4,32
ffffffc05030654c:	04000693          	li	a3,64
ffffffc050306550:	8526                	mv	a0,s1
ffffffc050306552:	d3afb0ef          	jal	ra,ffffffc050301a8c <XEmacPs_BdRingCreate>
ffffffc050306556:	fca43c23          	sd	a0,-40(s0)
ffffffc05030655a:	fd843783          	ld	a5,-40(s0)
ffffffc05030655e:	cb89                	beqz	a5,ffffffc050306570 <EmacPsResetDevice+0x178>
ffffffc050306560:	00005517          	auipc	a0,0x5
ffffffc050306564:	02050513          	addi	a0,a0,32 # ffffffc05030b580 <__FUNCTION__.1991+0x320>
ffffffc050306568:	c1dfe0ef          	jal	ra,ffffffc050305184 <EmacPsUtilErrorTrap>
ffffffc05030656c:	4785                	li	a5,1
ffffffc05030656e:	a0ed                	j	ffffffc050306658 <EmacPsResetDevice+0x260>
ffffffc050306570:	fb843783          	ld	a5,-72(s0)
ffffffc050306574:	09878793          	addi	a5,a5,152
ffffffc050306578:	fc040713          	addi	a4,s0,-64
ffffffc05030657c:	4609                	li	a2,2
ffffffc05030657e:	85ba                	mv	a1,a4
ffffffc050306580:	853e                	mv	a0,a5
ffffffc050306582:	f1efb0ef          	jal	ra,ffffffc050301ca0 <XEmacPs_BdRingClone>
ffffffc050306586:	fca43c23          	sd	a0,-40(s0)
ffffffc05030658a:	fd843783          	ld	a5,-40(s0)
ffffffc05030658e:	cb89                	beqz	a5,ffffffc0503065a0 <EmacPsResetDevice+0x1a8>
ffffffc050306590:	00005517          	auipc	a0,0x5
ffffffc050306594:	02050513          	addi	a0,a0,32 # ffffffc05030b5b0 <__FUNCTION__.1991+0x350>
ffffffc050306598:	bedfe0ef          	jal	ra,ffffffc050305184 <EmacPsUtilErrorTrap>
ffffffc05030659c:	4785                	li	a5,1
ffffffc05030659e:	a86d                	j	ffffffc050306658 <EmacPsResetDevice+0x260>
ffffffc0503065a0:	fc040793          	addi	a5,s0,-64
ffffffc0503065a4:	4621                	li	a2,8
ffffffc0503065a6:	4581                	li	a1,0
ffffffc0503065a8:	853e                	mv	a0,a5
ffffffc0503065aa:	43b030ef          	jal	ra,ffffffc05030a1e4 <memset>
ffffffc0503065ae:	fc040793          	addi	a5,s0,-64
ffffffc0503065b2:	0791                	addi	a5,a5,4
ffffffc0503065b4:	4394                	lw	a3,0(a5)
ffffffc0503065b6:	fc040793          	addi	a5,s0,-64
ffffffc0503065ba:	0791                	addi	a5,a5,4
ffffffc0503065bc:	873e                	mv	a4,a5
ffffffc0503065be:	800007b7          	lui	a5,0x80000
ffffffc0503065c2:	8fd5                	or	a5,a5,a3
ffffffc0503065c4:	2781                	sext.w	a5,a5
ffffffc0503065c6:	c31c                	sw	a5,0(a4)
ffffffc0503065c8:	fb843783          	ld	a5,-72(s0)
ffffffc0503065cc:	02878493          	addi	s1,a5,40 # ffffffff80000028 <__BSS_END__+0x3f2fcb6ff8>
ffffffc0503065d0:	00035797          	auipc	a5,0x35
ffffffc0503065d4:	e0878793          	addi	a5,a5,-504 # ffffffc05033b3d8 <TxBdSpacePtr>
ffffffc0503065d8:	639c                	ld	a5,0(a5)
ffffffc0503065da:	853e                	mv	a0,a5
ffffffc0503065dc:	8faff0ef          	jal	ra,ffffffc0503056d6 <kva2pa>
ffffffc0503065e0:	85aa                	mv	a1,a0
ffffffc0503065e2:	00035797          	auipc	a5,0x35
ffffffc0503065e6:	df678793          	addi	a5,a5,-522 # ffffffc05033b3d8 <TxBdSpacePtr>
ffffffc0503065ea:	639c                	ld	a5,0(a5)
ffffffc0503065ec:	863e                	mv	a2,a5
ffffffc0503065ee:	fb843783          	ld	a5,-72(s0)
ffffffc0503065f2:	09878793          	addi	a5,a5,152
ffffffc0503065f6:	02000713          	li	a4,32
ffffffc0503065fa:	04000693          	li	a3,64
ffffffc0503065fe:	8526                	mv	a0,s1
ffffffc050306600:	c8cfb0ef          	jal	ra,ffffffc050301a8c <XEmacPs_BdRingCreate>
ffffffc050306604:	fca43c23          	sd	a0,-40(s0)
ffffffc050306608:	fd843783          	ld	a5,-40(s0)
ffffffc05030660c:	cb89                	beqz	a5,ffffffc05030661e <EmacPsResetDevice+0x226>
ffffffc05030660e:	00005517          	auipc	a0,0x5
ffffffc050306612:	fd250513          	addi	a0,a0,-46 # ffffffc05030b5e0 <__FUNCTION__.1991+0x380>
ffffffc050306616:	b6ffe0ef          	jal	ra,ffffffc050305184 <EmacPsUtilErrorTrap>
ffffffc05030661a:	4785                	li	a5,1
ffffffc05030661c:	a835                	j	ffffffc050306658 <EmacPsResetDevice+0x260>
ffffffc05030661e:	fb843783          	ld	a5,-72(s0)
ffffffc050306622:	02878793          	addi	a5,a5,40
ffffffc050306626:	fc040713          	addi	a4,s0,-64
ffffffc05030662a:	4605                	li	a2,1
ffffffc05030662c:	85ba                	mv	a1,a4
ffffffc05030662e:	853e                	mv	a0,a5
ffffffc050306630:	e70fb0ef          	jal	ra,ffffffc050301ca0 <XEmacPs_BdRingClone>
ffffffc050306634:	fca43c23          	sd	a0,-40(s0)
ffffffc050306638:	fd843783          	ld	a5,-40(s0)
ffffffc05030663c:	cb89                	beqz	a5,ffffffc05030664e <EmacPsResetDevice+0x256>
ffffffc05030663e:	00005517          	auipc	a0,0x5
ffffffc050306642:	fd250513          	addi	a0,a0,-46 # ffffffc05030b610 <__FUNCTION__.1991+0x3b0>
ffffffc050306646:	b3ffe0ef          	jal	ra,ffffffc050305184 <EmacPsUtilErrorTrap>
ffffffc05030664a:	4785                	li	a5,1
ffffffc05030664c:	a031                	j	ffffffc050306658 <EmacPsResetDevice+0x260>
ffffffc05030664e:	fb843503          	ld	a0,-72(s0)
ffffffc050306652:	3ec000ef          	jal	ra,ffffffc050306a3e <XEmacPs_Start>
ffffffc050306656:	4781                	li	a5,0
ffffffc050306658:	853e                	mv	a0,a5
ffffffc05030665a:	60a6                	ld	ra,72(sp)
ffffffc05030665c:	6406                	ld	s0,64(sp)
ffffffc05030665e:	74e2                	ld	s1,56(sp)
ffffffc050306660:	6161                	addi	sp,sp,80
ffffffc050306662:	8082                	ret

ffffffc050306664 <XEmacPsSendHandler>:
ffffffc050306664:	7179                	addi	sp,sp,-48
ffffffc050306666:	f422                	sd	s0,40(sp)
ffffffc050306668:	1800                	addi	s0,sp,48
ffffffc05030666a:	fca43c23          	sd	a0,-40(s0)
ffffffc05030666e:	fd843783          	ld	a5,-40(s0)
ffffffc050306672:	fef43423          	sd	a5,-24(s0)
ffffffc050306676:	00035797          	auipc	a5,0x35
ffffffc05030667a:	18a78793          	addi	a5,a5,394 # ffffffc05033b800 <FramesTx>
ffffffc05030667e:	439c                	lw	a5,0(a5)
ffffffc050306680:	2781                	sext.w	a5,a5
ffffffc050306682:	2785                	addiw	a5,a5,1
ffffffc050306684:	0007871b          	sext.w	a4,a5
ffffffc050306688:	00035797          	auipc	a5,0x35
ffffffc05030668c:	17878793          	addi	a5,a5,376 # ffffffc05033b800 <FramesTx>
ffffffc050306690:	c398                	sw	a4,0(a5)
ffffffc050306692:	0001                	nop
ffffffc050306694:	7422                	ld	s0,40(sp)
ffffffc050306696:	6145                	addi	sp,sp,48
ffffffc050306698:	8082                	ret

ffffffc05030669a <XEmacPsRecvHandler>:
ffffffc05030669a:	7179                	addi	sp,sp,-48
ffffffc05030669c:	f406                	sd	ra,40(sp)
ffffffc05030669e:	f022                	sd	s0,32(sp)
ffffffc0503066a0:	1800                	addi	s0,sp,48
ffffffc0503066a2:	fca43c23          	sd	a0,-40(s0)
ffffffc0503066a6:	fd843783          	ld	a5,-40(s0)
ffffffc0503066aa:	fef43423          	sd	a5,-24(s0)
ffffffc0503066ae:	00035797          	auipc	a5,0x35
ffffffc0503066b2:	15e78793          	addi	a5,a5,350 # ffffffc05033b80c <FramesRx>
ffffffc0503066b6:	439c                	lw	a5,0(a5)
ffffffc0503066b8:	2781                	sext.w	a5,a5
ffffffc0503066ba:	2785                	addiw	a5,a5,1
ffffffc0503066bc:	0007871b          	sext.w	a4,a5
ffffffc0503066c0:	00035797          	auipc	a5,0x35
ffffffc0503066c4:	14c78793          	addi	a5,a5,332 # ffffffc05033b80c <FramesRx>
ffffffc0503066c8:	c398                	sw	a4,0(a5)
ffffffc0503066ca:	00034797          	auipc	a5,0x34
ffffffc0503066ce:	0b678793          	addi	a5,a5,182 # ffffffc05033a780 <RxFrame>
ffffffc0503066d2:	60000593          	li	a1,1536
ffffffc0503066d6:	853e                	mv	a0,a5
ffffffc0503066d8:	888ff0ef          	jal	ra,ffffffc050305760 <Xil_DCacheInvalidateRange>
ffffffc0503066dc:	0001                	nop
ffffffc0503066de:	70a2                	ld	ra,40(sp)
ffffffc0503066e0:	7402                	ld	s0,32(sp)
ffffffc0503066e2:	6145                	addi	sp,sp,48
ffffffc0503066e4:	8082                	ret

ffffffc0503066e6 <XEmacPsErrorHandler>:
ffffffc0503066e6:	7179                	addi	sp,sp,-48
ffffffc0503066e8:	f406                	sd	ra,40(sp)
ffffffc0503066ea:	f022                	sd	s0,32(sp)
ffffffc0503066ec:	1800                	addi	s0,sp,48
ffffffc0503066ee:	fca43c23          	sd	a0,-40(s0)
ffffffc0503066f2:	87ae                	mv	a5,a1
ffffffc0503066f4:	8732                	mv	a4,a2
ffffffc0503066f6:	fcf40ba3          	sb	a5,-41(s0)
ffffffc0503066fa:	87ba                	mv	a5,a4
ffffffc0503066fc:	fcf42823          	sw	a5,-48(s0)
ffffffc050306700:	fd843783          	ld	a5,-40(s0)
ffffffc050306704:	fef43423          	sd	a5,-24(s0)
ffffffc050306708:	00035797          	auipc	a5,0x35
ffffffc05030670c:	0fc78793          	addi	a5,a5,252 # ffffffc05033b804 <DeviceErrors>
ffffffc050306710:	439c                	lw	a5,0(a5)
ffffffc050306712:	2781                	sext.w	a5,a5
ffffffc050306714:	2785                	addiw	a5,a5,1
ffffffc050306716:	0007871b          	sext.w	a4,a5
ffffffc05030671a:	00035797          	auipc	a5,0x35
ffffffc05030671e:	0ea78793          	addi	a5,a5,234 # ffffffc05033b804 <DeviceErrors>
ffffffc050306722:	c398                	sw	a4,0(a5)
ffffffc050306724:	fd744783          	lbu	a5,-41(s0)
ffffffc050306728:	0007871b          	sext.w	a4,a5
ffffffc05030672c:	86ba                	mv	a3,a4
ffffffc05030672e:	4785                	li	a5,1
ffffffc050306730:	04f68763          	beq	a3,a5,ffffffc05030677e <XEmacPsErrorHandler+0x98>
ffffffc050306734:	4789                	li	a5,2
ffffffc050306736:	0cf71c63          	bne	a4,a5,ffffffc05030680e <XEmacPsErrorHandler+0x128>
ffffffc05030673a:	fd042783          	lw	a5,-48(s0)
ffffffc05030673e:	8ba1                	andi	a5,a5,8
ffffffc050306740:	2781                	sext.w	a5,a5
ffffffc050306742:	c799                	beqz	a5,ffffffc050306750 <XEmacPsErrorHandler+0x6a>
ffffffc050306744:	00005517          	auipc	a0,0x5
ffffffc050306748:	1fc50513          	addi	a0,a0,508 # ffffffc05030b940 <__FUNCTION__.1991+0x6e0>
ffffffc05030674c:	a39fe0ef          	jal	ra,ffffffc050305184 <EmacPsUtilErrorTrap>
ffffffc050306750:	fd042783          	lw	a5,-48(s0)
ffffffc050306754:	8b91                	andi	a5,a5,4
ffffffc050306756:	2781                	sext.w	a5,a5
ffffffc050306758:	c799                	beqz	a5,ffffffc050306766 <XEmacPsErrorHandler+0x80>
ffffffc05030675a:	00005517          	auipc	a0,0x5
ffffffc05030675e:	1fe50513          	addi	a0,a0,510 # ffffffc05030b958 <__FUNCTION__.1991+0x6f8>
ffffffc050306762:	a23fe0ef          	jal	ra,ffffffc050305184 <EmacPsUtilErrorTrap>
ffffffc050306766:	fd042783          	lw	a5,-48(s0)
ffffffc05030676a:	8b85                	andi	a5,a5,1
ffffffc05030676c:	2781                	sext.w	a5,a5
ffffffc05030676e:	cfc9                	beqz	a5,ffffffc050306808 <XEmacPsErrorHandler+0x122>
ffffffc050306770:	00005517          	auipc	a0,0x5
ffffffc050306774:	20050513          	addi	a0,a0,512 # ffffffc05030b970 <__FUNCTION__.1991+0x710>
ffffffc050306778:	a0dfe0ef          	jal	ra,ffffffc050305184 <EmacPsUtilErrorTrap>
ffffffc05030677c:	a071                	j	ffffffc050306808 <XEmacPsErrorHandler+0x122>
ffffffc05030677e:	fd042783          	lw	a5,-48(s0)
ffffffc050306782:	1007f793          	andi	a5,a5,256
ffffffc050306786:	2781                	sext.w	a5,a5
ffffffc050306788:	c799                	beqz	a5,ffffffc050306796 <XEmacPsErrorHandler+0xb0>
ffffffc05030678a:	00005517          	auipc	a0,0x5
ffffffc05030678e:	20650513          	addi	a0,a0,518 # ffffffc05030b990 <__FUNCTION__.1991+0x730>
ffffffc050306792:	9f3fe0ef          	jal	ra,ffffffc050305184 <EmacPsUtilErrorTrap>
ffffffc050306796:	fd042783          	lw	a5,-48(s0)
ffffffc05030679a:	0407f793          	andi	a5,a5,64
ffffffc05030679e:	2781                	sext.w	a5,a5
ffffffc0503067a0:	c799                	beqz	a5,ffffffc0503067ae <XEmacPsErrorHandler+0xc8>
ffffffc0503067a2:	00005517          	auipc	a0,0x5
ffffffc0503067a6:	20650513          	addi	a0,a0,518 # ffffffc05030b9a8 <__FUNCTION__.1991+0x748>
ffffffc0503067aa:	9dbfe0ef          	jal	ra,ffffffc050305184 <EmacPsUtilErrorTrap>
ffffffc0503067ae:	fd042783          	lw	a5,-48(s0)
ffffffc0503067b2:	8bc1                	andi	a5,a5,16
ffffffc0503067b4:	2781                	sext.w	a5,a5
ffffffc0503067b6:	c799                	beqz	a5,ffffffc0503067c4 <XEmacPsErrorHandler+0xde>
ffffffc0503067b8:	00005517          	auipc	a0,0x5
ffffffc0503067bc:	20850513          	addi	a0,a0,520 # ffffffc05030b9c0 <__FUNCTION__.1991+0x760>
ffffffc0503067c0:	9c5fe0ef          	jal	ra,ffffffc050305184 <EmacPsUtilErrorTrap>
ffffffc0503067c4:	fd042783          	lw	a5,-48(s0)
ffffffc0503067c8:	8b91                	andi	a5,a5,4
ffffffc0503067ca:	2781                	sext.w	a5,a5
ffffffc0503067cc:	c799                	beqz	a5,ffffffc0503067da <XEmacPsErrorHandler+0xf4>
ffffffc0503067ce:	00005517          	auipc	a0,0x5
ffffffc0503067d2:	21250513          	addi	a0,a0,530 # ffffffc05030b9e0 <__FUNCTION__.1991+0x780>
ffffffc0503067d6:	9affe0ef          	jal	ra,ffffffc050305184 <EmacPsUtilErrorTrap>
ffffffc0503067da:	fd042783          	lw	a5,-48(s0)
ffffffc0503067de:	8b89                	andi	a5,a5,2
ffffffc0503067e0:	2781                	sext.w	a5,a5
ffffffc0503067e2:	c799                	beqz	a5,ffffffc0503067f0 <XEmacPsErrorHandler+0x10a>
ffffffc0503067e4:	00005517          	auipc	a0,0x5
ffffffc0503067e8:	21c50513          	addi	a0,a0,540 # ffffffc05030ba00 <__FUNCTION__.1991+0x7a0>
ffffffc0503067ec:	999fe0ef          	jal	ra,ffffffc050305184 <EmacPsUtilErrorTrap>
ffffffc0503067f0:	fd042783          	lw	a5,-48(s0)
ffffffc0503067f4:	8b85                	andi	a5,a5,1
ffffffc0503067f6:	2781                	sext.w	a5,a5
ffffffc0503067f8:	cb91                	beqz	a5,ffffffc05030680c <XEmacPsErrorHandler+0x126>
ffffffc0503067fa:	00005517          	auipc	a0,0x5
ffffffc0503067fe:	21e50513          	addi	a0,a0,542 # ffffffc05030ba18 <__FUNCTION__.1991+0x7b8>
ffffffc050306802:	983fe0ef          	jal	ra,ffffffc050305184 <EmacPsUtilErrorTrap>
ffffffc050306806:	a019                	j	ffffffc05030680c <XEmacPsErrorHandler+0x126>
ffffffc050306808:	0001                	nop
ffffffc05030680a:	a011                	j	ffffffc05030680e <XEmacPsErrorHandler+0x128>
ffffffc05030680c:	0001                	nop
ffffffc05030680e:	00035797          	auipc	a5,0x35
ffffffc050306812:	bc278793          	addi	a5,a5,-1086 # ffffffc05033b3d0 <GemVersion>
ffffffc050306816:	439c                	lw	a5,0(a5)
ffffffc050306818:	873e                	mv	a4,a5
ffffffc05030681a:	4789                	li	a5,2
ffffffc05030681c:	00f71663          	bne	a4,a5,ffffffc050306828 <XEmacPsErrorHandler+0x142>
ffffffc050306820:	fe843503          	ld	a0,-24(s0)
ffffffc050306824:	bd5ff0ef          	jal	ra,ffffffc0503063f8 <EmacPsResetDevice>
ffffffc050306828:	0001                	nop
ffffffc05030682a:	70a2                	ld	ra,40(sp)
ffffffc05030682c:	7402                	ld	s0,32(sp)
ffffffc05030682e:	6145                	addi	sp,sp,48
ffffffc050306830:	8082                	ret

ffffffc050306832 <XEmacPsClkSetup>:
ffffffc050306832:	7179                	addi	sp,sp,-48
ffffffc050306834:	f422                	sd	s0,40(sp)
ffffffc050306836:	1800                	addi	s0,sp,48
ffffffc050306838:	fca43c23          	sd	a0,-40(s0)
ffffffc05030683c:	00035797          	auipc	a5,0x35
ffffffc050306840:	b9478793          	addi	a5,a5,-1132 # ffffffc05033b3d0 <GemVersion>
ffffffc050306844:	439c                	lw	a5,0(a5)
ffffffc050306846:	873e                	mv	a4,a5
ffffffc050306848:	4789                	li	a5,2
ffffffc05030684a:	0af71363          	bne	a4,a5,ffffffc0503068f0 <XEmacPsClkSetup+0xbe>
ffffffc05030684e:	00035797          	auipc	a5,0x35
ffffffc050306852:	b7a78793          	addi	a5,a5,-1158 # ffffffc05033b3c8 <XPS_SYS_CTRL_BASEADDR>
ffffffc050306856:	639c                	ld	a5,0(a5)
ffffffc050306858:	07a1                	addi	a5,a5,8
ffffffc05030685a:	873e                	mv	a4,a5
ffffffc05030685c:	67b9                	lui	a5,0xe
ffffffc05030685e:	f0d78793          	addi	a5,a5,-243 # df0d <_start-0xffffffc0502f20f3>
ffffffc050306862:	c31c                	sw	a5,0(a4)
ffffffc050306864:	00035797          	auipc	a5,0x35
ffffffc050306868:	b6478793          	addi	a5,a5,-1180 # ffffffc05033b3c8 <XPS_SYS_CTRL_BASEADDR>
ffffffc05030686c:	639c                	ld	a5,0(a5)
ffffffc05030686e:	14078793          	addi	a5,a5,320
ffffffc050306872:	439c                	lw	a5,0(a5)
ffffffc050306874:	fef42223          	sw	a5,-28(s0)
ffffffc050306878:	fe442703          	lw	a4,-28(s0)
ffffffc05030687c:	fc0fc7b7          	lui	a5,0xfc0fc
ffffffc050306880:	0ff78793          	addi	a5,a5,255 # fffffffffc0fc0ff <__BSS_END__+0x3fabdb30cf>
ffffffc050306884:	8ff9                	and	a5,a5,a4
ffffffc050306886:	fef42223          	sw	a5,-28(s0)
ffffffc05030688a:	fe442703          	lw	a4,-28(s0)
ffffffc05030688e:	001007b7          	lui	a5,0x100
ffffffc050306892:	8fd9                	or	a5,a5,a4
ffffffc050306894:	fef42223          	sw	a5,-28(s0)
ffffffc050306898:	fe442703          	lw	a4,-28(s0)
ffffffc05030689c:	6785                	lui	a5,0x1
ffffffc05030689e:	80078793          	addi	a5,a5,-2048 # 800 <_start-0xffffffc0502ff800>
ffffffc0503068a2:	8fd9                	or	a5,a5,a4
ffffffc0503068a4:	fef42223          	sw	a5,-28(s0)
ffffffc0503068a8:	00035797          	auipc	a5,0x35
ffffffc0503068ac:	b2078793          	addi	a5,a5,-1248 # ffffffc05033b3c8 <XPS_SYS_CTRL_BASEADDR>
ffffffc0503068b0:	639c                	ld	a5,0(a5)
ffffffc0503068b2:	14078793          	addi	a5,a5,320
ffffffc0503068b6:	873e                	mv	a4,a5
ffffffc0503068b8:	fe442783          	lw	a5,-28(s0)
ffffffc0503068bc:	c31c                	sw	a5,0(a4)
ffffffc0503068be:	00035797          	auipc	a5,0x35
ffffffc0503068c2:	b0a78793          	addi	a5,a5,-1270 # ffffffc05033b3c8 <XPS_SYS_CTRL_BASEADDR>
ffffffc0503068c6:	639c                	ld	a5,0(a5)
ffffffc0503068c8:	0791                	addi	a5,a5,4
ffffffc0503068ca:	873e                	mv	a4,a5
ffffffc0503068cc:	679d                	lui	a5,0x7
ffffffc0503068ce:	67b78793          	addi	a5,a5,1659 # 767b <_start-0xffffffc0502f8985>
ffffffc0503068d2:	c31c                	sw	a5,0(a4)
ffffffc0503068d4:	fe043423          	sd	zero,-24(s0)
ffffffc0503068d8:	a031                	j	ffffffc0503068e4 <XEmacPsClkSetup+0xb2>
ffffffc0503068da:	fe843783          	ld	a5,-24(s0)
ffffffc0503068de:	0785                	addi	a5,a5,1
ffffffc0503068e0:	fef43423          	sd	a5,-24(s0)
ffffffc0503068e4:	fe843703          	ld	a4,-24(s0)
ffffffc0503068e8:	67c1                	lui	a5,0x10
ffffffc0503068ea:	17f9                	addi	a5,a5,-2
ffffffc0503068ec:	fee7f7e3          	bgeu	a5,a4,ffffffc0503068da <XEmacPsClkSetup+0xa8>
ffffffc0503068f0:	0001                	nop
ffffffc0503068f2:	7422                	ld	s0,40(sp)
ffffffc0503068f4:	6145                	addi	sp,sp,48
ffffffc0503068f6:	8082                	ret

ffffffc0503068f8 <writel>:
ffffffc0503068f8:	1101                	addi	sp,sp,-32
ffffffc0503068fa:	ec22                	sd	s0,24(sp)
ffffffc0503068fc:	1000                	addi	s0,sp,32
ffffffc0503068fe:	87aa                	mv	a5,a0
ffffffc050306900:	feb43023          	sd	a1,-32(s0)
ffffffc050306904:	fef42623          	sw	a5,-20(s0)
ffffffc050306908:	0550000f          	fence	ow,ow
ffffffc05030690c:	fe043783          	ld	a5,-32(s0)
ffffffc050306910:	fec42703          	lw	a4,-20(s0)
ffffffc050306914:	c398                	sw	a4,0(a5)
ffffffc050306916:	0001                	nop
ffffffc050306918:	6462                	ld	s0,24(sp)
ffffffc05030691a:	6105                	addi	sp,sp,32
ffffffc05030691c:	8082                	ret

ffffffc05030691e <readl>:
ffffffc05030691e:	7179                	addi	sp,sp,-48
ffffffc050306920:	f422                	sd	s0,40(sp)
ffffffc050306922:	1800                	addi	s0,sp,48
ffffffc050306924:	fca43c23          	sd	a0,-40(s0)
ffffffc050306928:	fd843783          	ld	a5,-40(s0)
ffffffc05030692c:	439c                	lw	a5,0(a5)
ffffffc05030692e:	fef42623          	sw	a5,-20(s0)
ffffffc050306932:	0aa0000f          	fence	ir,ir
ffffffc050306936:	fec42783          	lw	a5,-20(s0)
ffffffc05030693a:	853e                	mv	a0,a5
ffffffc05030693c:	7422                	ld	s0,40(sp)
ffffffc05030693e:	6145                	addi	sp,sp,48
ffffffc050306940:	8082                	ret

ffffffc050306942 <kva2pa>:
ffffffc050306942:	1101                	addi	sp,sp,-32
ffffffc050306944:	ec22                	sd	s0,24(sp)
ffffffc050306946:	1000                	addi	s0,sp,32
ffffffc050306948:	fea43423          	sd	a0,-24(s0)
ffffffc05030694c:	fe843703          	ld	a4,-24(s0)
ffffffc050306950:	4785                	li	a5,1
ffffffc050306952:	179a                	slli	a5,a5,0x26
ffffffc050306954:	97ba                	add	a5,a5,a4
ffffffc050306956:	853e                	mv	a0,a5
ffffffc050306958:	6462                	ld	s0,24(sp)
ffffffc05030695a:	6105                	addi	sp,sp,32
ffffffc05030695c:	8082                	ret

ffffffc05030695e <Xil_Out32>:
ffffffc05030695e:	1101                	addi	sp,sp,-32
ffffffc050306960:	ec06                	sd	ra,24(sp)
ffffffc050306962:	e822                	sd	s0,16(sp)
ffffffc050306964:	1000                	addi	s0,sp,32
ffffffc050306966:	fea43423          	sd	a0,-24(s0)
ffffffc05030696a:	87ae                	mv	a5,a1
ffffffc05030696c:	fef42223          	sw	a5,-28(s0)
ffffffc050306970:	fe843703          	ld	a4,-24(s0)
ffffffc050306974:	fe442783          	lw	a5,-28(s0)
ffffffc050306978:	85ba                	mv	a1,a4
ffffffc05030697a:	853e                	mv	a0,a5
ffffffc05030697c:	f7dff0ef          	jal	ra,ffffffc0503068f8 <writel>
ffffffc050306980:	0001                	nop
ffffffc050306982:	60e2                	ld	ra,24(sp)
ffffffc050306984:	6442                	ld	s0,16(sp)
ffffffc050306986:	6105                	addi	sp,sp,32
ffffffc050306988:	8082                	ret

ffffffc05030698a <Xil_In32>:
ffffffc05030698a:	1101                	addi	sp,sp,-32
ffffffc05030698c:	ec06                	sd	ra,24(sp)
ffffffc05030698e:	e822                	sd	s0,16(sp)
ffffffc050306990:	1000                	addi	s0,sp,32
ffffffc050306992:	fea43423          	sd	a0,-24(s0)
ffffffc050306996:	fe843783          	ld	a5,-24(s0)
ffffffc05030699a:	853e                	mv	a0,a5
ffffffc05030699c:	f83ff0ef          	jal	ra,ffffffc05030691e <readl>
ffffffc0503069a0:	87aa                	mv	a5,a0
ffffffc0503069a2:	2781                	sext.w	a5,a5
ffffffc0503069a4:	853e                	mv	a0,a5
ffffffc0503069a6:	60e2                	ld	ra,24(sp)
ffffffc0503069a8:	6442                	ld	s0,16(sp)
ffffffc0503069aa:	6105                	addi	sp,sp,32
ffffffc0503069ac:	8082                	ret

ffffffc0503069ae <XEmacPs_CfgInitialize>:
ffffffc0503069ae:	7179                	addi	sp,sp,-48
ffffffc0503069b0:	f406                	sd	ra,40(sp)
ffffffc0503069b2:	f022                	sd	s0,32(sp)
ffffffc0503069b4:	1800                	addi	s0,sp,48
ffffffc0503069b6:	fea43423          	sd	a0,-24(s0)
ffffffc0503069ba:	feb43023          	sd	a1,-32(s0)
ffffffc0503069be:	fcc43c23          	sd	a2,-40(s0)
ffffffc0503069c2:	fe043783          	ld	a5,-32(s0)
ffffffc0503069c6:	0007d703          	lhu	a4,0(a5) # 10000 <_start-0xffffffc0502f0000>
ffffffc0503069ca:	fe843783          	ld	a5,-24(s0)
ffffffc0503069ce:	00e79023          	sh	a4,0(a5)
ffffffc0503069d2:	fe843783          	ld	a5,-24(s0)
ffffffc0503069d6:	fd843703          	ld	a4,-40(s0)
ffffffc0503069da:	e798                	sd	a4,8(a5)
ffffffc0503069dc:	fe043783          	ld	a5,-32(s0)
ffffffc0503069e0:	0107c703          	lbu	a4,16(a5)
ffffffc0503069e4:	fe843783          	ld	a5,-24(s0)
ffffffc0503069e8:	00e78823          	sb	a4,16(a5)
ffffffc0503069ec:	fe843783          	ld	a5,-24(s0)
ffffffc0503069f0:	00000717          	auipc	a4,0x0
ffffffc0503069f4:	4ea70713          	addi	a4,a4,1258 # ffffffc050306eda <XEmacPs_StubHandler>
ffffffc0503069f8:	10e7b423          	sd	a4,264(a5)
ffffffc0503069fc:	fe843783          	ld	a5,-24(s0)
ffffffc050306a00:	00000717          	auipc	a4,0x0
ffffffc050306a04:	4da70713          	addi	a4,a4,1242 # ffffffc050306eda <XEmacPs_StubHandler>
ffffffc050306a08:	10e7b823          	sd	a4,272(a5)
ffffffc050306a0c:	fe843783          	ld	a5,-24(s0)
ffffffc050306a10:	00000717          	auipc	a4,0x0
ffffffc050306a14:	4ca70713          	addi	a4,a4,1226 # ffffffc050306eda <XEmacPs_StubHandler>
ffffffc050306a18:	12e7b423          	sd	a4,296(a5)
ffffffc050306a1c:	fe843783          	ld	a5,-24(s0)
ffffffc050306a20:	11111737          	lui	a4,0x11111
ffffffc050306a24:	11170713          	addi	a4,a4,273 # 11111111 <_start-0xffffffc03f1eeeef>
ffffffc050306a28:	cfd8                	sw	a4,28(a5)
ffffffc050306a2a:	fe843503          	ld	a0,-24(s0)
ffffffc050306a2e:	194000ef          	jal	ra,ffffffc050306bc2 <XEmacPs_Reset>
ffffffc050306a32:	4781                	li	a5,0
ffffffc050306a34:	853e                	mv	a0,a5
ffffffc050306a36:	70a2                	ld	ra,40(sp)
ffffffc050306a38:	7402                	ld	s0,32(sp)
ffffffc050306a3a:	6145                	addi	sp,sp,48
ffffffc050306a3c:	8082                	ret

ffffffc050306a3e <XEmacPs_Start>:
ffffffc050306a3e:	7179                	addi	sp,sp,-48
ffffffc050306a40:	f406                	sd	ra,40(sp)
ffffffc050306a42:	f022                	sd	s0,32(sp)
ffffffc050306a44:	1800                	addi	s0,sp,48
ffffffc050306a46:	fca43c23          	sd	a0,-40(s0)
ffffffc050306a4a:	fd843783          	ld	a5,-40(s0)
ffffffc050306a4e:	1387a783          	lw	a5,312(a5)
ffffffc050306a52:	873e                	mv	a4,a5
ffffffc050306a54:	4789                	li	a5,2
ffffffc050306a56:	02f71c63          	bne	a4,a5,ffffffc050306a8e <XEmacPs_Start+0x50>
ffffffc050306a5a:	fd843783          	ld	a5,-40(s0)
ffffffc050306a5e:	679c                	ld	a5,8(a5)
ffffffc050306a60:	01878713          	addi	a4,a5,24
ffffffc050306a64:	fd843783          	ld	a5,-40(s0)
ffffffc050306a68:	73dc                	ld	a5,160(a5)
ffffffc050306a6a:	2781                	sext.w	a5,a5
ffffffc050306a6c:	85be                	mv	a1,a5
ffffffc050306a6e:	853a                	mv	a0,a4
ffffffc050306a70:	eefff0ef          	jal	ra,ffffffc05030695e <Xil_Out32>
ffffffc050306a74:	fd843783          	ld	a5,-40(s0)
ffffffc050306a78:	679c                	ld	a5,8(a5)
ffffffc050306a7a:	01c78713          	addi	a4,a5,28
ffffffc050306a7e:	fd843783          	ld	a5,-40(s0)
ffffffc050306a82:	7b9c                	ld	a5,48(a5)
ffffffc050306a84:	2781                	sext.w	a5,a5
ffffffc050306a86:	85be                	mv	a1,a5
ffffffc050306a88:	853a                	mv	a0,a4
ffffffc050306a8a:	ed5ff0ef          	jal	ra,ffffffc05030695e <Xil_Out32>
ffffffc050306a8e:	fd843783          	ld	a5,-40(s0)
ffffffc050306a92:	679c                	ld	a5,8(a5)
ffffffc050306a94:	02478713          	addi	a4,a5,36
ffffffc050306a98:	67a1                	lui	a5,0x8
ffffffc050306a9a:	fff78593          	addi	a1,a5,-1 # 7fff <_start-0xffffffc0502f8001>
ffffffc050306a9e:	853a                	mv	a0,a4
ffffffc050306aa0:	ebfff0ef          	jal	ra,ffffffc05030695e <Xil_Out32>
ffffffc050306aa4:	fd843783          	ld	a5,-40(s0)
ffffffc050306aa8:	539c                	lw	a5,32(a5)
ffffffc050306aaa:	1007f793          	andi	a5,a5,256
ffffffc050306aae:	2781                	sext.w	a5,a5
ffffffc050306ab0:	cb9d                	beqz	a5,ffffffc050306ae6 <XEmacPs_Start+0xa8>
ffffffc050306ab2:	fd843783          	ld	a5,-40(s0)
ffffffc050306ab6:	679c                	ld	a5,8(a5)
ffffffc050306ab8:	853e                	mv	a0,a5
ffffffc050306aba:	ed1ff0ef          	jal	ra,ffffffc05030698a <Xil_In32>
ffffffc050306abe:	87aa                	mv	a5,a0
ffffffc050306ac0:	fef42623          	sw	a5,-20(s0)
ffffffc050306ac4:	fec42783          	lw	a5,-20(s0)
ffffffc050306ac8:	8ba1                	andi	a5,a5,8
ffffffc050306aca:	2781                	sext.w	a5,a5
ffffffc050306acc:	ef89                	bnez	a5,ffffffc050306ae6 <XEmacPs_Start+0xa8>
ffffffc050306ace:	fd843783          	ld	a5,-40(s0)
ffffffc050306ad2:	6798                	ld	a4,8(a5)
ffffffc050306ad4:	fec42783          	lw	a5,-20(s0)
ffffffc050306ad8:	0087e793          	ori	a5,a5,8
ffffffc050306adc:	2781                	sext.w	a5,a5
ffffffc050306ade:	85be                	mv	a1,a5
ffffffc050306ae0:	853a                	mv	a0,a4
ffffffc050306ae2:	e7dff0ef          	jal	ra,ffffffc05030695e <Xil_Out32>
ffffffc050306ae6:	fd843783          	ld	a5,-40(s0)
ffffffc050306aea:	539c                	lw	a5,32(a5)
ffffffc050306aec:	2007f793          	andi	a5,a5,512
ffffffc050306af0:	2781                	sext.w	a5,a5
ffffffc050306af2:	cb9d                	beqz	a5,ffffffc050306b28 <XEmacPs_Start+0xea>
ffffffc050306af4:	fd843783          	ld	a5,-40(s0)
ffffffc050306af8:	679c                	ld	a5,8(a5)
ffffffc050306afa:	853e                	mv	a0,a5
ffffffc050306afc:	e8fff0ef          	jal	ra,ffffffc05030698a <Xil_In32>
ffffffc050306b00:	87aa                	mv	a5,a0
ffffffc050306b02:	fef42623          	sw	a5,-20(s0)
ffffffc050306b06:	fec42783          	lw	a5,-20(s0)
ffffffc050306b0a:	8b91                	andi	a5,a5,4
ffffffc050306b0c:	2781                	sext.w	a5,a5
ffffffc050306b0e:	ef89                	bnez	a5,ffffffc050306b28 <XEmacPs_Start+0xea>
ffffffc050306b10:	fd843783          	ld	a5,-40(s0)
ffffffc050306b14:	6798                	ld	a4,8(a5)
ffffffc050306b16:	fec42783          	lw	a5,-20(s0)
ffffffc050306b1a:	0047e793          	ori	a5,a5,4
ffffffc050306b1e:	2781                	sext.w	a5,a5
ffffffc050306b20:	85be                	mv	a1,a5
ffffffc050306b22:	853a                	mv	a0,a4
ffffffc050306b24:	e3bff0ef          	jal	ra,ffffffc05030695e <Xil_Out32>
ffffffc050306b28:	fd843783          	ld	a5,-40(s0)
ffffffc050306b2c:	679c                	ld	a5,8(a5)
ffffffc050306b2e:	02878713          	addi	a4,a5,40
ffffffc050306b32:	6785                	lui	a5,0x1
ffffffc050306b34:	cf678593          	addi	a1,a5,-778 # cf6 <_start-0xffffffc0502ff30a>
ffffffc050306b38:	853a                	mv	a0,a4
ffffffc050306b3a:	e25ff0ef          	jal	ra,ffffffc05030695e <Xil_Out32>
ffffffc050306b3e:	fd843783          	ld	a5,-40(s0)
ffffffc050306b42:	22222737          	lui	a4,0x22222
ffffffc050306b46:	22270713          	addi	a4,a4,546 # 22222222 <_start-0xffffffc02e0dddde>
ffffffc050306b4a:	cf98                	sw	a4,24(a5)
ffffffc050306b4c:	0001                	nop
ffffffc050306b4e:	70a2                	ld	ra,40(sp)
ffffffc050306b50:	7402                	ld	s0,32(sp)
ffffffc050306b52:	6145                	addi	sp,sp,48
ffffffc050306b54:	8082                	ret

ffffffc050306b56 <XEmacPs_Stop>:
ffffffc050306b56:	7179                	addi	sp,sp,-48
ffffffc050306b58:	f406                	sd	ra,40(sp)
ffffffc050306b5a:	f022                	sd	s0,32(sp)
ffffffc050306b5c:	1800                	addi	s0,sp,48
ffffffc050306b5e:	fca43c23          	sd	a0,-40(s0)
ffffffc050306b62:	fd843783          	ld	a5,-40(s0)
ffffffc050306b66:	679c                	ld	a5,8(a5)
ffffffc050306b68:	02c78713          	addi	a4,a5,44
ffffffc050306b6c:	67a1                	lui	a5,0x8
ffffffc050306b6e:	fff78593          	addi	a1,a5,-1 # 7fff <_start-0xffffffc0502f8001>
ffffffc050306b72:	853a                	mv	a0,a4
ffffffc050306b74:	debff0ef          	jal	ra,ffffffc05030695e <Xil_Out32>
ffffffc050306b78:	fd843783          	ld	a5,-40(s0)
ffffffc050306b7c:	679c                	ld	a5,8(a5)
ffffffc050306b7e:	853e                	mv	a0,a5
ffffffc050306b80:	e0bff0ef          	jal	ra,ffffffc05030698a <Xil_In32>
ffffffc050306b84:	87aa                	mv	a5,a0
ffffffc050306b86:	fef42623          	sw	a5,-20(s0)
ffffffc050306b8a:	fec42783          	lw	a5,-20(s0)
ffffffc050306b8e:	9bed                	andi	a5,a5,-5
ffffffc050306b90:	fef42623          	sw	a5,-20(s0)
ffffffc050306b94:	fec42783          	lw	a5,-20(s0)
ffffffc050306b98:	9bdd                	andi	a5,a5,-9
ffffffc050306b9a:	fef42623          	sw	a5,-20(s0)
ffffffc050306b9e:	fd843783          	ld	a5,-40(s0)
ffffffc050306ba2:	679c                	ld	a5,8(a5)
ffffffc050306ba4:	fec42703          	lw	a4,-20(s0)
ffffffc050306ba8:	85ba                	mv	a1,a4
ffffffc050306baa:	853e                	mv	a0,a5
ffffffc050306bac:	db3ff0ef          	jal	ra,ffffffc05030695e <Xil_Out32>
ffffffc050306bb0:	fd843783          	ld	a5,-40(s0)
ffffffc050306bb4:	0007ac23          	sw	zero,24(a5)
ffffffc050306bb8:	0001                	nop
ffffffc050306bba:	70a2                	ld	ra,40(sp)
ffffffc050306bbc:	7402                	ld	s0,32(sp)
ffffffc050306bbe:	6145                	addi	sp,sp,48
ffffffc050306bc0:	8082                	ret

ffffffc050306bc2 <XEmacPs_Reset>:
ffffffc050306bc2:	7139                	addi	sp,sp,-64
ffffffc050306bc4:	fc06                	sd	ra,56(sp)
ffffffc050306bc6:	f822                	sd	s0,48(sp)
ffffffc050306bc8:	f426                	sd	s1,40(sp)
ffffffc050306bca:	0080                	addi	s0,sp,64
ffffffc050306bcc:	fca43423          	sd	a0,-56(s0)
ffffffc050306bd0:	fc042823          	sw	zero,-48(s0)
ffffffc050306bd4:	fc041a23          	sh	zero,-44(s0)
ffffffc050306bd8:	fc843503          	ld	a0,-56(s0)
ffffffc050306bdc:	f7bff0ef          	jal	ra,ffffffc050306b56 <XEmacPs_Stop>
ffffffc050306be0:	fc843783          	ld	a5,-56(s0)
ffffffc050306be4:	6705                	lui	a4,0x1
ffffffc050306be6:	1741                	addi	a4,a4,-16
ffffffc050306be8:	d398                	sw	a4,32(a5)
ffffffc050306bea:	fc843783          	ld	a5,-56(s0)
ffffffc050306bee:	679c                	ld	a5,8(a5)
ffffffc050306bf0:	0fc78793          	addi	a5,a5,252
ffffffc050306bf4:	853e                	mv	a0,a5
ffffffc050306bf6:	d95ff0ef          	jal	ra,ffffffc05030698a <Xil_In32>
ffffffc050306bfa:	87aa                	mv	a5,a0
ffffffc050306bfc:	0007871b          	sext.w	a4,a5
ffffffc050306c00:	fc843783          	ld	a5,-56(s0)
ffffffc050306c04:	12e7ac23          	sw	a4,312(a5)
ffffffc050306c08:	fc843783          	ld	a5,-56(s0)
ffffffc050306c0c:	1387a783          	lw	a5,312(a5)
ffffffc050306c10:	0107d79b          	srliw	a5,a5,0x10
ffffffc050306c14:	2781                	sext.w	a5,a5
ffffffc050306c16:	873e                	mv	a4,a5
ffffffc050306c18:	6785                	lui	a5,0x1
ffffffc050306c1a:	17fd                	addi	a5,a5,-1
ffffffc050306c1c:	8ff9                	and	a5,a5,a4
ffffffc050306c1e:	0007871b          	sext.w	a4,a5
ffffffc050306c22:	fc843783          	ld	a5,-56(s0)
ffffffc050306c26:	12e7ac23          	sw	a4,312(a5) # 1138 <_start-0xffffffc0502feec8>
ffffffc050306c2a:	fc843783          	ld	a5,-56(s0)
ffffffc050306c2e:	5dc00713          	li	a4,1500
ffffffc050306c32:	14e7a023          	sw	a4,320(a5)
ffffffc050306c36:	fc843783          	ld	a5,-56(s0)
ffffffc050306c3a:	5ee00713          	li	a4,1518
ffffffc050306c3e:	14e7a223          	sw	a4,324(a5)
ffffffc050306c42:	fc843783          	ld	a5,-56(s0)
ffffffc050306c46:	1447a783          	lw	a5,324(a5)
ffffffc050306c4a:	27c9                	addiw	a5,a5,18
ffffffc050306c4c:	0007871b          	sext.w	a4,a5
ffffffc050306c50:	fc843783          	ld	a5,-56(s0)
ffffffc050306c54:	14e7a423          	sw	a4,328(a5)
ffffffc050306c58:	fc843783          	ld	a5,-56(s0)
ffffffc050306c5c:	6709                	lui	a4,0x2
ffffffc050306c5e:	177d                	addi	a4,a4,-1
ffffffc050306c60:	12e7ae23          	sw	a4,316(a5)
ffffffc050306c64:	fc843783          	ld	a5,-56(s0)
ffffffc050306c68:	679c                	ld	a5,8(a5)
ffffffc050306c6a:	03000593          	li	a1,48
ffffffc050306c6e:	853e                	mv	a0,a5
ffffffc050306c70:	cefff0ef          	jal	ra,ffffffc05030695e <Xil_Out32>
ffffffc050306c74:	fc843783          	ld	a5,-56(s0)
ffffffc050306c78:	679c                	ld	a5,8(a5)
ffffffc050306c7a:	0791                	addi	a5,a5,4
ffffffc050306c7c:	853e                	mv	a0,a5
ffffffc050306c7e:	d0dff0ef          	jal	ra,ffffffc05030698a <Xil_In32>
ffffffc050306c82:	87aa                	mv	a5,a0
ffffffc050306c84:	fcf42c23          	sw	a5,-40(s0)
ffffffc050306c88:	fd842703          	lw	a4,-40(s0)
ffffffc050306c8c:	001c07b7          	lui	a5,0x1c0
ffffffc050306c90:	8ff9                	and	a5,a5,a4
ffffffc050306c92:	fcf42c23          	sw	a5,-40(s0)
ffffffc050306c96:	fd842783          	lw	a5,-40(s0)
ffffffc050306c9a:	0837e793          	ori	a5,a5,131
ffffffc050306c9e:	fcf42c23          	sw	a5,-40(s0)
ffffffc050306ca2:	fc843783          	ld	a5,-56(s0)
ffffffc050306ca6:	679c                	ld	a5,8(a5)
ffffffc050306ca8:	0791                	addi	a5,a5,4
ffffffc050306caa:	fd842703          	lw	a4,-40(s0)
ffffffc050306cae:	85ba                	mv	a1,a4
ffffffc050306cb0:	853e                	mv	a0,a5
ffffffc050306cb2:	cadff0ef          	jal	ra,ffffffc05030695e <Xil_Out32>
ffffffc050306cb6:	fc843783          	ld	a5,-56(s0)
ffffffc050306cba:	1387a783          	lw	a5,312(a5) # 1c0138 <_start-0xffffffc05013fec8>
ffffffc050306cbe:	873e                	mv	a4,a5
ffffffc050306cc0:	4789                	li	a5,2
ffffffc050306cc2:	02e7f963          	bgeu	a5,a4,ffffffc050306cf4 <XEmacPs_Reset+0x132>
ffffffc050306cc6:	fc843783          	ld	a5,-56(s0)
ffffffc050306cca:	679c                	ld	a5,8(a5)
ffffffc050306ccc:	00478493          	addi	s1,a5,4
ffffffc050306cd0:	fc843783          	ld	a5,-56(s0)
ffffffc050306cd4:	679c                	ld	a5,8(a5)
ffffffc050306cd6:	0791                	addi	a5,a5,4
ffffffc050306cd8:	853e                	mv	a0,a5
ffffffc050306cda:	cb1ff0ef          	jal	ra,ffffffc05030698a <Xil_In32>
ffffffc050306cde:	87aa                	mv	a5,a0
ffffffc050306ce0:	2781                	sext.w	a5,a5
ffffffc050306ce2:	873e                	mv	a4,a5
ffffffc050306ce4:	002007b7          	lui	a5,0x200
ffffffc050306ce8:	8fd9                	or	a5,a5,a4
ffffffc050306cea:	2781                	sext.w	a5,a5
ffffffc050306cec:	85be                	mv	a1,a5
ffffffc050306cee:	8526                	mv	a0,s1
ffffffc050306cf0:	c6fff0ef          	jal	ra,ffffffc05030695e <Xil_Out32>
ffffffc050306cf4:	fc843783          	ld	a5,-56(s0)
ffffffc050306cf8:	679c                	ld	a5,8(a5)
ffffffc050306cfa:	01078713          	addi	a4,a5,16 # 200010 <_start-0xffffffc0500ffff0>
ffffffc050306cfe:	001807b7          	lui	a5,0x180
ffffffc050306d02:	70078593          	addi	a1,a5,1792 # 180700 <_start-0xffffffc05017f900>
ffffffc050306d06:	853a                	mv	a0,a4
ffffffc050306d08:	c57ff0ef          	jal	ra,ffffffc05030695e <Xil_Out32>
ffffffc050306d0c:	fc843783          	ld	a5,-56(s0)
ffffffc050306d10:	1387a783          	lw	a5,312(a5)
ffffffc050306d14:	873e                	mv	a4,a5
ffffffc050306d16:	4789                	li	a5,2
ffffffc050306d18:	02e7f763          	bgeu	a5,a4,ffffffc050306d46 <XEmacPs_Reset+0x184>
ffffffc050306d1c:	fc843783          	ld	a5,-56(s0)
ffffffc050306d20:	679c                	ld	a5,8(a5)
ffffffc050306d22:	01078493          	addi	s1,a5,16
ffffffc050306d26:	fc843783          	ld	a5,-56(s0)
ffffffc050306d2a:	679c                	ld	a5,8(a5)
ffffffc050306d2c:	07c1                	addi	a5,a5,16
ffffffc050306d2e:	853e                	mv	a0,a5
ffffffc050306d30:	c5bff0ef          	jal	ra,ffffffc05030698a <Xil_In32>
ffffffc050306d34:	87aa                	mv	a5,a0
ffffffc050306d36:	2781                	sext.w	a5,a5
ffffffc050306d38:	0107e793          	ori	a5,a5,16
ffffffc050306d3c:	2781                	sext.w	a5,a5
ffffffc050306d3e:	85be                	mv	a1,a5
ffffffc050306d40:	8526                	mv	a0,s1
ffffffc050306d42:	c1dff0ef          	jal	ra,ffffffc05030695e <Xil_Out32>
ffffffc050306d46:	fc843783          	ld	a5,-56(s0)
ffffffc050306d4a:	679c                	ld	a5,8(a5)
ffffffc050306d4c:	07d1                	addi	a5,a5,20
ffffffc050306d4e:	4581                	li	a1,0
ffffffc050306d50:	853e                	mv	a0,a5
ffffffc050306d52:	c0dff0ef          	jal	ra,ffffffc05030695e <Xil_Out32>
ffffffc050306d56:	4685                	li	a3,1
ffffffc050306d58:	4601                	li	a2,0
ffffffc050306d5a:	4581                	li	a1,0
ffffffc050306d5c:	fc843503          	ld	a0,-56(s0)
ffffffc050306d60:	188000ef          	jal	ra,ffffffc050306ee8 <XEmacPs_SetQueuePtr>
ffffffc050306d64:	fc843783          	ld	a5,-56(s0)
ffffffc050306d68:	1387a783          	lw	a5,312(a5)
ffffffc050306d6c:	873e                	mv	a4,a5
ffffffc050306d6e:	4789                	li	a5,2
ffffffc050306d70:	00e7f963          	bgeu	a5,a4,ffffffc050306d82 <XEmacPs_Reset+0x1c0>
ffffffc050306d74:	4685                	li	a3,1
ffffffc050306d76:	4605                	li	a2,1
ffffffc050306d78:	4581                	li	a1,0
ffffffc050306d7a:	fc843503          	ld	a0,-56(s0)
ffffffc050306d7e:	16a000ef          	jal	ra,ffffffc050306ee8 <XEmacPs_SetQueuePtr>
ffffffc050306d82:	4689                	li	a3,2
ffffffc050306d84:	4601                	li	a2,0
ffffffc050306d86:	4581                	li	a1,0
ffffffc050306d88:	fc843503          	ld	a0,-56(s0)
ffffffc050306d8c:	15c000ef          	jal	ra,ffffffc050306ee8 <XEmacPs_SetQueuePtr>
ffffffc050306d90:	fc843783          	ld	a5,-56(s0)
ffffffc050306d94:	679c                	ld	a5,8(a5)
ffffffc050306d96:	02078793          	addi	a5,a5,32
ffffffc050306d9a:	4581                	li	a1,0
ffffffc050306d9c:	853e                	mv	a0,a5
ffffffc050306d9e:	bc1ff0ef          	jal	ra,ffffffc05030695e <Xil_Out32>
ffffffc050306da2:	fc843783          	ld	a5,-56(s0)
ffffffc050306da6:	679c                	ld	a5,8(a5)
ffffffc050306da8:	02c78713          	addi	a4,a5,44
ffffffc050306dac:	67a1                	lui	a5,0x8
ffffffc050306dae:	fff78593          	addi	a1,a5,-1 # 7fff <_start-0xffffffc0502f8001>
ffffffc050306db2:	853a                	mv	a0,a4
ffffffc050306db4:	babff0ef          	jal	ra,ffffffc05030695e <Xil_Out32>
ffffffc050306db8:	fc843783          	ld	a5,-56(s0)
ffffffc050306dbc:	679c                	ld	a5,8(a5)
ffffffc050306dbe:	02478793          	addi	a5,a5,36
ffffffc050306dc2:	853e                	mv	a0,a5
ffffffc050306dc4:	bc7ff0ef          	jal	ra,ffffffc05030698a <Xil_In32>
ffffffc050306dc8:	87aa                	mv	a5,a0
ffffffc050306dca:	fcf42c23          	sw	a5,-40(s0)
ffffffc050306dce:	fc843783          	ld	a5,-56(s0)
ffffffc050306dd2:	679c                	ld	a5,8(a5)
ffffffc050306dd4:	02478793          	addi	a5,a5,36
ffffffc050306dd8:	fd842703          	lw	a4,-40(s0)
ffffffc050306ddc:	85ba                	mv	a1,a4
ffffffc050306dde:	853e                	mv	a0,a5
ffffffc050306de0:	b7fff0ef          	jal	ra,ffffffc05030695e <Xil_Out32>
ffffffc050306de4:	fc843503          	ld	a0,-56(s0)
ffffffc050306de8:	a3cfc0ef          	jal	ra,ffffffc050303024 <XEmacPs_ClearHash>
ffffffc050306dec:	4785                	li	a5,1
ffffffc050306dee:	fcf40fa3          	sb	a5,-33(s0)
ffffffc050306df2:	a805                	j	ffffffc050306e22 <XEmacPs_Reset+0x260>
ffffffc050306df4:	fdf44703          	lbu	a4,-33(s0)
ffffffc050306df8:	fd040793          	addi	a5,s0,-48
ffffffc050306dfc:	863a                	mv	a2,a4
ffffffc050306dfe:	85be                	mv	a1,a5
ffffffc050306e00:	fc843503          	ld	a0,-56(s0)
ffffffc050306e04:	ad1fb0ef          	jal	ra,ffffffc0503028d4 <XEmacPs_SetMacAddress>
ffffffc050306e08:	fdf44783          	lbu	a5,-33(s0)
ffffffc050306e0c:	863e                	mv	a2,a5
ffffffc050306e0e:	4581                	li	a1,0
ffffffc050306e10:	fc843503          	ld	a0,-56(s0)
ffffffc050306e14:	aaafc0ef          	jal	ra,ffffffc0503030be <XEmacPs_SetTypeIdCheck>
ffffffc050306e18:	fdf44783          	lbu	a5,-33(s0)
ffffffc050306e1c:	2785                	addiw	a5,a5,1
ffffffc050306e1e:	fcf40fa3          	sb	a5,-33(s0)
ffffffc050306e22:	fdf44783          	lbu	a5,-33(s0)
ffffffc050306e26:	0ff7f713          	andi	a4,a5,255
ffffffc050306e2a:	4791                	li	a5,4
ffffffc050306e2c:	fce7f4e3          	bgeu	a5,a4,ffffffc050306df4 <XEmacPs_Reset+0x232>
ffffffc050306e30:	fc040fa3          	sb	zero,-33(s0)
ffffffc050306e34:	a805                	j	ffffffc050306e64 <XEmacPs_Reset+0x2a2>
ffffffc050306e36:	fc843783          	ld	a5,-56(s0)
ffffffc050306e3a:	6798                	ld	a4,8(a5)
ffffffc050306e3c:	fdf44783          	lbu	a5,-33(s0)
ffffffc050306e40:	2781                	sext.w	a5,a5
ffffffc050306e42:	0407879b          	addiw	a5,a5,64
ffffffc050306e46:	2781                	sext.w	a5,a5
ffffffc050306e48:	0027979b          	slliw	a5,a5,0x2
ffffffc050306e4c:	2781                	sext.w	a5,a5
ffffffc050306e4e:	1782                	slli	a5,a5,0x20
ffffffc050306e50:	9381                	srli	a5,a5,0x20
ffffffc050306e52:	97ba                	add	a5,a5,a4
ffffffc050306e54:	853e                	mv	a0,a5
ffffffc050306e56:	b35ff0ef          	jal	ra,ffffffc05030698a <Xil_In32>
ffffffc050306e5a:	fdf44783          	lbu	a5,-33(s0)
ffffffc050306e5e:	2785                	addiw	a5,a5,1
ffffffc050306e60:	fcf40fa3          	sb	a5,-33(s0)
ffffffc050306e64:	fdf44783          	lbu	a5,-33(s0)
ffffffc050306e68:	0ff7f713          	andi	a4,a5,255
ffffffc050306e6c:	02c00793          	li	a5,44
ffffffc050306e70:	fce7f3e3          	bgeu	a5,a4,ffffffc050306e36 <XEmacPs_Reset+0x274>
ffffffc050306e74:	fc843783          	ld	a5,-56(s0)
ffffffc050306e78:	679c                	ld	a5,8(a5)
ffffffc050306e7a:	853e                	mv	a0,a5
ffffffc050306e7c:	b0fff0ef          	jal	ra,ffffffc05030698a <Xil_In32>
ffffffc050306e80:	87aa                	mv	a5,a0
ffffffc050306e82:	fcf42c23          	sw	a5,-40(s0)
ffffffc050306e86:	fd842783          	lw	a5,-40(s0)
ffffffc050306e8a:	9bed                	andi	a5,a5,-5
ffffffc050306e8c:	fcf42c23          	sw	a5,-40(s0)
ffffffc050306e90:	fc843783          	ld	a5,-56(s0)
ffffffc050306e94:	679c                	ld	a5,8(a5)
ffffffc050306e96:	fd842703          	lw	a4,-40(s0)
ffffffc050306e9a:	85ba                	mv	a1,a4
ffffffc050306e9c:	853e                	mv	a0,a5
ffffffc050306e9e:	ac1ff0ef          	jal	ra,ffffffc05030695e <Xil_Out32>
ffffffc050306ea2:	fc843783          	ld	a5,-56(s0)
ffffffc050306ea6:	539c                	lw	a5,32(a5)
ffffffc050306ea8:	cff7f793          	andi	a5,a5,-769
ffffffc050306eac:	2781                	sext.w	a5,a5
ffffffc050306eae:	85be                	mv	a1,a5
ffffffc050306eb0:	fc843503          	ld	a0,-56(s0)
ffffffc050306eb4:	a8efc0ef          	jal	ra,ffffffc050303142 <XEmacPs_SetOptions>
ffffffc050306eb8:	fc843783          	ld	a5,-56(s0)
ffffffc050306ebc:	539c                	lw	a5,32(a5)
ffffffc050306ebe:	fff7c793          	not	a5,a5
ffffffc050306ec2:	2781                	sext.w	a5,a5
ffffffc050306ec4:	85be                	mv	a1,a5
ffffffc050306ec6:	fc843503          	ld	a0,-56(s0)
ffffffc050306eca:	da4fc0ef          	jal	ra,ffffffc05030346e <XEmacPs_ClearOptions>
ffffffc050306ece:	0001                	nop
ffffffc050306ed0:	70e2                	ld	ra,56(sp)
ffffffc050306ed2:	7442                	ld	s0,48(sp)
ffffffc050306ed4:	74a2                	ld	s1,40(sp)
ffffffc050306ed6:	6121                	addi	sp,sp,64
ffffffc050306ed8:	8082                	ret

ffffffc050306eda <XEmacPs_StubHandler>:
ffffffc050306eda:	1141                	addi	sp,sp,-16
ffffffc050306edc:	e422                	sd	s0,8(sp)
ffffffc050306ede:	0800                	addi	s0,sp,16
ffffffc050306ee0:	0001                	nop
ffffffc050306ee2:	6422                	ld	s0,8(sp)
ffffffc050306ee4:	0141                	addi	sp,sp,16
ffffffc050306ee6:	8082                	ret

ffffffc050306ee8 <XEmacPs_SetQueuePtr>:
ffffffc050306ee8:	7179                	addi	sp,sp,-48
ffffffc050306eea:	f406                	sd	ra,40(sp)
ffffffc050306eec:	f022                	sd	s0,32(sp)
ffffffc050306eee:	1800                	addi	s0,sp,48
ffffffc050306ef0:	fea43423          	sd	a0,-24(s0)
ffffffc050306ef4:	feb43023          	sd	a1,-32(s0)
ffffffc050306ef8:	87b2                	mv	a5,a2
ffffffc050306efa:	8736                	mv	a4,a3
ffffffc050306efc:	fcf40fa3          	sb	a5,-33(s0)
ffffffc050306f00:	87ba                	mv	a5,a4
ffffffc050306f02:	fcf41e23          	sh	a5,-36(s0)
ffffffc050306f06:	fe843783          	ld	a5,-24(s0)
ffffffc050306f0a:	4f9c                	lw	a5,24(a5)
ffffffc050306f0c:	873e                	mv	a4,a5
ffffffc050306f0e:	222227b7          	lui	a5,0x22222
ffffffc050306f12:	22278793          	addi	a5,a5,546 # 22222222 <_start-0xffffffc02e0dddde>
ffffffc050306f16:	06f70f63          	beq	a4,a5,ffffffc050306f94 <XEmacPs_SetQueuePtr+0xac>
ffffffc050306f1a:	fe043503          	ld	a0,-32(s0)
ffffffc050306f1e:	a25ff0ef          	jal	ra,ffffffc050306942 <kva2pa>
ffffffc050306f22:	fea43023          	sd	a0,-32(s0)
ffffffc050306f26:	fdc45783          	lhu	a5,-36(s0)
ffffffc050306f2a:	0007871b          	sext.w	a4,a5
ffffffc050306f2e:	4785                	li	a5,1
ffffffc050306f30:	02f71a63          	bne	a4,a5,ffffffc050306f64 <XEmacPs_SetQueuePtr+0x7c>
ffffffc050306f34:	fe843783          	ld	a5,-24(s0)
ffffffc050306f38:	679c                	ld	a5,8(a5)
ffffffc050306f3a:	01c78713          	addi	a4,a5,28
ffffffc050306f3e:	fe043783          	ld	a5,-32(s0)
ffffffc050306f42:	2781                	sext.w	a5,a5
ffffffc050306f44:	86be                	mv	a3,a5
ffffffc050306f46:	100007b7          	lui	a5,0x10000
ffffffc050306f4a:	17fd                	addi	a5,a5,-1
ffffffc050306f4c:	8ff5                	and	a5,a5,a3
ffffffc050306f4e:	2781                	sext.w	a5,a5
ffffffc050306f50:	86be                	mv	a3,a5
ffffffc050306f52:	500007b7          	lui	a5,0x50000
ffffffc050306f56:	8fd5                	or	a5,a5,a3
ffffffc050306f58:	2781                	sext.w	a5,a5
ffffffc050306f5a:	85be                	mv	a1,a5
ffffffc050306f5c:	853a                	mv	a0,a4
ffffffc050306f5e:	a01ff0ef          	jal	ra,ffffffc05030695e <Xil_Out32>
ffffffc050306f62:	a815                	j	ffffffc050306f96 <XEmacPs_SetQueuePtr+0xae>
ffffffc050306f64:	fe843783          	ld	a5,-24(s0)
ffffffc050306f68:	679c                	ld	a5,8(a5)
ffffffc050306f6a:	01878713          	addi	a4,a5,24 # 50000018 <_start-0xffffffc0002fffe8>
ffffffc050306f6e:	fe043783          	ld	a5,-32(s0)
ffffffc050306f72:	2781                	sext.w	a5,a5
ffffffc050306f74:	86be                	mv	a3,a5
ffffffc050306f76:	100007b7          	lui	a5,0x10000
ffffffc050306f7a:	17fd                	addi	a5,a5,-1
ffffffc050306f7c:	8ff5                	and	a5,a5,a3
ffffffc050306f7e:	2781                	sext.w	a5,a5
ffffffc050306f80:	86be                	mv	a3,a5
ffffffc050306f82:	500007b7          	lui	a5,0x50000
ffffffc050306f86:	8fd5                	or	a5,a5,a3
ffffffc050306f88:	2781                	sext.w	a5,a5
ffffffc050306f8a:	85be                	mv	a1,a5
ffffffc050306f8c:	853a                	mv	a0,a4
ffffffc050306f8e:	9d1ff0ef          	jal	ra,ffffffc05030695e <Xil_Out32>
ffffffc050306f92:	a011                	j	ffffffc050306f96 <XEmacPs_SetQueuePtr+0xae>
ffffffc050306f94:	0001                	nop
ffffffc050306f96:	70a2                	ld	ra,40(sp)
ffffffc050306f98:	7402                	ld	s0,32(sp)
ffffffc050306f9a:	6145                	addi	sp,sp,48
ffffffc050306f9c:	8082                	ret

ffffffc050306f9e <writel>:
ffffffc050306f9e:	1101                	addi	sp,sp,-32
ffffffc050306fa0:	ec22                	sd	s0,24(sp)
ffffffc050306fa2:	1000                	addi	s0,sp,32
ffffffc050306fa4:	87aa                	mv	a5,a0
ffffffc050306fa6:	feb43023          	sd	a1,-32(s0)
ffffffc050306faa:	fef42623          	sw	a5,-20(s0)
ffffffc050306fae:	0550000f          	fence	ow,ow
ffffffc050306fb2:	fe043783          	ld	a5,-32(s0)
ffffffc050306fb6:	fec42703          	lw	a4,-20(s0)
ffffffc050306fba:	c398                	sw	a4,0(a5)
ffffffc050306fbc:	0001                	nop
ffffffc050306fbe:	6462                	ld	s0,24(sp)
ffffffc050306fc0:	6105                	addi	sp,sp,32
ffffffc050306fc2:	8082                	ret

ffffffc050306fc4 <Xil_Out32>:
ffffffc050306fc4:	1101                	addi	sp,sp,-32
ffffffc050306fc6:	ec06                	sd	ra,24(sp)
ffffffc050306fc8:	e822                	sd	s0,16(sp)
ffffffc050306fca:	1000                	addi	s0,sp,32
ffffffc050306fcc:	fea43423          	sd	a0,-24(s0)
ffffffc050306fd0:	87ae                	mv	a5,a1
ffffffc050306fd2:	fef42223          	sw	a5,-28(s0)
ffffffc050306fd6:	fe843703          	ld	a4,-24(s0)
ffffffc050306fda:	fe442783          	lw	a5,-28(s0)
ffffffc050306fde:	85ba                	mv	a1,a4
ffffffc050306fe0:	853e                	mv	a0,a5
ffffffc050306fe2:	fbdff0ef          	jal	ra,ffffffc050306f9e <writel>
ffffffc050306fe6:	0001                	nop
ffffffc050306fe8:	60e2                	ld	ra,24(sp)
ffffffc050306fea:	6442                	ld	s0,16(sp)
ffffffc050306fec:	6105                	addi	sp,sp,32
ffffffc050306fee:	8082                	ret

ffffffc050306ff0 <do_net_recv>:
ffffffc050306ff0:	711d                	addi	sp,sp,-96
ffffffc050306ff2:	ec86                	sd	ra,88(sp)
ffffffc050306ff4:	e8a2                	sd	s0,80(sp)
ffffffc050306ff6:	1080                	addi	s0,sp,96
ffffffc050306ff8:	faa43c23          	sd	a0,-72(s0)
ffffffc050306ffc:	fab43823          	sd	a1,-80(s0)
ffffffc050307000:	87b2                	mv	a5,a2
ffffffc050307002:	fad43023          	sd	a3,-96(s0)
ffffffc050307006:	faf42623          	sw	a5,-84(s0)
ffffffc05030700a:	fe042223          	sw	zero,-28(s0)
ffffffc05030700e:	fb843783          	ld	a5,-72(s0)
ffffffc050307012:	fcf43c23          	sd	a5,-40(s0)
ffffffc050307016:	ac95                	j	ffffffc05030728a <do_net_recv+0x29a>
ffffffc050307018:	fac42703          	lw	a4,-84(s0)
ffffffc05030701c:	fe442783          	lw	a5,-28(s0)
ffffffc050307020:	40f707bb          	subw	a5,a4,a5
ffffffc050307024:	2781                	sext.w	a5,a5
ffffffc050307026:	873e                	mv	a4,a5
ffffffc050307028:	47c1                	li	a5,16
ffffffc05030702a:	14e7c163          	blt	a5,a4,ffffffc05030716c <do_net_recv+0x17c>
ffffffc05030702e:	fac42703          	lw	a4,-84(s0)
ffffffc050307032:	fe442783          	lw	a5,-28(s0)
ffffffc050307036:	40f707bb          	subw	a5,a4,a5
ffffffc05030703a:	2781                	sext.w	a5,a5
ffffffc05030703c:	863e                	mv	a2,a5
ffffffc05030703e:	00035597          	auipc	a1,0x35
ffffffc050307042:	84258593          	addi	a1,a1,-1982 # ffffffc05033b880 <rx_buffers>
ffffffc050307046:	00033517          	auipc	a0,0x33
ffffffc05030704a:	5ea50513          	addi	a0,a0,1514 # ffffffc05033a630 <EmacPsInstance>
ffffffc05030704e:	e5ffe0ef          	jal	ra,ffffffc050305eac <EmacPsRecv>
ffffffc050307052:	fea43423          	sd	a0,-24(s0)
ffffffc050307056:	00041797          	auipc	a5,0x41
ffffffc05030705a:	82a78793          	addi	a5,a5,-2006 # ffffffc050347880 <net_poll_mode>
ffffffc05030705e:	439c                	lw	a5,0(a5)
ffffffc050307060:	873e                	mv	a4,a5
ffffffc050307062:	4785                	li	a5,1
ffffffc050307064:	02f71863          	bne	a4,a5,ffffffc050307094 <do_net_recv+0xa4>
ffffffc050307068:	a4cf90ef          	jal	ra,ffffffc0503002b4 <get_current_cpu_id>
ffffffc05030706c:	fca43023          	sd	a0,-64(s0)
ffffffc050307070:	00041717          	auipc	a4,0x41
ffffffc050307074:	52870713          	addi	a4,a4,1320 # ffffffc050348598 <current_running>
ffffffc050307078:	fc043783          	ld	a5,-64(s0)
ffffffc05030707c:	078e                	slli	a5,a5,0x3
ffffffc05030707e:	97ba                	add	a5,a5,a4
ffffffc050307080:	639c                	ld	a5,0(a5)
ffffffc050307082:	02878793          	addi	a5,a5,40
ffffffc050307086:	00005597          	auipc	a1,0x5
ffffffc05030708a:	bd258593          	addi	a1,a1,-1070 # ffffffc05030bc58 <recv_queue>
ffffffc05030708e:	853e                	mv	a0,a5
ffffffc050307090:	3be010ef          	jal	ra,ffffffc05030844e <do_block>
ffffffc050307094:	fac42703          	lw	a4,-84(s0)
ffffffc050307098:	fe442783          	lw	a5,-28(s0)
ffffffc05030709c:	40f707bb          	subw	a5,a4,a5
ffffffc0503070a0:	2781                	sext.w	a5,a5
ffffffc0503070a2:	00041617          	auipc	a2,0x41
ffffffc0503070a6:	e1e60613          	addi	a2,a2,-482 # ffffffc050347ec0 <rx_len>
ffffffc0503070aa:	85be                	mv	a1,a5
ffffffc0503070ac:	00033517          	auipc	a0,0x33
ffffffc0503070b0:	58450513          	addi	a0,a0,1412 # ffffffc05033a630 <EmacPsInstance>
ffffffc0503070b4:	f81fe0ef          	jal	ra,ffffffc050306034 <EmacPsWaitRecv>
ffffffc0503070b8:	fea43423          	sd	a0,-24(s0)
ffffffc0503070bc:	fc042a23          	sw	zero,-44(s0)
ffffffc0503070c0:	a841                	j	ffffffc050307150 <do_net_recv+0x160>
ffffffc0503070c2:	fd442703          	lw	a4,-44(s0)
ffffffc0503070c6:	87ba                	mv	a5,a4
ffffffc0503070c8:	0786                	slli	a5,a5,0x1
ffffffc0503070ca:	97ba                	add	a5,a5,a4
ffffffc0503070cc:	07a6                	slli	a5,a5,0x9
ffffffc0503070ce:	00034717          	auipc	a4,0x34
ffffffc0503070d2:	7b270713          	addi	a4,a4,1970 # ffffffc05033b880 <rx_buffers>
ffffffc0503070d6:	00e786b3          	add	a3,a5,a4
ffffffc0503070da:	00041717          	auipc	a4,0x41
ffffffc0503070de:	de670713          	addi	a4,a4,-538 # ffffffc050347ec0 <rx_len>
ffffffc0503070e2:	fd442783          	lw	a5,-44(s0)
ffffffc0503070e6:	078a                	slli	a5,a5,0x2
ffffffc0503070e8:	97ba                	add	a5,a5,a4
ffffffc0503070ea:	439c                	lw	a5,0(a5)
ffffffc0503070ec:	863e                	mv	a2,a5
ffffffc0503070ee:	85b6                	mv	a1,a3
ffffffc0503070f0:	fd843503          	ld	a0,-40(s0)
ffffffc0503070f4:	649020ef          	jal	ra,ffffffc050309f3c <kmemcpy>
ffffffc0503070f8:	00041717          	auipc	a4,0x41
ffffffc0503070fc:	dc870713          	addi	a4,a4,-568 # ffffffc050347ec0 <rx_len>
ffffffc050307100:	fd442783          	lw	a5,-44(s0)
ffffffc050307104:	078a                	slli	a5,a5,0x2
ffffffc050307106:	97ba                	add	a5,a5,a4
ffffffc050307108:	439c                	lw	a5,0(a5)
ffffffc05030710a:	1782                	slli	a5,a5,0x20
ffffffc05030710c:	9381                	srli	a5,a5,0x20
ffffffc05030710e:	fd843703          	ld	a4,-40(s0)
ffffffc050307112:	97ba                	add	a5,a5,a4
ffffffc050307114:	fcf43c23          	sd	a5,-40(s0)
ffffffc050307118:	00041717          	auipc	a4,0x41
ffffffc05030711c:	da870713          	addi	a4,a4,-600 # ffffffc050347ec0 <rx_len>
ffffffc050307120:	fd442783          	lw	a5,-44(s0)
ffffffc050307124:	078a                	slli	a5,a5,0x2
ffffffc050307126:	97ba                	add	a5,a5,a4
ffffffc050307128:	4394                	lw	a3,0(a5)
ffffffc05030712a:	fd442703          	lw	a4,-44(s0)
ffffffc05030712e:	fe442783          	lw	a5,-28(s0)
ffffffc050307132:	9fb9                	addw	a5,a5,a4
ffffffc050307134:	2781                	sext.w	a5,a5
ffffffc050307136:	078e                	slli	a5,a5,0x3
ffffffc050307138:	fa043703          	ld	a4,-96(s0)
ffffffc05030713c:	97ba                	add	a5,a5,a4
ffffffc05030713e:	02069713          	slli	a4,a3,0x20
ffffffc050307142:	9301                	srli	a4,a4,0x20
ffffffc050307144:	e398                	sd	a4,0(a5)
ffffffc050307146:	fd442783          	lw	a5,-44(s0)
ffffffc05030714a:	2785                	addiw	a5,a5,1
ffffffc05030714c:	fcf42a23          	sw	a5,-44(s0)
ffffffc050307150:	fac42703          	lw	a4,-84(s0)
ffffffc050307154:	fe442783          	lw	a5,-28(s0)
ffffffc050307158:	40f707bb          	subw	a5,a4,a5
ffffffc05030715c:	0007871b          	sext.w	a4,a5
ffffffc050307160:	fd442783          	lw	a5,-44(s0)
ffffffc050307164:	2781                	sext.w	a5,a5
ffffffc050307166:	f4e7cee3          	blt	a5,a4,ffffffc0503070c2 <do_net_recv+0xd2>
ffffffc05030716a:	aa19                	j	ffffffc050307280 <do_net_recv+0x290>
ffffffc05030716c:	4641                	li	a2,16
ffffffc05030716e:	00034597          	auipc	a1,0x34
ffffffc050307172:	71258593          	addi	a1,a1,1810 # ffffffc05033b880 <rx_buffers>
ffffffc050307176:	00033517          	auipc	a0,0x33
ffffffc05030717a:	4ba50513          	addi	a0,a0,1210 # ffffffc05033a630 <EmacPsInstance>
ffffffc05030717e:	d2ffe0ef          	jal	ra,ffffffc050305eac <EmacPsRecv>
ffffffc050307182:	fea43423          	sd	a0,-24(s0)
ffffffc050307186:	00040797          	auipc	a5,0x40
ffffffc05030718a:	6fa78793          	addi	a5,a5,1786 # ffffffc050347880 <net_poll_mode>
ffffffc05030718e:	439c                	lw	a5,0(a5)
ffffffc050307190:	873e                	mv	a4,a5
ffffffc050307192:	4785                	li	a5,1
ffffffc050307194:	02f71863          	bne	a4,a5,ffffffc0503071c4 <do_net_recv+0x1d4>
ffffffc050307198:	91cf90ef          	jal	ra,ffffffc0503002b4 <get_current_cpu_id>
ffffffc05030719c:	fca43423          	sd	a0,-56(s0)
ffffffc0503071a0:	00041717          	auipc	a4,0x41
ffffffc0503071a4:	3f870713          	addi	a4,a4,1016 # ffffffc050348598 <current_running>
ffffffc0503071a8:	fc843783          	ld	a5,-56(s0)
ffffffc0503071ac:	078e                	slli	a5,a5,0x3
ffffffc0503071ae:	97ba                	add	a5,a5,a4
ffffffc0503071b0:	639c                	ld	a5,0(a5)
ffffffc0503071b2:	02878793          	addi	a5,a5,40
ffffffc0503071b6:	00005597          	auipc	a1,0x5
ffffffc0503071ba:	aa258593          	addi	a1,a1,-1374 # ffffffc05030bc58 <recv_queue>
ffffffc0503071be:	853e                	mv	a0,a5
ffffffc0503071c0:	28e010ef          	jal	ra,ffffffc05030844e <do_block>
ffffffc0503071c4:	00041617          	auipc	a2,0x41
ffffffc0503071c8:	cfc60613          	addi	a2,a2,-772 # ffffffc050347ec0 <rx_len>
ffffffc0503071cc:	45c1                	li	a1,16
ffffffc0503071ce:	00033517          	auipc	a0,0x33
ffffffc0503071d2:	46250513          	addi	a0,a0,1122 # ffffffc05033a630 <EmacPsInstance>
ffffffc0503071d6:	e5ffe0ef          	jal	ra,ffffffc050306034 <EmacPsWaitRecv>
ffffffc0503071da:	fea43423          	sd	a0,-24(s0)
ffffffc0503071de:	fc042823          	sw	zero,-48(s0)
ffffffc0503071e2:	a841                	j	ffffffc050307272 <do_net_recv+0x282>
ffffffc0503071e4:	fd042703          	lw	a4,-48(s0)
ffffffc0503071e8:	87ba                	mv	a5,a4
ffffffc0503071ea:	0786                	slli	a5,a5,0x1
ffffffc0503071ec:	97ba                	add	a5,a5,a4
ffffffc0503071ee:	07a6                	slli	a5,a5,0x9
ffffffc0503071f0:	00034717          	auipc	a4,0x34
ffffffc0503071f4:	69070713          	addi	a4,a4,1680 # ffffffc05033b880 <rx_buffers>
ffffffc0503071f8:	00e786b3          	add	a3,a5,a4
ffffffc0503071fc:	00041717          	auipc	a4,0x41
ffffffc050307200:	cc470713          	addi	a4,a4,-828 # ffffffc050347ec0 <rx_len>
ffffffc050307204:	fd042783          	lw	a5,-48(s0)
ffffffc050307208:	078a                	slli	a5,a5,0x2
ffffffc05030720a:	97ba                	add	a5,a5,a4
ffffffc05030720c:	439c                	lw	a5,0(a5)
ffffffc05030720e:	863e                	mv	a2,a5
ffffffc050307210:	85b6                	mv	a1,a3
ffffffc050307212:	fd843503          	ld	a0,-40(s0)
ffffffc050307216:	527020ef          	jal	ra,ffffffc050309f3c <kmemcpy>
ffffffc05030721a:	00041717          	auipc	a4,0x41
ffffffc05030721e:	ca670713          	addi	a4,a4,-858 # ffffffc050347ec0 <rx_len>
ffffffc050307222:	fd042783          	lw	a5,-48(s0)
ffffffc050307226:	078a                	slli	a5,a5,0x2
ffffffc050307228:	97ba                	add	a5,a5,a4
ffffffc05030722a:	439c                	lw	a5,0(a5)
ffffffc05030722c:	1782                	slli	a5,a5,0x20
ffffffc05030722e:	9381                	srli	a5,a5,0x20
ffffffc050307230:	fd843703          	ld	a4,-40(s0)
ffffffc050307234:	97ba                	add	a5,a5,a4
ffffffc050307236:	fcf43c23          	sd	a5,-40(s0)
ffffffc05030723a:	00041717          	auipc	a4,0x41
ffffffc05030723e:	c8670713          	addi	a4,a4,-890 # ffffffc050347ec0 <rx_len>
ffffffc050307242:	fd042783          	lw	a5,-48(s0)
ffffffc050307246:	078a                	slli	a5,a5,0x2
ffffffc050307248:	97ba                	add	a5,a5,a4
ffffffc05030724a:	4394                	lw	a3,0(a5)
ffffffc05030724c:	fd042703          	lw	a4,-48(s0)
ffffffc050307250:	fe442783          	lw	a5,-28(s0)
ffffffc050307254:	9fb9                	addw	a5,a5,a4
ffffffc050307256:	2781                	sext.w	a5,a5
ffffffc050307258:	078e                	slli	a5,a5,0x3
ffffffc05030725a:	fa043703          	ld	a4,-96(s0)
ffffffc05030725e:	97ba                	add	a5,a5,a4
ffffffc050307260:	02069713          	slli	a4,a3,0x20
ffffffc050307264:	9301                	srli	a4,a4,0x20
ffffffc050307266:	e398                	sd	a4,0(a5)
ffffffc050307268:	fd042783          	lw	a5,-48(s0)
ffffffc05030726c:	2785                	addiw	a5,a5,1
ffffffc05030726e:	fcf42823          	sw	a5,-48(s0)
ffffffc050307272:	fd042783          	lw	a5,-48(s0)
ffffffc050307276:	0007871b          	sext.w	a4,a5
ffffffc05030727a:	47bd                	li	a5,15
ffffffc05030727c:	f6e7d4e3          	bge	a5,a4,ffffffc0503071e4 <do_net_recv+0x1f4>
ffffffc050307280:	fe442783          	lw	a5,-28(s0)
ffffffc050307284:	27c1                	addiw	a5,a5,16
ffffffc050307286:	fef42223          	sw	a5,-28(s0)
ffffffc05030728a:	fe442703          	lw	a4,-28(s0)
ffffffc05030728e:	fac42783          	lw	a5,-84(s0)
ffffffc050307292:	2701                	sext.w	a4,a4
ffffffc050307294:	2781                	sext.w	a5,a5
ffffffc050307296:	d8f741e3          	blt	a4,a5,ffffffc050307018 <do_net_recv+0x28>
ffffffc05030729a:	fe843783          	ld	a5,-24(s0)
ffffffc05030729e:	853e                	mv	a0,a5
ffffffc0503072a0:	60e6                	ld	ra,88(sp)
ffffffc0503072a2:	6446                	ld	s0,80(sp)
ffffffc0503072a4:	6125                	addi	sp,sp,96
ffffffc0503072a6:	8082                	ret

ffffffc0503072a8 <do_net_send>:
ffffffc0503072a8:	7179                	addi	sp,sp,-48
ffffffc0503072aa:	f406                	sd	ra,40(sp)
ffffffc0503072ac:	f022                	sd	s0,32(sp)
ffffffc0503072ae:	1800                	addi	s0,sp,48
ffffffc0503072b0:	fca43c23          	sd	a0,-40(s0)
ffffffc0503072b4:	fcb43823          	sd	a1,-48(s0)
ffffffc0503072b8:	fd843783          	ld	a5,-40(s0)
ffffffc0503072bc:	60000613          	li	a2,1536
ffffffc0503072c0:	85be                	mv	a1,a5
ffffffc0503072c2:	00040517          	auipc	a0,0x40
ffffffc0503072c6:	5fe50513          	addi	a0,a0,1534 # ffffffc0503478c0 <tx_buffer>
ffffffc0503072ca:	473020ef          	jal	ra,ffffffc050309f3c <kmemcpy>
ffffffc0503072ce:	fd043603          	ld	a2,-48(s0)
ffffffc0503072d2:	00040597          	auipc	a1,0x40
ffffffc0503072d6:	5ee58593          	addi	a1,a1,1518 # ffffffc0503478c0 <tx_buffer>
ffffffc0503072da:	00033517          	auipc	a0,0x33
ffffffc0503072de:	35650513          	addi	a0,a0,854 # ffffffc05033a630 <EmacPsInstance>
ffffffc0503072e2:	9d3fe0ef          	jal	ra,ffffffc050305cb4 <EmacPsSend>
ffffffc0503072e6:	fea43423          	sd	a0,-24(s0)
ffffffc0503072ea:	00040797          	auipc	a5,0x40
ffffffc0503072ee:	59678793          	addi	a5,a5,1430 # ffffffc050347880 <net_poll_mode>
ffffffc0503072f2:	439c                	lw	a5,0(a5)
ffffffc0503072f4:	873e                	mv	a4,a5
ffffffc0503072f6:	4785                	li	a5,1
ffffffc0503072f8:	02f71863          	bne	a4,a5,ffffffc050307328 <do_net_send+0x80>
ffffffc0503072fc:	fb9f80ef          	jal	ra,ffffffc0503002b4 <get_current_cpu_id>
ffffffc050307300:	fea43023          	sd	a0,-32(s0)
ffffffc050307304:	00041717          	auipc	a4,0x41
ffffffc050307308:	29470713          	addi	a4,a4,660 # ffffffc050348598 <current_running>
ffffffc05030730c:	fe043783          	ld	a5,-32(s0)
ffffffc050307310:	078e                	slli	a5,a5,0x3
ffffffc050307312:	97ba                	add	a5,a5,a4
ffffffc050307314:	639c                	ld	a5,0(a5)
ffffffc050307316:	02878793          	addi	a5,a5,40
ffffffc05030731a:	00005597          	auipc	a1,0x5
ffffffc05030731e:	94e58593          	addi	a1,a1,-1714 # ffffffc05030bc68 <send_queue>
ffffffc050307322:	853e                	mv	a0,a5
ffffffc050307324:	12a010ef          	jal	ra,ffffffc05030844e <do_block>
ffffffc050307328:	00033517          	auipc	a0,0x33
ffffffc05030732c:	30850513          	addi	a0,a0,776 # ffffffc05033a630 <EmacPsInstance>
ffffffc050307330:	a87fe0ef          	jal	ra,ffffffc050305db6 <EmacPsWaitSend>
ffffffc050307334:	fea43423          	sd	a0,-24(s0)
ffffffc050307338:	0001                	nop
ffffffc05030733a:	70a2                	ld	ra,40(sp)
ffffffc05030733c:	7402                	ld	s0,32(sp)
ffffffc05030733e:	6145                	addi	sp,sp,48
ffffffc050307340:	8082                	ret

ffffffc050307342 <do_net_irq_mode>:
ffffffc050307342:	1101                	addi	sp,sp,-32
ffffffc050307344:	ec06                	sd	ra,24(sp)
ffffffc050307346:	e822                	sd	s0,16(sp)
ffffffc050307348:	1000                	addi	s0,sp,32
ffffffc05030734a:	87aa                	mv	a5,a0
ffffffc05030734c:	fef42623          	sw	a5,-20(s0)
ffffffc050307350:	fec42783          	lw	a5,-20(s0)
ffffffc050307354:	0007871b          	sext.w	a4,a5
ffffffc050307358:	4785                	li	a5,1
ffffffc05030735a:	00f71f63          	bne	a4,a5,ffffffc050307378 <do_net_irq_mode+0x36>
ffffffc05030735e:	00033797          	auipc	a5,0x33
ffffffc050307362:	2d278793          	addi	a5,a5,722 # ffffffc05033a630 <EmacPsInstance>
ffffffc050307366:	679c                	ld	a5,8(a5)
ffffffc050307368:	02878713          	addi	a4,a5,40
ffffffc05030736c:	67a1                	lui	a5,0x8
ffffffc05030736e:	fff78593          	addi	a1,a5,-1 # 7fff <_start-0xffffffc0502f8001>
ffffffc050307372:	853a                	mv	a0,a4
ffffffc050307374:	c51ff0ef          	jal	ra,ffffffc050306fc4 <Xil_Out32>
ffffffc050307378:	00040797          	auipc	a5,0x40
ffffffc05030737c:	50878793          	addi	a5,a5,1288 # ffffffc050347880 <net_poll_mode>
ffffffc050307380:	fec42703          	lw	a4,-20(s0)
ffffffc050307384:	c398                	sw	a4,0(a5)
ffffffc050307386:	0001                	nop
ffffffc050307388:	60e2                	ld	ra,24(sp)
ffffffc05030738a:	6442                	ld	s0,16(sp)
ffffffc05030738c:	6105                	addi	sp,sp,32
ffffffc05030738e:	8082                	ret

ffffffc050307390 <writel>:
ffffffc050307390:	1101                	addi	sp,sp,-32
ffffffc050307392:	ec22                	sd	s0,24(sp)
ffffffc050307394:	1000                	addi	s0,sp,32
ffffffc050307396:	87aa                	mv	a5,a0
ffffffc050307398:	feb43023          	sd	a1,-32(s0)
ffffffc05030739c:	fef42623          	sw	a5,-20(s0)
ffffffc0503073a0:	0550000f          	fence	ow,ow
ffffffc0503073a4:	fe043783          	ld	a5,-32(s0)
ffffffc0503073a8:	fec42703          	lw	a4,-20(s0)
ffffffc0503073ac:	c398                	sw	a4,0(a5)
ffffffc0503073ae:	0001                	nop
ffffffc0503073b0:	6462                	ld	s0,24(sp)
ffffffc0503073b2:	6105                	addi	sp,sp,32
ffffffc0503073b4:	8082                	ret

ffffffc0503073b6 <readl>:
ffffffc0503073b6:	7179                	addi	sp,sp,-48
ffffffc0503073b8:	f422                	sd	s0,40(sp)
ffffffc0503073ba:	1800                	addi	s0,sp,48
ffffffc0503073bc:	fca43c23          	sd	a0,-40(s0)
ffffffc0503073c0:	fd843783          	ld	a5,-40(s0)
ffffffc0503073c4:	439c                	lw	a5,0(a5)
ffffffc0503073c6:	fef42623          	sw	a5,-20(s0)
ffffffc0503073ca:	0aa0000f          	fence	ir,ir
ffffffc0503073ce:	fec42783          	lw	a5,-20(s0)
ffffffc0503073d2:	853e                	mv	a0,a5
ffffffc0503073d4:	7422                	ld	s0,40(sp)
ffffffc0503073d6:	6145                	addi	sp,sp,48
ffffffc0503073d8:	8082                	ret

ffffffc0503073da <plic_toggle>:
ffffffc0503073da:	7179                	addi	sp,sp,-48
ffffffc0503073dc:	f406                	sd	ra,40(sp)
ffffffc0503073de:	f022                	sd	s0,32(sp)
ffffffc0503073e0:	1800                	addi	s0,sp,48
ffffffc0503073e2:	fca43c23          	sd	a0,-40(s0)
ffffffc0503073e6:	87ae                	mv	a5,a1
ffffffc0503073e8:	8732                	mv	a4,a2
ffffffc0503073ea:	fcf42a23          	sw	a5,-44(s0)
ffffffc0503073ee:	87ba                	mv	a5,a4
ffffffc0503073f0:	fcf42823          	sw	a5,-48(s0)
ffffffc0503073f4:	fd843783          	ld	a5,-40(s0)
ffffffc0503073f8:	6b98                	ld	a4,16(a5)
ffffffc0503073fa:	fd442783          	lw	a5,-44(s0)
ffffffc0503073fe:	41f7d69b          	sraiw	a3,a5,0x1f
ffffffc050307402:	01b6d69b          	srliw	a3,a3,0x1b
ffffffc050307406:	9fb5                	addw	a5,a5,a3
ffffffc050307408:	4057d79b          	sraiw	a5,a5,0x5
ffffffc05030740c:	2781                	sext.w	a5,a5
ffffffc05030740e:	078a                	slli	a5,a5,0x2
ffffffc050307410:	97ba                	add	a5,a5,a4
ffffffc050307412:	fef43423          	sd	a5,-24(s0)
ffffffc050307416:	fd442703          	lw	a4,-44(s0)
ffffffc05030741a:	41f7579b          	sraiw	a5,a4,0x1f
ffffffc05030741e:	01b7d79b          	srliw	a5,a5,0x1b
ffffffc050307422:	9f3d                	addw	a4,a4,a5
ffffffc050307424:	8b7d                	andi	a4,a4,31
ffffffc050307426:	40f707bb          	subw	a5,a4,a5
ffffffc05030742a:	2781                	sext.w	a5,a5
ffffffc05030742c:	4705                	li	a4,1
ffffffc05030742e:	00f717bb          	sllw	a5,a4,a5
ffffffc050307432:	2781                	sext.w	a5,a5
ffffffc050307434:	fef42223          	sw	a5,-28(s0)
ffffffc050307438:	fd042783          	lw	a5,-48(s0)
ffffffc05030743c:	2781                	sext.w	a5,a5
ffffffc05030743e:	c395                	beqz	a5,ffffffc050307462 <plic_toggle+0x88>
ffffffc050307440:	fe843503          	ld	a0,-24(s0)
ffffffc050307444:	f73ff0ef          	jal	ra,ffffffc0503073b6 <readl>
ffffffc050307448:	87aa                	mv	a5,a0
ffffffc05030744a:	0007871b          	sext.w	a4,a5
ffffffc05030744e:	fe442783          	lw	a5,-28(s0)
ffffffc050307452:	8fd9                	or	a5,a5,a4
ffffffc050307454:	2781                	sext.w	a5,a5
ffffffc050307456:	fe843583          	ld	a1,-24(s0)
ffffffc05030745a:	853e                	mv	a0,a5
ffffffc05030745c:	f35ff0ef          	jal	ra,ffffffc050307390 <writel>
ffffffc050307460:	a025                	j	ffffffc050307488 <plic_toggle+0xae>
ffffffc050307462:	fe843503          	ld	a0,-24(s0)
ffffffc050307466:	f51ff0ef          	jal	ra,ffffffc0503073b6 <readl>
ffffffc05030746a:	87aa                	mv	a5,a0
ffffffc05030746c:	0007871b          	sext.w	a4,a5
ffffffc050307470:	fe442783          	lw	a5,-28(s0)
ffffffc050307474:	fff7c793          	not	a5,a5
ffffffc050307478:	2781                	sext.w	a5,a5
ffffffc05030747a:	8ff9                	and	a5,a5,a4
ffffffc05030747c:	2781                	sext.w	a5,a5
ffffffc05030747e:	fe843583          	ld	a1,-24(s0)
ffffffc050307482:	853e                	mv	a0,a5
ffffffc050307484:	f0dff0ef          	jal	ra,ffffffc050307390 <writel>
ffffffc050307488:	0001                	nop
ffffffc05030748a:	70a2                	ld	ra,40(sp)
ffffffc05030748c:	7402                	ld	s0,32(sp)
ffffffc05030748e:	6145                	addi	sp,sp,48
ffffffc050307490:	8082                	ret

ffffffc050307492 <plic_irq_unmask>:
ffffffc050307492:	7179                	addi	sp,sp,-48
ffffffc050307494:	f406                	sd	ra,40(sp)
ffffffc050307496:	f022                	sd	s0,32(sp)
ffffffc050307498:	1800                	addi	s0,sp,48
ffffffc05030749a:	87aa                	mv	a5,a0
ffffffc05030749c:	fcf42e23          	sw	a5,-36(s0)
ffffffc0503074a0:	4785                	li	a5,1
ffffffc0503074a2:	fef42623          	sw	a5,-20(s0)
ffffffc0503074a6:	fec42683          	lw	a3,-20(s0)
ffffffc0503074aa:	00032797          	auipc	a5,0x32
ffffffc0503074ae:	01e78793          	addi	a5,a5,30 # ffffffc0503394c8 <plic_regs>
ffffffc0503074b2:	639c                	ld	a5,0(a5)
ffffffc0503074b4:	fdc42703          	lw	a4,-36(s0)
ffffffc0503074b8:	0027171b          	slliw	a4,a4,0x2
ffffffc0503074bc:	2701                	sext.w	a4,a4
ffffffc0503074be:	97ba                	add	a5,a5,a4
ffffffc0503074c0:	85be                	mv	a1,a5
ffffffc0503074c2:	8536                	mv	a0,a3
ffffffc0503074c4:	ecdff0ef          	jal	ra,ffffffc050307390 <writel>
ffffffc0503074c8:	00041797          	auipc	a5,0x41
ffffffc0503074cc:	a7878793          	addi	a5,a5,-1416 # ffffffc050347f40 <plic_handlers>
ffffffc0503074d0:	fef43023          	sd	a5,-32(s0)
ffffffc0503074d4:	fe043783          	ld	a5,-32(s0)
ffffffc0503074d8:	0007c783          	lbu	a5,0(a5)
ffffffc0503074dc:	cb99                	beqz	a5,ffffffc0503074f2 <plic_irq_unmask+0x60>
ffffffc0503074de:	fec42703          	lw	a4,-20(s0)
ffffffc0503074e2:	fdc42783          	lw	a5,-36(s0)
ffffffc0503074e6:	863a                	mv	a2,a4
ffffffc0503074e8:	85be                	mv	a1,a5
ffffffc0503074ea:	fe043503          	ld	a0,-32(s0)
ffffffc0503074ee:	eedff0ef          	jal	ra,ffffffc0503073da <plic_toggle>
ffffffc0503074f2:	0001                	nop
ffffffc0503074f4:	70a2                	ld	ra,40(sp)
ffffffc0503074f6:	7402                	ld	s0,32(sp)
ffffffc0503074f8:	6145                	addi	sp,sp,48
ffffffc0503074fa:	8082                	ret

ffffffc0503074fc <plic_irq_mask>:
ffffffc0503074fc:	7179                	addi	sp,sp,-48
ffffffc0503074fe:	f406                	sd	ra,40(sp)
ffffffc050307500:	f022                	sd	s0,32(sp)
ffffffc050307502:	1800                	addi	s0,sp,48
ffffffc050307504:	87aa                	mv	a5,a0
ffffffc050307506:	fcf42e23          	sw	a5,-36(s0)
ffffffc05030750a:	fe042623          	sw	zero,-20(s0)
ffffffc05030750e:	fec42683          	lw	a3,-20(s0)
ffffffc050307512:	00032797          	auipc	a5,0x32
ffffffc050307516:	fb678793          	addi	a5,a5,-74 # ffffffc0503394c8 <plic_regs>
ffffffc05030751a:	639c                	ld	a5,0(a5)
ffffffc05030751c:	fdc42703          	lw	a4,-36(s0)
ffffffc050307520:	0027171b          	slliw	a4,a4,0x2
ffffffc050307524:	2701                	sext.w	a4,a4
ffffffc050307526:	97ba                	add	a5,a5,a4
ffffffc050307528:	85be                	mv	a1,a5
ffffffc05030752a:	8536                	mv	a0,a3
ffffffc05030752c:	e65ff0ef          	jal	ra,ffffffc050307390 <writel>
ffffffc050307530:	00041797          	auipc	a5,0x41
ffffffc050307534:	a1078793          	addi	a5,a5,-1520 # ffffffc050347f40 <plic_handlers>
ffffffc050307538:	fef43023          	sd	a5,-32(s0)
ffffffc05030753c:	fe043783          	ld	a5,-32(s0)
ffffffc050307540:	0007c783          	lbu	a5,0(a5)
ffffffc050307544:	cb99                	beqz	a5,ffffffc05030755a <plic_irq_mask+0x5e>
ffffffc050307546:	fec42703          	lw	a4,-20(s0)
ffffffc05030754a:	fdc42783          	lw	a5,-36(s0)
ffffffc05030754e:	863a                	mv	a2,a4
ffffffc050307550:	85be                	mv	a1,a5
ffffffc050307552:	fe043503          	ld	a0,-32(s0)
ffffffc050307556:	e85ff0ef          	jal	ra,ffffffc0503073da <plic_toggle>
ffffffc05030755a:	0001                	nop
ffffffc05030755c:	70a2                	ld	ra,40(sp)
ffffffc05030755e:	7402                	ld	s0,32(sp)
ffffffc050307560:	6145                	addi	sp,sp,48
ffffffc050307562:	8082                	ret

ffffffc050307564 <plic_irq_eoi>:
ffffffc050307564:	7179                	addi	sp,sp,-48
ffffffc050307566:	f406                	sd	ra,40(sp)
ffffffc050307568:	f022                	sd	s0,32(sp)
ffffffc05030756a:	1800                	addi	s0,sp,48
ffffffc05030756c:	87aa                	mv	a5,a0
ffffffc05030756e:	fcf42e23          	sw	a5,-36(s0)
ffffffc050307572:	00041797          	auipc	a5,0x41
ffffffc050307576:	9ce78793          	addi	a5,a5,-1586 # ffffffc050347f40 <plic_handlers>
ffffffc05030757a:	fef43423          	sd	a5,-24(s0)
ffffffc05030757e:	fdc42703          	lw	a4,-36(s0)
ffffffc050307582:	fe843783          	ld	a5,-24(s0)
ffffffc050307586:	679c                	ld	a5,8(a5)
ffffffc050307588:	0791                	addi	a5,a5,4
ffffffc05030758a:	85be                	mv	a1,a5
ffffffc05030758c:	853a                	mv	a0,a4
ffffffc05030758e:	e03ff0ef          	jal	ra,ffffffc050307390 <writel>
ffffffc050307592:	0001                	nop
ffffffc050307594:	70a2                	ld	ra,40(sp)
ffffffc050307596:	7402                	ld	s0,32(sp)
ffffffc050307598:	6145                	addi	sp,sp,48
ffffffc05030759a:	8082                	ret

ffffffc05030759c <plic_handle_irq>:
ffffffc05030759c:	715d                	addi	sp,sp,-80
ffffffc05030759e:	e486                	sd	ra,72(sp)
ffffffc0503075a0:	e0a2                	sd	s0,64(sp)
ffffffc0503075a2:	0880                	addi	s0,sp,80
ffffffc0503075a4:	faa43c23          	sd	a0,-72(s0)
ffffffc0503075a8:	00041797          	auipc	a5,0x41
ffffffc0503075ac:	99878793          	addi	a5,a5,-1640 # ffffffc050347f40 <plic_handlers>
ffffffc0503075b0:	fef43423          	sd	a5,-24(s0)
ffffffc0503075b4:	fe843783          	ld	a5,-24(s0)
ffffffc0503075b8:	679c                	ld	a5,8(a5)
ffffffc0503075ba:	0791                	addi	a5,a5,4
ffffffc0503075bc:	fef43023          	sd	a5,-32(s0)
ffffffc0503075c0:	20000793          	li	a5,512
ffffffc0503075c4:	fcf43c23          	sd	a5,-40(s0)
ffffffc0503075c8:	fd843783          	ld	a5,-40(s0)
ffffffc0503075cc:	1047b073          	csrc	sie,a5
ffffffc0503075d0:	a801                	j	ffffffc0503075e0 <plic_handle_irq+0x44>
ffffffc0503075d2:	fd442783          	lw	a5,-44(s0)
ffffffc0503075d6:	85be                	mv	a1,a5
ffffffc0503075d8:	fb843503          	ld	a0,-72(s0)
ffffffc0503075dc:	c65f90ef          	jal	ra,ffffffc050301240 <handle_irq>
ffffffc0503075e0:	fe043503          	ld	a0,-32(s0)
ffffffc0503075e4:	dd3ff0ef          	jal	ra,ffffffc0503073b6 <readl>
ffffffc0503075e8:	87aa                	mv	a5,a0
ffffffc0503075ea:	2781                	sext.w	a5,a5
ffffffc0503075ec:	fcf42a23          	sw	a5,-44(s0)
ffffffc0503075f0:	fd442783          	lw	a5,-44(s0)
ffffffc0503075f4:	2781                	sext.w	a5,a5
ffffffc0503075f6:	fff1                	bnez	a5,ffffffc0503075d2 <plic_handle_irq+0x36>
ffffffc0503075f8:	20000793          	li	a5,512
ffffffc0503075fc:	fcf43423          	sd	a5,-56(s0)
ffffffc050307600:	fc843783          	ld	a5,-56(s0)
ffffffc050307604:	1047a073          	csrs	sie,a5
ffffffc050307608:	0001                	nop
ffffffc05030760a:	60a6                	ld	ra,72(sp)
ffffffc05030760c:	6406                	ld	s0,64(sp)
ffffffc05030760e:	6161                	addi	sp,sp,80
ffffffc050307610:	8082                	ret

ffffffc050307612 <plic_init>:
ffffffc050307612:	7179                	addi	sp,sp,-48
ffffffc050307614:	f406                	sd	ra,40(sp)
ffffffc050307616:	f022                	sd	s0,32(sp)
ffffffc050307618:	1800                	addi	s0,sp,48
ffffffc05030761a:	fca43c23          	sd	a0,-40(s0)
ffffffc05030761e:	87ae                	mv	a5,a1
ffffffc050307620:	fcf42a23          	sw	a5,-44(s0)
ffffffc050307624:	fd843703          	ld	a4,-40(s0)
ffffffc050307628:	00032797          	auipc	a5,0x32
ffffffc05030762c:	ea078793          	addi	a5,a5,-352 # ffffffc0503394c8 <plic_regs>
ffffffc050307630:	e398                	sd	a4,0(a5)
ffffffc050307632:	fe042423          	sw	zero,-24(s0)
ffffffc050307636:	00041797          	auipc	a5,0x41
ffffffc05030763a:	90a78793          	addi	a5,a5,-1782 # ffffffc050347f40 <plic_handlers>
ffffffc05030763e:	fef43023          	sd	a5,-32(s0)
ffffffc050307642:	fe043783          	ld	a5,-32(s0)
ffffffc050307646:	0007c783          	lbu	a5,0(a5)
ffffffc05030764a:	cb99                	beqz	a5,ffffffc050307660 <plic_init+0x4e>
ffffffc05030764c:	00004517          	auipc	a0,0x4
ffffffc050307650:	3ec50513          	addi	a0,a0,1004 # ffffffc05030ba38 <__FUNCTION__.1991+0x7d8>
ffffffc050307654:	57c030ef          	jal	ra,ffffffc05030abd0 <printk>
ffffffc050307658:	57fd                	li	a5,-1
ffffffc05030765a:	fef42423          	sw	a5,-24(s0)
ffffffc05030765e:	a81d                	j	ffffffc050307694 <plic_init+0x82>
ffffffc050307660:	fe043783          	ld	a5,-32(s0)
ffffffc050307664:	4705                	li	a4,1
ffffffc050307666:	00e78023          	sb	a4,0(a5)
ffffffc05030766a:	00032797          	auipc	a5,0x32
ffffffc05030766e:	e5e78793          	addi	a5,a5,-418 # ffffffc0503394c8 <plic_regs>
ffffffc050307672:	6398                	ld	a4,0(a5)
ffffffc050307674:	002007b7          	lui	a5,0x200
ffffffc050307678:	973e                	add	a4,a4,a5
ffffffc05030767a:	fe043783          	ld	a5,-32(s0)
ffffffc05030767e:	e798                	sd	a4,8(a5)
ffffffc050307680:	00032797          	auipc	a5,0x32
ffffffc050307684:	e4878793          	addi	a5,a5,-440 # ffffffc0503394c8 <plic_regs>
ffffffc050307688:	6398                	ld	a4,0(a5)
ffffffc05030768a:	6789                	lui	a5,0x2
ffffffc05030768c:	973e                	add	a4,a4,a5
ffffffc05030768e:	fe043783          	ld	a5,-32(s0)
ffffffc050307692:	eb98                	sd	a4,16(a5)
ffffffc050307694:	fe043783          	ld	a5,-32(s0)
ffffffc050307698:	6798                	ld	a4,8(a5)
ffffffc05030769a:	fe842783          	lw	a5,-24(s0)
ffffffc05030769e:	85ba                	mv	a1,a4
ffffffc0503076a0:	853e                	mv	a0,a5
ffffffc0503076a2:	cefff0ef          	jal	ra,ffffffc050307390 <writel>
ffffffc0503076a6:	4785                	li	a5,1
ffffffc0503076a8:	fef42623          	sw	a5,-20(s0)
ffffffc0503076ac:	a831                	j	ffffffc0503076c8 <plic_init+0xb6>
ffffffc0503076ae:	fec42783          	lw	a5,-20(s0)
ffffffc0503076b2:	4605                	li	a2,1
ffffffc0503076b4:	85be                	mv	a1,a5
ffffffc0503076b6:	fe043503          	ld	a0,-32(s0)
ffffffc0503076ba:	d21ff0ef          	jal	ra,ffffffc0503073da <plic_toggle>
ffffffc0503076be:	fec42783          	lw	a5,-20(s0)
ffffffc0503076c2:	2785                	addiw	a5,a5,1
ffffffc0503076c4:	fef42623          	sw	a5,-20(s0)
ffffffc0503076c8:	fec42703          	lw	a4,-20(s0)
ffffffc0503076cc:	fd442783          	lw	a5,-44(s0)
ffffffc0503076d0:	2781                	sext.w	a5,a5
ffffffc0503076d2:	fce7fee3          	bgeu	a5,a4,ffffffc0503076ae <plic_init+0x9c>
ffffffc0503076d6:	02100513          	li	a0,33
ffffffc0503076da:	db9ff0ef          	jal	ra,ffffffc050307492 <plic_irq_unmask>
ffffffc0503076de:	4781                	li	a5,0
ffffffc0503076e0:	853e                	mv	a0,a5
ffffffc0503076e2:	70a2                	ld	ra,40(sp)
ffffffc0503076e4:	7402                	ld	s0,32(sp)
ffffffc0503076e6:	6145                	addi	sp,sp,48
ffffffc0503076e8:	8082                	ret

ffffffc0503076ea <init_list_head>:
ffffffc0503076ea:	1101                	addi	sp,sp,-32
ffffffc0503076ec:	ec22                	sd	s0,24(sp)
ffffffc0503076ee:	1000                	addi	s0,sp,32
ffffffc0503076f0:	fea43423          	sd	a0,-24(s0)
ffffffc0503076f4:	fe843783          	ld	a5,-24(s0)
ffffffc0503076f8:	fe843703          	ld	a4,-24(s0)
ffffffc0503076fc:	e398                	sd	a4,0(a5)
ffffffc0503076fe:	fe843783          	ld	a5,-24(s0)
ffffffc050307702:	fe843703          	ld	a4,-24(s0)
ffffffc050307706:	e798                	sd	a4,8(a5)
ffffffc050307708:	0001                	nop
ffffffc05030770a:	6462                	ld	s0,24(sp)
ffffffc05030770c:	6105                	addi	sp,sp,32
ffffffc05030770e:	8082                	ret

ffffffc050307710 <list_empty>:
ffffffc050307710:	1101                	addi	sp,sp,-32
ffffffc050307712:	ec22                	sd	s0,24(sp)
ffffffc050307714:	1000                	addi	s0,sp,32
ffffffc050307716:	fea43423          	sd	a0,-24(s0)
ffffffc05030771a:	fe843783          	ld	a5,-24(s0)
ffffffc05030771e:	639c                	ld	a5,0(a5)
ffffffc050307720:	fe843703          	ld	a4,-24(s0)
ffffffc050307724:	40f707b3          	sub	a5,a4,a5
ffffffc050307728:	0017b793          	seqz	a5,a5
ffffffc05030772c:	0ff7f793          	andi	a5,a5,255
ffffffc050307730:	2781                	sext.w	a5,a5
ffffffc050307732:	853e                	mv	a0,a5
ffffffc050307734:	6462                	ld	s0,24(sp)
ffffffc050307736:	6105                	addi	sp,sp,32
ffffffc050307738:	8082                	ret

ffffffc05030773a <spin_lock_init>:
ffffffc05030773a:	1101                	addi	sp,sp,-32
ffffffc05030773c:	ec22                	sd	s0,24(sp)
ffffffc05030773e:	1000                	addi	s0,sp,32
ffffffc050307740:	fea43423          	sd	a0,-24(s0)
ffffffc050307744:	0001                	nop
ffffffc050307746:	6462                	ld	s0,24(sp)
ffffffc050307748:	6105                	addi	sp,sp,32
ffffffc05030774a:	8082                	ret

ffffffc05030774c <spin_lock_try_acquire>:
ffffffc05030774c:	1101                	addi	sp,sp,-32
ffffffc05030774e:	ec22                	sd	s0,24(sp)
ffffffc050307750:	1000                	addi	s0,sp,32
ffffffc050307752:	fea43423          	sd	a0,-24(s0)
ffffffc050307756:	0001                	nop
ffffffc050307758:	853e                	mv	a0,a5
ffffffc05030775a:	6462                	ld	s0,24(sp)
ffffffc05030775c:	6105                	addi	sp,sp,32
ffffffc05030775e:	8082                	ret

ffffffc050307760 <spin_lock_acquire>:
ffffffc050307760:	1101                	addi	sp,sp,-32
ffffffc050307762:	ec22                	sd	s0,24(sp)
ffffffc050307764:	1000                	addi	s0,sp,32
ffffffc050307766:	fea43423          	sd	a0,-24(s0)
ffffffc05030776a:	0001                	nop
ffffffc05030776c:	6462                	ld	s0,24(sp)
ffffffc05030776e:	6105                	addi	sp,sp,32
ffffffc050307770:	8082                	ret

ffffffc050307772 <spin_lock_release>:
ffffffc050307772:	1101                	addi	sp,sp,-32
ffffffc050307774:	ec22                	sd	s0,24(sp)
ffffffc050307776:	1000                	addi	s0,sp,32
ffffffc050307778:	fea43423          	sd	a0,-24(s0)
ffffffc05030777c:	0001                	nop
ffffffc05030777e:	6462                	ld	s0,24(sp)
ffffffc050307780:	6105                	addi	sp,sp,32
ffffffc050307782:	8082                	ret

ffffffc050307784 <do_mutex_lock_init>:
ffffffc050307784:	1101                	addi	sp,sp,-32
ffffffc050307786:	ec06                	sd	ra,24(sp)
ffffffc050307788:	e822                	sd	s0,16(sp)
ffffffc05030778a:	1000                	addi	s0,sp,32
ffffffc05030778c:	fea43423          	sd	a0,-24(s0)
ffffffc050307790:	fe843783          	ld	a5,-24(s0)
ffffffc050307794:	0007a023          	sw	zero,0(a5) # 2000 <_start-0xffffffc0502fe000>
ffffffc050307798:	fe843783          	ld	a5,-24(s0)
ffffffc05030779c:	07a1                	addi	a5,a5,8
ffffffc05030779e:	853e                	mv	a0,a5
ffffffc0503077a0:	f4bff0ef          	jal	ra,ffffffc0503076ea <init_list_head>
ffffffc0503077a4:	0001                	nop
ffffffc0503077a6:	60e2                	ld	ra,24(sp)
ffffffc0503077a8:	6442                	ld	s0,16(sp)
ffffffc0503077aa:	6105                	addi	sp,sp,32
ffffffc0503077ac:	8082                	ret

ffffffc0503077ae <do_mutex_lock_acquire>:
ffffffc0503077ae:	7179                	addi	sp,sp,-48
ffffffc0503077b0:	f406                	sd	ra,40(sp)
ffffffc0503077b2:	f022                	sd	s0,32(sp)
ffffffc0503077b4:	1800                	addi	s0,sp,48
ffffffc0503077b6:	fca43c23          	sd	a0,-40(s0)
ffffffc0503077ba:	afbf80ef          	jal	ra,ffffffc0503002b4 <get_current_cpu_id>
ffffffc0503077be:	fea43423          	sd	a0,-24(s0)
ffffffc0503077c2:	fd843783          	ld	a5,-40(s0)
ffffffc0503077c6:	439c                	lw	a5,0(a5)
ffffffc0503077c8:	2781                	sext.w	a5,a5
ffffffc0503077ca:	873e                	mv	a4,a5
ffffffc0503077cc:	4785                	li	a5,1
ffffffc0503077ce:	02f71563          	bne	a4,a5,ffffffc0503077f8 <do_mutex_lock_acquire+0x4a>
ffffffc0503077d2:	00041717          	auipc	a4,0x41
ffffffc0503077d6:	dc670713          	addi	a4,a4,-570 # ffffffc050348598 <current_running>
ffffffc0503077da:	fe843783          	ld	a5,-24(s0)
ffffffc0503077de:	078e                	slli	a5,a5,0x3
ffffffc0503077e0:	97ba                	add	a5,a5,a4
ffffffc0503077e2:	639c                	ld	a5,0(a5)
ffffffc0503077e4:	02878713          	addi	a4,a5,40
ffffffc0503077e8:	fd843783          	ld	a5,-40(s0)
ffffffc0503077ec:	07a1                	addi	a5,a5,8
ffffffc0503077ee:	85be                	mv	a1,a5
ffffffc0503077f0:	853a                	mv	a0,a4
ffffffc0503077f2:	45d000ef          	jal	ra,ffffffc05030844e <do_block>
ffffffc0503077f6:	a0a1                	j	ffffffc05030783e <do_mutex_lock_acquire+0x90>
ffffffc0503077f8:	fd843783          	ld	a5,-40(s0)
ffffffc0503077fc:	4705                	li	a4,1
ffffffc0503077fe:	c398                	sw	a4,0(a5)
ffffffc050307800:	00041717          	auipc	a4,0x41
ffffffc050307804:	d9870713          	addi	a4,a4,-616 # ffffffc050348598 <current_running>
ffffffc050307808:	fe843783          	ld	a5,-24(s0)
ffffffc05030780c:	078e                	slli	a5,a5,0x3
ffffffc05030780e:	97ba                	add	a5,a5,a4
ffffffc050307810:	6394                	ld	a3,0(a5)
ffffffc050307812:	00041717          	auipc	a4,0x41
ffffffc050307816:	d8670713          	addi	a4,a4,-634 # ffffffc050348598 <current_running>
ffffffc05030781a:	fe843783          	ld	a5,-24(s0)
ffffffc05030781e:	078e                	slli	a5,a5,0x3
ffffffc050307820:	97ba                	add	a5,a5,a4
ffffffc050307822:	6398                	ld	a4,0(a5)
ffffffc050307824:	08872783          	lw	a5,136(a4)
ffffffc050307828:	0017861b          	addiw	a2,a5,1
ffffffc05030782c:	2601                	sext.w	a2,a2
ffffffc05030782e:	08c72423          	sw	a2,136(a4)
ffffffc050307832:	07c9                	addi	a5,a5,18
ffffffc050307834:	078e                	slli	a5,a5,0x3
ffffffc050307836:	97b6                	add	a5,a5,a3
ffffffc050307838:	fd843703          	ld	a4,-40(s0)
ffffffc05030783c:	e398                	sd	a4,0(a5)
ffffffc05030783e:	0001                	nop
ffffffc050307840:	70a2                	ld	ra,40(sp)
ffffffc050307842:	7402                	ld	s0,32(sp)
ffffffc050307844:	6145                	addi	sp,sp,48
ffffffc050307846:	8082                	ret

ffffffc050307848 <do_mutex_lock_release>:
ffffffc050307848:	7179                	addi	sp,sp,-48
ffffffc05030784a:	f406                	sd	ra,40(sp)
ffffffc05030784c:	f022                	sd	s0,32(sp)
ffffffc05030784e:	1800                	addi	s0,sp,48
ffffffc050307850:	fca43c23          	sd	a0,-40(s0)
ffffffc050307854:	a61f80ef          	jal	ra,ffffffc0503002b4 <get_current_cpu_id>
ffffffc050307858:	fea43023          	sd	a0,-32(s0)
ffffffc05030785c:	fe042623          	sw	zero,-20(s0)
ffffffc050307860:	a0e1                	j	ffffffc050307928 <do_mutex_lock_release+0xe0>
ffffffc050307862:	00041717          	auipc	a4,0x41
ffffffc050307866:	d3670713          	addi	a4,a4,-714 # ffffffc050348598 <current_running>
ffffffc05030786a:	fe043783          	ld	a5,-32(s0)
ffffffc05030786e:	078e                	slli	a5,a5,0x3
ffffffc050307870:	97ba                	add	a5,a5,a4
ffffffc050307872:	6398                	ld	a4,0(a5)
ffffffc050307874:	fec42783          	lw	a5,-20(s0)
ffffffc050307878:	07c9                	addi	a5,a5,18
ffffffc05030787a:	078e                	slli	a5,a5,0x3
ffffffc05030787c:	97ba                	add	a5,a5,a4
ffffffc05030787e:	639c                	ld	a5,0(a5)
ffffffc050307880:	fd843703          	ld	a4,-40(s0)
ffffffc050307884:	08f71d63          	bne	a4,a5,ffffffc05030791e <do_mutex_lock_release+0xd6>
ffffffc050307888:	fec42783          	lw	a5,-20(s0)
ffffffc05030788c:	2785                	addiw	a5,a5,1
ffffffc05030788e:	fef42423          	sw	a5,-24(s0)
ffffffc050307892:	a0b1                	j	ffffffc0503078de <do_mutex_lock_release+0x96>
ffffffc050307894:	00041717          	auipc	a4,0x41
ffffffc050307898:	d0470713          	addi	a4,a4,-764 # ffffffc050348598 <current_running>
ffffffc05030789c:	fe043783          	ld	a5,-32(s0)
ffffffc0503078a0:	078e                	slli	a5,a5,0x3
ffffffc0503078a2:	97ba                	add	a5,a5,a4
ffffffc0503078a4:	6390                	ld	a2,0(a5)
ffffffc0503078a6:	00041717          	auipc	a4,0x41
ffffffc0503078aa:	cf270713          	addi	a4,a4,-782 # ffffffc050348598 <current_running>
ffffffc0503078ae:	fe043783          	ld	a5,-32(s0)
ffffffc0503078b2:	078e                	slli	a5,a5,0x3
ffffffc0503078b4:	97ba                	add	a5,a5,a4
ffffffc0503078b6:	6394                	ld	a3,0(a5)
ffffffc0503078b8:	fe842783          	lw	a5,-24(s0)
ffffffc0503078bc:	37fd                	addiw	a5,a5,-1
ffffffc0503078be:	2781                	sext.w	a5,a5
ffffffc0503078c0:	fe842703          	lw	a4,-24(s0)
ffffffc0503078c4:	0749                	addi	a4,a4,18
ffffffc0503078c6:	070e                	slli	a4,a4,0x3
ffffffc0503078c8:	9732                	add	a4,a4,a2
ffffffc0503078ca:	6318                	ld	a4,0(a4)
ffffffc0503078cc:	07c9                	addi	a5,a5,18
ffffffc0503078ce:	078e                	slli	a5,a5,0x3
ffffffc0503078d0:	97b6                	add	a5,a5,a3
ffffffc0503078d2:	e398                	sd	a4,0(a5)
ffffffc0503078d4:	fe842783          	lw	a5,-24(s0)
ffffffc0503078d8:	2785                	addiw	a5,a5,1
ffffffc0503078da:	fef42423          	sw	a5,-24(s0)
ffffffc0503078de:	00041717          	auipc	a4,0x41
ffffffc0503078e2:	cba70713          	addi	a4,a4,-838 # ffffffc050348598 <current_running>
ffffffc0503078e6:	fe043783          	ld	a5,-32(s0)
ffffffc0503078ea:	078e                	slli	a5,a5,0x3
ffffffc0503078ec:	97ba                	add	a5,a5,a4
ffffffc0503078ee:	639c                	ld	a5,0(a5)
ffffffc0503078f0:	0887a703          	lw	a4,136(a5)
ffffffc0503078f4:	fe842783          	lw	a5,-24(s0)
ffffffc0503078f8:	2781                	sext.w	a5,a5
ffffffc0503078fa:	f8e7cde3          	blt	a5,a4,ffffffc050307894 <do_mutex_lock_release+0x4c>
ffffffc0503078fe:	00041717          	auipc	a4,0x41
ffffffc050307902:	c9a70713          	addi	a4,a4,-870 # ffffffc050348598 <current_running>
ffffffc050307906:	fe043783          	ld	a5,-32(s0)
ffffffc05030790a:	078e                	slli	a5,a5,0x3
ffffffc05030790c:	97ba                	add	a5,a5,a4
ffffffc05030790e:	639c                	ld	a5,0(a5)
ffffffc050307910:	0887a703          	lw	a4,136(a5)
ffffffc050307914:	377d                	addiw	a4,a4,-1
ffffffc050307916:	2701                	sext.w	a4,a4
ffffffc050307918:	08e7a423          	sw	a4,136(a5)
ffffffc05030791c:	a035                	j	ffffffc050307948 <do_mutex_lock_release+0x100>
ffffffc05030791e:	fec42783          	lw	a5,-20(s0)
ffffffc050307922:	2785                	addiw	a5,a5,1
ffffffc050307924:	fef42623          	sw	a5,-20(s0)
ffffffc050307928:	00041717          	auipc	a4,0x41
ffffffc05030792c:	c7070713          	addi	a4,a4,-912 # ffffffc050348598 <current_running>
ffffffc050307930:	fe043783          	ld	a5,-32(s0)
ffffffc050307934:	078e                	slli	a5,a5,0x3
ffffffc050307936:	97ba                	add	a5,a5,a4
ffffffc050307938:	639c                	ld	a5,0(a5)
ffffffc05030793a:	0887a703          	lw	a4,136(a5)
ffffffc05030793e:	fec42783          	lw	a5,-20(s0)
ffffffc050307942:	2781                	sext.w	a5,a5
ffffffc050307944:	f0e7cfe3          	blt	a5,a4,ffffffc050307862 <do_mutex_lock_release+0x1a>
ffffffc050307948:	fd843783          	ld	a5,-40(s0)
ffffffc05030794c:	07a1                	addi	a5,a5,8
ffffffc05030794e:	853e                	mv	a0,a5
ffffffc050307950:	dc1ff0ef          	jal	ra,ffffffc050307710 <list_empty>
ffffffc050307954:	87aa                	mv	a5,a0
ffffffc050307956:	e799                	bnez	a5,ffffffc050307964 <do_mutex_lock_release+0x11c>
ffffffc050307958:	fd843783          	ld	a5,-40(s0)
ffffffc05030795c:	6b9c                	ld	a5,16(a5)
ffffffc05030795e:	853e                	mv	a0,a5
ffffffc050307960:	335000ef          	jal	ra,ffffffc050308494 <do_unblock>
ffffffc050307964:	fd843783          	ld	a5,-40(s0)
ffffffc050307968:	0007a023          	sw	zero,0(a5)
ffffffc05030796c:	7d0000ef          	jal	ra,ffffffc05030813c <do_scheduler>
ffffffc050307970:	0001                	nop
ffffffc050307972:	70a2                	ld	ra,40(sp)
ffffffc050307974:	7402                	ld	s0,32(sp)
ffffffc050307976:	6145                	addi	sp,sp,48
ffffffc050307978:	8082                	ret

ffffffc05030797a <init_list_head>:
ffffffc05030797a:	1101                	addi	sp,sp,-32
ffffffc05030797c:	ec22                	sd	s0,24(sp)
ffffffc05030797e:	1000                	addi	s0,sp,32
ffffffc050307980:	fea43423          	sd	a0,-24(s0)
ffffffc050307984:	fe843783          	ld	a5,-24(s0)
ffffffc050307988:	fe843703          	ld	a4,-24(s0)
ffffffc05030798c:	e398                	sd	a4,0(a5)
ffffffc05030798e:	fe843783          	ld	a5,-24(s0)
ffffffc050307992:	fe843703          	ld	a4,-24(s0)
ffffffc050307996:	e798                	sd	a4,8(a5)
ffffffc050307998:	0001                	nop
ffffffc05030799a:	6462                	ld	s0,24(sp)
ffffffc05030799c:	6105                	addi	sp,sp,32
ffffffc05030799e:	8082                	ret

ffffffc0503079a0 <_list_add>:
ffffffc0503079a0:	7179                	addi	sp,sp,-48
ffffffc0503079a2:	f422                	sd	s0,40(sp)
ffffffc0503079a4:	1800                	addi	s0,sp,48
ffffffc0503079a6:	fea43423          	sd	a0,-24(s0)
ffffffc0503079aa:	feb43023          	sd	a1,-32(s0)
ffffffc0503079ae:	fcc43c23          	sd	a2,-40(s0)
ffffffc0503079b2:	fd843783          	ld	a5,-40(s0)
ffffffc0503079b6:	fe843703          	ld	a4,-24(s0)
ffffffc0503079ba:	e798                	sd	a4,8(a5)
ffffffc0503079bc:	fe843783          	ld	a5,-24(s0)
ffffffc0503079c0:	fd843703          	ld	a4,-40(s0)
ffffffc0503079c4:	e398                	sd	a4,0(a5)
ffffffc0503079c6:	fe843783          	ld	a5,-24(s0)
ffffffc0503079ca:	fe043703          	ld	a4,-32(s0)
ffffffc0503079ce:	e798                	sd	a4,8(a5)
ffffffc0503079d0:	fe043783          	ld	a5,-32(s0)
ffffffc0503079d4:	fe843703          	ld	a4,-24(s0)
ffffffc0503079d8:	e398                	sd	a4,0(a5)
ffffffc0503079da:	0001                	nop
ffffffc0503079dc:	7422                	ld	s0,40(sp)
ffffffc0503079de:	6145                	addi	sp,sp,48
ffffffc0503079e0:	8082                	ret

ffffffc0503079e2 <list_add_tail>:
ffffffc0503079e2:	1101                	addi	sp,sp,-32
ffffffc0503079e4:	ec06                	sd	ra,24(sp)
ffffffc0503079e6:	e822                	sd	s0,16(sp)
ffffffc0503079e8:	1000                	addi	s0,sp,32
ffffffc0503079ea:	fea43423          	sd	a0,-24(s0)
ffffffc0503079ee:	feb43023          	sd	a1,-32(s0)
ffffffc0503079f2:	fe043783          	ld	a5,-32(s0)
ffffffc0503079f6:	679c                	ld	a5,8(a5)
ffffffc0503079f8:	fe043603          	ld	a2,-32(s0)
ffffffc0503079fc:	85be                	mv	a1,a5
ffffffc0503079fe:	fe843503          	ld	a0,-24(s0)
ffffffc050307a02:	f9fff0ef          	jal	ra,ffffffc0503079a0 <_list_add>
ffffffc050307a06:	0001                	nop
ffffffc050307a08:	60e2                	ld	ra,24(sp)
ffffffc050307a0a:	6442                	ld	s0,16(sp)
ffffffc050307a0c:	6105                	addi	sp,sp,32
ffffffc050307a0e:	8082                	ret

ffffffc050307a10 <list_empty>:
ffffffc050307a10:	1101                	addi	sp,sp,-32
ffffffc050307a12:	ec22                	sd	s0,24(sp)
ffffffc050307a14:	1000                	addi	s0,sp,32
ffffffc050307a16:	fea43423          	sd	a0,-24(s0)
ffffffc050307a1a:	fe843783          	ld	a5,-24(s0)
ffffffc050307a1e:	639c                	ld	a5,0(a5)
ffffffc050307a20:	fe843703          	ld	a4,-24(s0)
ffffffc050307a24:	40f707b3          	sub	a5,a4,a5
ffffffc050307a28:	0017b793          	seqz	a5,a5
ffffffc050307a2c:	0ff7f793          	andi	a5,a5,255
ffffffc050307a30:	2781                	sext.w	a5,a5
ffffffc050307a32:	853e                	mv	a0,a5
ffffffc050307a34:	6462                	ld	s0,24(sp)
ffffffc050307a36:	6105                	addi	sp,sp,32
ffffffc050307a38:	8082                	ret

ffffffc050307a3a <_panic>:
ffffffc050307a3a:	7179                	addi	sp,sp,-48
ffffffc050307a3c:	f406                	sd	ra,40(sp)
ffffffc050307a3e:	f022                	sd	s0,32(sp)
ffffffc050307a40:	1800                	addi	s0,sp,48
ffffffc050307a42:	fea43423          	sd	a0,-24(s0)
ffffffc050307a46:	87ae                	mv	a5,a1
ffffffc050307a48:	fcc43c23          	sd	a2,-40(s0)
ffffffc050307a4c:	fef42223          	sw	a5,-28(s0)
ffffffc050307a50:	fe442783          	lw	a5,-28(s0)
ffffffc050307a54:	86be                	mv	a3,a5
ffffffc050307a56:	fe843603          	ld	a2,-24(s0)
ffffffc050307a5a:	fd843583          	ld	a1,-40(s0)
ffffffc050307a5e:	00004517          	auipc	a0,0x4
ffffffc050307a62:	ffa50513          	addi	a0,a0,-6 # ffffffc05030ba58 <__FUNCTION__.1991+0x7f8>
ffffffc050307a66:	16a030ef          	jal	ra,ffffffc05030abd0 <printk>
ffffffc050307a6a:	a001                	j	ffffffc050307a6a <_panic+0x30>

ffffffc050307a6c <init_system_futex>:
ffffffc050307a6c:	1101                	addi	sp,sp,-32
ffffffc050307a6e:	ec06                	sd	ra,24(sp)
ffffffc050307a70:	e822                	sd	s0,16(sp)
ffffffc050307a72:	1000                	addi	s0,sp,32
ffffffc050307a74:	e24f80ef          	jal	ra,ffffffc050300098 <disable_preempt>
ffffffc050307a78:	fe042623          	sw	zero,-20(s0)
ffffffc050307a7c:	a015                	j	ffffffc050307aa0 <init_system_futex+0x34>
ffffffc050307a7e:	fec42783          	lw	a5,-20(s0)
ffffffc050307a82:	00479713          	slli	a4,a5,0x4
ffffffc050307a86:	00040797          	auipc	a5,0x40
ffffffc050307a8a:	4d278793          	addi	a5,a5,1234 # ffffffc050347f58 <futex_buckets>
ffffffc050307a8e:	97ba                	add	a5,a5,a4
ffffffc050307a90:	853e                	mv	a0,a5
ffffffc050307a92:	ee9ff0ef          	jal	ra,ffffffc05030797a <init_list_head>
ffffffc050307a96:	fec42783          	lw	a5,-20(s0)
ffffffc050307a9a:	2785                	addiw	a5,a5,1
ffffffc050307a9c:	fef42623          	sw	a5,-20(s0)
ffffffc050307aa0:	fec42783          	lw	a5,-20(s0)
ffffffc050307aa4:	0007871b          	sext.w	a4,a5
ffffffc050307aa8:	06300793          	li	a5,99
ffffffc050307aac:	fce7d9e3          	bge	a5,a4,ffffffc050307a7e <init_system_futex+0x12>
ffffffc050307ab0:	de4f80ef          	jal	ra,ffffffc050300094 <enable_preempt>
ffffffc050307ab4:	0001                	nop
ffffffc050307ab6:	60e2                	ld	ra,24(sp)
ffffffc050307ab8:	6442                	ld	s0,16(sp)
ffffffc050307aba:	6105                	addi	sp,sp,32
ffffffc050307abc:	8082                	ret

ffffffc050307abe <futex_hash>:
ffffffc050307abe:	1101                	addi	sp,sp,-32
ffffffc050307ac0:	ec22                	sd	s0,24(sp)
ffffffc050307ac2:	1000                	addi	s0,sp,32
ffffffc050307ac4:	fea43423          	sd	a0,-24(s0)
ffffffc050307ac8:	fe843783          	ld	a5,-24(s0)
ffffffc050307acc:	01e7d713          	srli	a4,a5,0x1e
ffffffc050307ad0:	fe843783          	ld	a5,-24(s0)
ffffffc050307ad4:	8f3d                	xor	a4,a4,a5
ffffffc050307ad6:	00004797          	auipc	a5,0x4
ffffffc050307ada:	fda78793          	addi	a5,a5,-38 # ffffffc05030bab0 <__FUNCTION__.1399+0x10>
ffffffc050307ade:	639c                	ld	a5,0(a5)
ffffffc050307ae0:	02f707b3          	mul	a5,a4,a5
ffffffc050307ae4:	fef43423          	sd	a5,-24(s0)
ffffffc050307ae8:	fe843783          	ld	a5,-24(s0)
ffffffc050307aec:	01b7d713          	srli	a4,a5,0x1b
ffffffc050307af0:	fe843783          	ld	a5,-24(s0)
ffffffc050307af4:	8f3d                	xor	a4,a4,a5
ffffffc050307af6:	00004797          	auipc	a5,0x4
ffffffc050307afa:	fc278793          	addi	a5,a5,-62 # ffffffc05030bab8 <__FUNCTION__.1399+0x18>
ffffffc050307afe:	639c                	ld	a5,0(a5)
ffffffc050307b00:	02f707b3          	mul	a5,a4,a5
ffffffc050307b04:	fef43423          	sd	a5,-24(s0)
ffffffc050307b08:	fe843783          	ld	a5,-24(s0)
ffffffc050307b0c:	83fd                	srli	a5,a5,0x1f
ffffffc050307b0e:	fe843703          	ld	a4,-24(s0)
ffffffc050307b12:	8fb9                	xor	a5,a5,a4
ffffffc050307b14:	fef43423          	sd	a5,-24(s0)
ffffffc050307b18:	fe843703          	ld	a4,-24(s0)
ffffffc050307b1c:	06400793          	li	a5,100
ffffffc050307b20:	02f777b3          	remu	a5,a4,a5
ffffffc050307b24:	2781                	sext.w	a5,a5
ffffffc050307b26:	853e                	mv	a0,a5
ffffffc050307b28:	6462                	ld	s0,24(sp)
ffffffc050307b2a:	6105                	addi	sp,sp,32
ffffffc050307b2c:	8082                	ret

ffffffc050307b2e <get_node>:
ffffffc050307b2e:	715d                	addi	sp,sp,-80
ffffffc050307b30:	e486                	sd	ra,72(sp)
ffffffc050307b32:	e0a2                	sd	s0,64(sp)
ffffffc050307b34:	0880                	addi	s0,sp,80
ffffffc050307b36:	faa43c23          	sd	a0,-72(s0)
ffffffc050307b3a:	87ae                	mv	a5,a1
ffffffc050307b3c:	faf42a23          	sw	a5,-76(s0)
ffffffc050307b40:	fb843783          	ld	a5,-72(s0)
ffffffc050307b44:	853e                	mv	a0,a5
ffffffc050307b46:	f79ff0ef          	jal	ra,ffffffc050307abe <futex_hash>
ffffffc050307b4a:	87aa                	mv	a5,a0
ffffffc050307b4c:	fef42223          	sw	a5,-28(s0)
ffffffc050307b50:	fe442783          	lw	a5,-28(s0)
ffffffc050307b54:	00479713          	slli	a4,a5,0x4
ffffffc050307b58:	00040797          	auipc	a5,0x40
ffffffc050307b5c:	40078793          	addi	a5,a5,1024 # ffffffc050347f58 <futex_buckets>
ffffffc050307b60:	97ba                	add	a5,a5,a4
ffffffc050307b62:	fcf43c23          	sd	a5,-40(s0)
ffffffc050307b66:	fd843783          	ld	a5,-40(s0)
ffffffc050307b6a:	639c                	ld	a5,0(a5)
ffffffc050307b6c:	fef43423          	sd	a5,-24(s0)
ffffffc050307b70:	a80d                	j	ffffffc050307ba2 <get_node+0x74>
ffffffc050307b72:	fe843783          	ld	a5,-24(s0)
ffffffc050307b76:	fcf43423          	sd	a5,-56(s0)
ffffffc050307b7a:	fc843783          	ld	a5,-56(s0)
ffffffc050307b7e:	17e1                	addi	a5,a5,-8
ffffffc050307b80:	fcf43023          	sd	a5,-64(s0)
ffffffc050307b84:	fc043783          	ld	a5,-64(s0)
ffffffc050307b88:	6398                	ld	a4,0(a5)
ffffffc050307b8a:	fb843783          	ld	a5,-72(s0)
ffffffc050307b8e:	00f71563          	bne	a4,a5,ffffffc050307b98 <get_node+0x6a>
ffffffc050307b92:	fc043783          	ld	a5,-64(s0)
ffffffc050307b96:	a0b5                	j	ffffffc050307c02 <get_node+0xd4>
ffffffc050307b98:	fe843783          	ld	a5,-24(s0)
ffffffc050307b9c:	639c                	ld	a5,0(a5)
ffffffc050307b9e:	fef43423          	sd	a5,-24(s0)
ffffffc050307ba2:	fe843703          	ld	a4,-24(s0)
ffffffc050307ba6:	fd843783          	ld	a5,-40(s0)
ffffffc050307baa:	fcf714e3          	bne	a4,a5,ffffffc050307b72 <get_node+0x44>
ffffffc050307bae:	fb442783          	lw	a5,-76(s0)
ffffffc050307bb2:	2781                	sext.w	a5,a5
ffffffc050307bb4:	c7b1                	beqz	a5,ffffffc050307c00 <get_node+0xd2>
ffffffc050307bb6:	02800513          	li	a0,40
ffffffc050307bba:	090020ef          	jal	ra,ffffffc050309c4a <kmalloc>
ffffffc050307bbe:	fca43823          	sd	a0,-48(s0)
ffffffc050307bc2:	fb843703          	ld	a4,-72(s0)
ffffffc050307bc6:	fd043783          	ld	a5,-48(s0)
ffffffc050307bca:	e398                	sd	a4,0(a5)
ffffffc050307bcc:	fd043783          	ld	a5,-48(s0)
ffffffc050307bd0:	07e1                	addi	a5,a5,24
ffffffc050307bd2:	853e                	mv	a0,a5
ffffffc050307bd4:	da7ff0ef          	jal	ra,ffffffc05030797a <init_list_head>
ffffffc050307bd8:	fd043783          	ld	a5,-48(s0)
ffffffc050307bdc:	00878693          	addi	a3,a5,8
ffffffc050307be0:	fe442783          	lw	a5,-28(s0)
ffffffc050307be4:	00479713          	slli	a4,a5,0x4
ffffffc050307be8:	00040797          	auipc	a5,0x40
ffffffc050307bec:	37078793          	addi	a5,a5,880 # ffffffc050347f58 <futex_buckets>
ffffffc050307bf0:	97ba                	add	a5,a5,a4
ffffffc050307bf2:	85be                	mv	a1,a5
ffffffc050307bf4:	8536                	mv	a0,a3
ffffffc050307bf6:	dedff0ef          	jal	ra,ffffffc0503079e2 <list_add_tail>
ffffffc050307bfa:	fd043783          	ld	a5,-48(s0)
ffffffc050307bfe:	a011                	j	ffffffc050307c02 <get_node+0xd4>
ffffffc050307c00:	4781                	li	a5,0
ffffffc050307c02:	853e                	mv	a0,a5
ffffffc050307c04:	60a6                	ld	ra,72(sp)
ffffffc050307c06:	6406                	ld	s0,64(sp)
ffffffc050307c08:	6161                	addi	sp,sp,80
ffffffc050307c0a:	8082                	ret

ffffffc050307c0c <futex_wait>:
ffffffc050307c0c:	7179                	addi	sp,sp,-48
ffffffc050307c0e:	f406                	sd	ra,40(sp)
ffffffc050307c10:	f022                	sd	s0,32(sp)
ffffffc050307c12:	1800                	addi	s0,sp,48
ffffffc050307c14:	fca43c23          	sd	a0,-40(s0)
ffffffc050307c18:	fcb43823          	sd	a1,-48(s0)
ffffffc050307c1c:	c7cf80ef          	jal	ra,ffffffc050300098 <disable_preempt>
ffffffc050307c20:	4585                	li	a1,1
ffffffc050307c22:	fd843503          	ld	a0,-40(s0)
ffffffc050307c26:	f09ff0ef          	jal	ra,ffffffc050307b2e <get_node>
ffffffc050307c2a:	fea43423          	sd	a0,-24(s0)
ffffffc050307c2e:	fe843783          	ld	a5,-24(s0)
ffffffc050307c32:	ef89                	bnez	a5,ffffffc050307c4c <futex_wait+0x40>
ffffffc050307c34:	00004617          	auipc	a2,0x4
ffffffc050307c38:	e6c60613          	addi	a2,a2,-404 # ffffffc05030baa0 <__FUNCTION__.1399>
ffffffc050307c3c:	03500593          	li	a1,53
ffffffc050307c40:	00004517          	auipc	a0,0x4
ffffffc050307c44:	e4050513          	addi	a0,a0,-448 # ffffffc05030ba80 <__FUNCTION__.1991+0x820>
ffffffc050307c48:	df3ff0ef          	jal	ra,ffffffc050307a3a <_panic>
ffffffc050307c4c:	e68f80ef          	jal	ra,ffffffc0503002b4 <get_current_cpu_id>
ffffffc050307c50:	fea43023          	sd	a0,-32(s0)
ffffffc050307c54:	fd843783          	ld	a5,-40(s0)
ffffffc050307c58:	639c                	ld	a5,0(a5)
ffffffc050307c5a:	fd043703          	ld	a4,-48(s0)
ffffffc050307c5e:	02f71463          	bne	a4,a5,ffffffc050307c86 <futex_wait+0x7a>
ffffffc050307c62:	00041717          	auipc	a4,0x41
ffffffc050307c66:	93670713          	addi	a4,a4,-1738 # ffffffc050348598 <current_running>
ffffffc050307c6a:	fe043783          	ld	a5,-32(s0)
ffffffc050307c6e:	078e                	slli	a5,a5,0x3
ffffffc050307c70:	97ba                	add	a5,a5,a4
ffffffc050307c72:	639c                	ld	a5,0(a5)
ffffffc050307c74:	02878713          	addi	a4,a5,40
ffffffc050307c78:	fe843783          	ld	a5,-24(s0)
ffffffc050307c7c:	07e1                	addi	a5,a5,24
ffffffc050307c7e:	85be                	mv	a1,a5
ffffffc050307c80:	853a                	mv	a0,a4
ffffffc050307c82:	7cc000ef          	jal	ra,ffffffc05030844e <do_block>
ffffffc050307c86:	c0ef80ef          	jal	ra,ffffffc050300094 <enable_preempt>
ffffffc050307c8a:	0001                	nop
ffffffc050307c8c:	70a2                	ld	ra,40(sp)
ffffffc050307c8e:	7402                	ld	s0,32(sp)
ffffffc050307c90:	6145                	addi	sp,sp,48
ffffffc050307c92:	8082                	ret

ffffffc050307c94 <futex_wakeup>:
ffffffc050307c94:	7179                	addi	sp,sp,-48
ffffffc050307c96:	f406                	sd	ra,40(sp)
ffffffc050307c98:	f022                	sd	s0,32(sp)
ffffffc050307c9a:	1800                	addi	s0,sp,48
ffffffc050307c9c:	fca43c23          	sd	a0,-40(s0)
ffffffc050307ca0:	87ae                	mv	a5,a1
ffffffc050307ca2:	fcf42a23          	sw	a5,-44(s0)
ffffffc050307ca6:	bf2f80ef          	jal	ra,ffffffc050300098 <disable_preempt>
ffffffc050307caa:	4581                	li	a1,0
ffffffc050307cac:	fd843503          	ld	a0,-40(s0)
ffffffc050307cb0:	e7fff0ef          	jal	ra,ffffffc050307b2e <get_node>
ffffffc050307cb4:	fea43023          	sd	a0,-32(s0)
ffffffc050307cb8:	fe043783          	ld	a5,-32(s0)
ffffffc050307cbc:	c3a9                	beqz	a5,ffffffc050307cfe <futex_wakeup+0x6a>
ffffffc050307cbe:	fe042623          	sw	zero,-20(s0)
ffffffc050307cc2:	a025                	j	ffffffc050307cea <futex_wakeup+0x56>
ffffffc050307cc4:	fe043783          	ld	a5,-32(s0)
ffffffc050307cc8:	07e1                	addi	a5,a5,24
ffffffc050307cca:	853e                	mv	a0,a5
ffffffc050307ccc:	d45ff0ef          	jal	ra,ffffffc050307a10 <list_empty>
ffffffc050307cd0:	87aa                	mv	a5,a0
ffffffc050307cd2:	e78d                	bnez	a5,ffffffc050307cfc <futex_wakeup+0x68>
ffffffc050307cd4:	fe043783          	ld	a5,-32(s0)
ffffffc050307cd8:	6f9c                	ld	a5,24(a5)
ffffffc050307cda:	853e                	mv	a0,a5
ffffffc050307cdc:	7b8000ef          	jal	ra,ffffffc050308494 <do_unblock>
ffffffc050307ce0:	fec42783          	lw	a5,-20(s0)
ffffffc050307ce4:	2785                	addiw	a5,a5,1
ffffffc050307ce6:	fef42623          	sw	a5,-20(s0)
ffffffc050307cea:	fec42703          	lw	a4,-20(s0)
ffffffc050307cee:	fd442783          	lw	a5,-44(s0)
ffffffc050307cf2:	2701                	sext.w	a4,a4
ffffffc050307cf4:	2781                	sext.w	a5,a5
ffffffc050307cf6:	fcf747e3          	blt	a4,a5,ffffffc050307cc4 <futex_wakeup+0x30>
ffffffc050307cfa:	a011                	j	ffffffc050307cfe <futex_wakeup+0x6a>
ffffffc050307cfc:	0001                	nop
ffffffc050307cfe:	43e000ef          	jal	ra,ffffffc05030813c <do_scheduler>
ffffffc050307d02:	b92f80ef          	jal	ra,ffffffc050300094 <enable_preempt>
ffffffc050307d06:	0001                	nop
ffffffc050307d08:	70a2                	ld	ra,40(sp)
ffffffc050307d0a:	7402                	ld	s0,32(sp)
ffffffc050307d0c:	6145                	addi	sp,sp,48
ffffffc050307d0e:	8082                	ret

ffffffc050307d10 <init_list_head>:
ffffffc050307d10:	1101                	addi	sp,sp,-32
ffffffc050307d12:	ec22                	sd	s0,24(sp)
ffffffc050307d14:	1000                	addi	s0,sp,32
ffffffc050307d16:	fea43423          	sd	a0,-24(s0)
ffffffc050307d1a:	fe843783          	ld	a5,-24(s0)
ffffffc050307d1e:	fe843703          	ld	a4,-24(s0)
ffffffc050307d22:	e398                	sd	a4,0(a5)
ffffffc050307d24:	fe843783          	ld	a5,-24(s0)
ffffffc050307d28:	fe843703          	ld	a4,-24(s0)
ffffffc050307d2c:	e798                	sd	a4,8(a5)
ffffffc050307d2e:	0001                	nop
ffffffc050307d30:	6462                	ld	s0,24(sp)
ffffffc050307d32:	6105                	addi	sp,sp,32
ffffffc050307d34:	8082                	ret

ffffffc050307d36 <_list_add>:
ffffffc050307d36:	7179                	addi	sp,sp,-48
ffffffc050307d38:	f422                	sd	s0,40(sp)
ffffffc050307d3a:	1800                	addi	s0,sp,48
ffffffc050307d3c:	fea43423          	sd	a0,-24(s0)
ffffffc050307d40:	feb43023          	sd	a1,-32(s0)
ffffffc050307d44:	fcc43c23          	sd	a2,-40(s0)
ffffffc050307d48:	fd843783          	ld	a5,-40(s0)
ffffffc050307d4c:	fe843703          	ld	a4,-24(s0)
ffffffc050307d50:	e798                	sd	a4,8(a5)
ffffffc050307d52:	fe843783          	ld	a5,-24(s0)
ffffffc050307d56:	fd843703          	ld	a4,-40(s0)
ffffffc050307d5a:	e398                	sd	a4,0(a5)
ffffffc050307d5c:	fe843783          	ld	a5,-24(s0)
ffffffc050307d60:	fe043703          	ld	a4,-32(s0)
ffffffc050307d64:	e798                	sd	a4,8(a5)
ffffffc050307d66:	fe043783          	ld	a5,-32(s0)
ffffffc050307d6a:	fe843703          	ld	a4,-24(s0)
ffffffc050307d6e:	e398                	sd	a4,0(a5)
ffffffc050307d70:	0001                	nop
ffffffc050307d72:	7422                	ld	s0,40(sp)
ffffffc050307d74:	6145                	addi	sp,sp,48
ffffffc050307d76:	8082                	ret

ffffffc050307d78 <_list_del>:
ffffffc050307d78:	1101                	addi	sp,sp,-32
ffffffc050307d7a:	ec22                	sd	s0,24(sp)
ffffffc050307d7c:	1000                	addi	s0,sp,32
ffffffc050307d7e:	fea43423          	sd	a0,-24(s0)
ffffffc050307d82:	feb43023          	sd	a1,-32(s0)
ffffffc050307d86:	fe043783          	ld	a5,-32(s0)
ffffffc050307d8a:	fe843703          	ld	a4,-24(s0)
ffffffc050307d8e:	e798                	sd	a4,8(a5)
ffffffc050307d90:	fe843783          	ld	a5,-24(s0)
ffffffc050307d94:	fe043703          	ld	a4,-32(s0)
ffffffc050307d98:	e398                	sd	a4,0(a5)
ffffffc050307d9a:	0001                	nop
ffffffc050307d9c:	6462                	ld	s0,24(sp)
ffffffc050307d9e:	6105                	addi	sp,sp,32
ffffffc050307da0:	8082                	ret

ffffffc050307da2 <list_del>:
ffffffc050307da2:	1101                	addi	sp,sp,-32
ffffffc050307da4:	ec06                	sd	ra,24(sp)
ffffffc050307da6:	e822                	sd	s0,16(sp)
ffffffc050307da8:	1000                	addi	s0,sp,32
ffffffc050307daa:	fea43423          	sd	a0,-24(s0)
ffffffc050307dae:	fe843783          	ld	a5,-24(s0)
ffffffc050307db2:	679c                	ld	a5,8(a5)
ffffffc050307db4:	c79d                	beqz	a5,ffffffc050307de2 <list_del+0x40>
ffffffc050307db6:	fe843783          	ld	a5,-24(s0)
ffffffc050307dba:	639c                	ld	a5,0(a5)
ffffffc050307dbc:	c39d                	beqz	a5,ffffffc050307de2 <list_del+0x40>
ffffffc050307dbe:	fe843783          	ld	a5,-24(s0)
ffffffc050307dc2:	6798                	ld	a4,8(a5)
ffffffc050307dc4:	fe843783          	ld	a5,-24(s0)
ffffffc050307dc8:	639c                	ld	a5,0(a5)
ffffffc050307dca:	85be                	mv	a1,a5
ffffffc050307dcc:	853a                	mv	a0,a4
ffffffc050307dce:	fabff0ef          	jal	ra,ffffffc050307d78 <_list_del>
ffffffc050307dd2:	fe843783          	ld	a5,-24(s0)
ffffffc050307dd6:	0007b423          	sd	zero,8(a5)
ffffffc050307dda:	fe843783          	ld	a5,-24(s0)
ffffffc050307dde:	0007b023          	sd	zero,0(a5)
ffffffc050307de2:	0001                	nop
ffffffc050307de4:	60e2                	ld	ra,24(sp)
ffffffc050307de6:	6442                	ld	s0,16(sp)
ffffffc050307de8:	6105                	addi	sp,sp,32
ffffffc050307dea:	8082                	ret

ffffffc050307dec <list_add>:
ffffffc050307dec:	1101                	addi	sp,sp,-32
ffffffc050307dee:	ec06                	sd	ra,24(sp)
ffffffc050307df0:	e822                	sd	s0,16(sp)
ffffffc050307df2:	1000                	addi	s0,sp,32
ffffffc050307df4:	fea43423          	sd	a0,-24(s0)
ffffffc050307df8:	feb43023          	sd	a1,-32(s0)
ffffffc050307dfc:	fe043783          	ld	a5,-32(s0)
ffffffc050307e00:	639c                	ld	a5,0(a5)
ffffffc050307e02:	863e                	mv	a2,a5
ffffffc050307e04:	fe043583          	ld	a1,-32(s0)
ffffffc050307e08:	fe843503          	ld	a0,-24(s0)
ffffffc050307e0c:	f2bff0ef          	jal	ra,ffffffc050307d36 <_list_add>
ffffffc050307e10:	0001                	nop
ffffffc050307e12:	60e2                	ld	ra,24(sp)
ffffffc050307e14:	6442                	ld	s0,16(sp)
ffffffc050307e16:	6105                	addi	sp,sp,32
ffffffc050307e18:	8082                	ret

ffffffc050307e1a <list_move>:
ffffffc050307e1a:	1101                	addi	sp,sp,-32
ffffffc050307e1c:	ec06                	sd	ra,24(sp)
ffffffc050307e1e:	e822                	sd	s0,16(sp)
ffffffc050307e20:	1000                	addi	s0,sp,32
ffffffc050307e22:	fea43423          	sd	a0,-24(s0)
ffffffc050307e26:	feb43023          	sd	a1,-32(s0)
ffffffc050307e2a:	fe843503          	ld	a0,-24(s0)
ffffffc050307e2e:	f75ff0ef          	jal	ra,ffffffc050307da2 <list_del>
ffffffc050307e32:	fe043583          	ld	a1,-32(s0)
ffffffc050307e36:	fe843503          	ld	a0,-24(s0)
ffffffc050307e3a:	fb3ff0ef          	jal	ra,ffffffc050307dec <list_add>
ffffffc050307e3e:	0001                	nop
ffffffc050307e40:	60e2                	ld	ra,24(sp)
ffffffc050307e42:	6442                	ld	s0,16(sp)
ffffffc050307e44:	6105                	addi	sp,sp,32
ffffffc050307e46:	8082                	ret

ffffffc050307e48 <list_empty>:
ffffffc050307e48:	1101                	addi	sp,sp,-32
ffffffc050307e4a:	ec22                	sd	s0,24(sp)
ffffffc050307e4c:	1000                	addi	s0,sp,32
ffffffc050307e4e:	fea43423          	sd	a0,-24(s0)
ffffffc050307e52:	fe843783          	ld	a5,-24(s0)
ffffffc050307e56:	639c                	ld	a5,0(a5)
ffffffc050307e58:	fe843703          	ld	a4,-24(s0)
ffffffc050307e5c:	40f707b3          	sub	a5,a4,a5
ffffffc050307e60:	0017b793          	seqz	a5,a5
ffffffc050307e64:	0ff7f793          	andi	a5,a5,255
ffffffc050307e68:	2781                	sext.w	a5,a5
ffffffc050307e6a:	853e                	mv	a0,a5
ffffffc050307e6c:	6462                	ld	s0,24(sp)
ffffffc050307e6e:	6105                	addi	sp,sp,32
ffffffc050307e70:	8082                	ret

ffffffc050307e72 <local_flush_tlb_all>:
ffffffc050307e72:	1141                	addi	sp,sp,-16
ffffffc050307e74:	e422                	sd	s0,8(sp)
ffffffc050307e76:	0800                	addi	s0,sp,16
ffffffc050307e78:	12000073          	sfence.vma
ffffffc050307e7c:	0001                	nop
ffffffc050307e7e:	6422                	ld	s0,8(sp)
ffffffc050307e80:	0141                	addi	sp,sp,16
ffffffc050307e82:	8082                	ret

ffffffc050307e84 <set_satp>:
ffffffc050307e84:	7179                	addi	sp,sp,-48
ffffffc050307e86:	f422                	sd	s0,40(sp)
ffffffc050307e88:	1800                	addi	s0,sp,48
ffffffc050307e8a:	87aa                	mv	a5,a0
ffffffc050307e8c:	872e                	mv	a4,a1
ffffffc050307e8e:	fcc43823          	sd	a2,-48(s0)
ffffffc050307e92:	fcf42e23          	sw	a5,-36(s0)
ffffffc050307e96:	87ba                	mv	a5,a4
ffffffc050307e98:	fcf42c23          	sw	a5,-40(s0)
ffffffc050307e9c:	fdc46783          	lwu	a5,-36(s0)
ffffffc050307ea0:	03c79713          	slli	a4,a5,0x3c
ffffffc050307ea4:	fd846783          	lwu	a5,-40(s0)
ffffffc050307ea8:	17b2                	slli	a5,a5,0x2c
ffffffc050307eaa:	8fd9                	or	a5,a5,a4
ffffffc050307eac:	fd043703          	ld	a4,-48(s0)
ffffffc050307eb0:	8fd9                	or	a5,a5,a4
ffffffc050307eb2:	fef43423          	sd	a5,-24(s0)
ffffffc050307eb6:	fe843783          	ld	a5,-24(s0)
ffffffc050307eba:	12000073          	sfence.vma
ffffffc050307ebe:	18079073          	csrw	satp,a5
ffffffc050307ec2:	0001                	nop
ffffffc050307ec4:	7422                	ld	s0,40(sp)
ffffffc050307ec6:	6145                	addi	sp,sp,48
ffffffc050307ec8:	8082                	ret

ffffffc050307eca <clear_pgdir>:
ffffffc050307eca:	7179                	addi	sp,sp,-48
ffffffc050307ecc:	f422                	sd	s0,40(sp)
ffffffc050307ece:	1800                	addi	s0,sp,48
ffffffc050307ed0:	fca43c23          	sd	a0,-40(s0)
ffffffc050307ed4:	fe042623          	sw	zero,-20(s0)
ffffffc050307ed8:	a829                	j	ffffffc050307ef2 <clear_pgdir+0x28>
ffffffc050307eda:	fec42703          	lw	a4,-20(s0)
ffffffc050307ede:	fd843783          	ld	a5,-40(s0)
ffffffc050307ee2:	97ba                	add	a5,a5,a4
ffffffc050307ee4:	0007b023          	sd	zero,0(a5)
ffffffc050307ee8:	fec42783          	lw	a5,-20(s0)
ffffffc050307eec:	27a1                	addiw	a5,a5,8
ffffffc050307eee:	fef42623          	sw	a5,-20(s0)
ffffffc050307ef2:	fec42783          	lw	a5,-20(s0)
ffffffc050307ef6:	873e                	mv	a4,a5
ffffffc050307ef8:	6785                	lui	a5,0x1
ffffffc050307efa:	fef760e3          	bltu	a4,a5,ffffffc050307eda <clear_pgdir+0x10>
ffffffc050307efe:	0001                	nop
ffffffc050307f00:	0001                	nop
ffffffc050307f02:	7422                	ld	s0,40(sp)
ffffffc050307f04:	6145                	addi	sp,sp,48
ffffffc050307f06:	8082                	ret

ffffffc050307f08 <is_elf_format>:
ffffffc050307f08:	7179                	addi	sp,sp,-48
ffffffc050307f0a:	f422                	sd	s0,40(sp)
ffffffc050307f0c:	1800                	addi	s0,sp,48
ffffffc050307f0e:	fca43c23          	sd	a0,-40(s0)
ffffffc050307f12:	fd843783          	ld	a5,-40(s0)
ffffffc050307f16:	fef43423          	sd	a5,-24(s0)
ffffffc050307f1a:	fe843783          	ld	a5,-24(s0)
ffffffc050307f1e:	0007c783          	lbu	a5,0(a5) # 1000 <_start-0xffffffc0502ff000>
ffffffc050307f22:	eb9d                	bnez	a5,ffffffc050307f58 <is_elf_format+0x50>
ffffffc050307f24:	fe843783          	ld	a5,-24(s0)
ffffffc050307f28:	0017c783          	lbu	a5,1(a5)
ffffffc050307f2c:	873e                	mv	a4,a5
ffffffc050307f2e:	4785                	li	a5,1
ffffffc050307f30:	02f71463          	bne	a4,a5,ffffffc050307f58 <is_elf_format+0x50>
ffffffc050307f34:	fe843783          	ld	a5,-24(s0)
ffffffc050307f38:	0027c783          	lbu	a5,2(a5)
ffffffc050307f3c:	873e                	mv	a4,a5
ffffffc050307f3e:	4789                	li	a5,2
ffffffc050307f40:	00f71c63          	bne	a4,a5,ffffffc050307f58 <is_elf_format+0x50>
ffffffc050307f44:	fe843783          	ld	a5,-24(s0)
ffffffc050307f48:	0037c783          	lbu	a5,3(a5)
ffffffc050307f4c:	873e                	mv	a4,a5
ffffffc050307f4e:	478d                	li	a5,3
ffffffc050307f50:	00f71463          	bne	a4,a5,ffffffc050307f58 <is_elf_format+0x50>
ffffffc050307f54:	4781                	li	a5,0
ffffffc050307f56:	a011                	j	ffffffc050307f5a <is_elf_format+0x52>
ffffffc050307f58:	4785                	li	a5,1
ffffffc050307f5a:	853e                	mv	a0,a5
ffffffc050307f5c:	7422                	ld	s0,40(sp)
ffffffc050307f5e:	6145                	addi	sp,sp,48
ffffffc050307f60:	8082                	ret

ffffffc050307f62 <load_elf>:
ffffffc050307f62:	7159                	addi	sp,sp,-112
ffffffc050307f64:	f486                	sd	ra,104(sp)
ffffffc050307f66:	f0a2                	sd	s0,96(sp)
ffffffc050307f68:	1880                	addi	s0,sp,112
ffffffc050307f6a:	faa43423          	sd	a0,-88(s0)
ffffffc050307f6e:	87ae                	mv	a5,a1
ffffffc050307f70:	f8c43c23          	sd	a2,-104(s0)
ffffffc050307f74:	f8d43823          	sd	a3,-112(s0)
ffffffc050307f78:	faf42223          	sw	a5,-92(s0)
ffffffc050307f7c:	fa843783          	ld	a5,-88(s0)
ffffffc050307f80:	fcf43823          	sd	a5,-48(s0)
ffffffc050307f84:	fc043423          	sd	zero,-56(s0)
ffffffc050307f88:	fe043423          	sd	zero,-24(s0)
ffffffc050307f8c:	fe042023          	sw	zero,-32(s0)
ffffffc050307f90:	fa442783          	lw	a5,-92(s0)
ffffffc050307f94:	0007871b          	sext.w	a4,a5
ffffffc050307f98:	478d                	li	a5,3
ffffffc050307f9a:	00e7f863          	bgeu	a5,a4,ffffffc050307faa <load_elf+0x48>
ffffffc050307f9e:	fa843503          	ld	a0,-88(s0)
ffffffc050307fa2:	f67ff0ef          	jal	ra,ffffffc050307f08 <is_elf_format>
ffffffc050307fa6:	87aa                	mv	a5,a0
ffffffc050307fa8:	e399                	bnez	a5,ffffffc050307fae <load_elf+0x4c>
ffffffc050307faa:	4781                	li	a5,0
ffffffc050307fac:	a259                	j	ffffffc050308132 <load_elf+0x1d0>
ffffffc050307fae:	fd043783          	ld	a5,-48(s0)
ffffffc050307fb2:	739c                	ld	a5,32(a5)
ffffffc050307fb4:	fa843703          	ld	a4,-88(s0)
ffffffc050307fb8:	97ba                	add	a5,a5,a4
ffffffc050307fba:	fef43423          	sd	a5,-24(s0)
ffffffc050307fbe:	fd043783          	ld	a5,-48(s0)
ffffffc050307fc2:	0387d783          	lhu	a5,56(a5)
ffffffc050307fc6:	fef41323          	sh	a5,-26(s0)
ffffffc050307fca:	fd043783          	ld	a5,-48(s0)
ffffffc050307fce:	0367d783          	lhu	a5,54(a5)
ffffffc050307fd2:	fcf41323          	sh	a5,-58(s0)
ffffffc050307fd6:	a299                	j	ffffffc05030811c <load_elf+0x1ba>
ffffffc050307fd8:	fe843783          	ld	a5,-24(s0)
ffffffc050307fdc:	fcf43423          	sd	a5,-56(s0)
ffffffc050307fe0:	fc843783          	ld	a5,-56(s0)
ffffffc050307fe4:	439c                	lw	a5,0(a5)
ffffffc050307fe6:	873e                	mv	a4,a5
ffffffc050307fe8:	4785                	li	a5,1
ffffffc050307fea:	12f71263          	bne	a4,a5,ffffffc05030810e <load_elf+0x1ac>
ffffffc050307fee:	fe042023          	sw	zero,-32(s0)
ffffffc050307ff2:	a239                	j	ffffffc050308100 <load_elf+0x19e>
ffffffc050307ff4:	fe042703          	lw	a4,-32(s0)
ffffffc050307ff8:	fc843783          	ld	a5,-56(s0)
ffffffc050307ffc:	739c                	ld	a5,32(a5)
ffffffc050307ffe:	0af77463          	bgeu	a4,a5,ffffffc0503080a6 <load_elf+0x144>
ffffffc050308002:	fc843783          	ld	a5,-56(s0)
ffffffc050308006:	6b98                	ld	a4,16(a5)
ffffffc050308008:	fe042783          	lw	a5,-32(s0)
ffffffc05030800c:	97ba                	add	a5,a5,a4
ffffffc05030800e:	f9043703          	ld	a4,-112(s0)
ffffffc050308012:	f9843583          	ld	a1,-104(s0)
ffffffc050308016:	853e                	mv	a0,a5
ffffffc050308018:	9702                	jalr	a4
ffffffc05030801a:	87aa                	mv	a5,a0
ffffffc05030801c:	faf43823          	sd	a5,-80(s0)
ffffffc050308020:	fc843783          	ld	a5,-56(s0)
ffffffc050308024:	6798                	ld	a4,8(a5)
ffffffc050308026:	fe042783          	lw	a5,-32(s0)
ffffffc05030802a:	97ba                	add	a5,a5,a4
ffffffc05030802c:	fa843703          	ld	a4,-88(s0)
ffffffc050308030:	00f706b3          	add	a3,a4,a5
ffffffc050308034:	fc843783          	ld	a5,-56(s0)
ffffffc050308038:	7398                	ld	a4,32(a5)
ffffffc05030803a:	fe042783          	lw	a5,-32(s0)
ffffffc05030803e:	40f707b3          	sub	a5,a4,a5
ffffffc050308042:	6705                	lui	a4,0x1
ffffffc050308044:	00f77363          	bgeu	a4,a5,ffffffc05030804a <load_elf+0xe8>
ffffffc050308048:	6785                	lui	a5,0x1
ffffffc05030804a:	2781                	sext.w	a5,a5
ffffffc05030804c:	863e                	mv	a2,a5
ffffffc05030804e:	85b6                	mv	a1,a3
ffffffc050308050:	fb043503          	ld	a0,-80(s0)
ffffffc050308054:	13e020ef          	jal	ra,ffffffc05030a192 <memcpy>
ffffffc050308058:	fc843783          	ld	a5,-56(s0)
ffffffc05030805c:	7398                	ld	a4,32(a5)
ffffffc05030805e:	fe042783          	lw	a5,-32(s0)
ffffffc050308062:	8f1d                	sub	a4,a4,a5
ffffffc050308064:	6785                	lui	a5,0x1
ffffffc050308066:	08f77663          	bgeu	a4,a5,ffffffc0503080f2 <load_elf+0x190>
ffffffc05030806a:	fc843783          	ld	a5,-56(s0)
ffffffc05030806e:	739c                	ld	a5,32(a5)
ffffffc050308070:	0007871b          	sext.w	a4,a5
ffffffc050308074:	6785                	lui	a5,0x1
ffffffc050308076:	17fd                	addi	a5,a5,-1
ffffffc050308078:	8ff9                	and	a5,a5,a4
ffffffc05030807a:	fcf42e23          	sw	a5,-36(s0)
ffffffc05030807e:	a829                	j	ffffffc050308098 <load_elf+0x136>
ffffffc050308080:	fdc42783          	lw	a5,-36(s0)
ffffffc050308084:	fb043703          	ld	a4,-80(s0)
ffffffc050308088:	97ba                	add	a5,a5,a4
ffffffc05030808a:	00078023          	sb	zero,0(a5) # 1000 <_start-0xffffffc0502ff000>
ffffffc05030808e:	fdc42783          	lw	a5,-36(s0)
ffffffc050308092:	2785                	addiw	a5,a5,1
ffffffc050308094:	fcf42e23          	sw	a5,-36(s0)
ffffffc050308098:	fdc42783          	lw	a5,-36(s0)
ffffffc05030809c:	873e                	mv	a4,a5
ffffffc05030809e:	6785                	lui	a5,0x1
ffffffc0503080a0:	fef760e3          	bltu	a4,a5,ffffffc050308080 <load_elf+0x11e>
ffffffc0503080a4:	a0b9                	j	ffffffc0503080f2 <load_elf+0x190>
ffffffc0503080a6:	fc843783          	ld	a5,-56(s0)
ffffffc0503080aa:	6b98                	ld	a4,16(a5)
ffffffc0503080ac:	fe042783          	lw	a5,-32(s0)
ffffffc0503080b0:	97ba                	add	a5,a5,a4
ffffffc0503080b2:	f9043703          	ld	a4,-112(s0)
ffffffc0503080b6:	f9843583          	ld	a1,-104(s0)
ffffffc0503080ba:	853e                	mv	a0,a5
ffffffc0503080bc:	9702                	jalr	a4
ffffffc0503080be:	87aa                	mv	a5,a0
ffffffc0503080c0:	faf43c23          	sd	a5,-72(s0)
ffffffc0503080c4:	fc042c23          	sw	zero,-40(s0)
ffffffc0503080c8:	a831                	j	ffffffc0503080e4 <load_elf+0x182>
ffffffc0503080ca:	fd842783          	lw	a5,-40(s0)
ffffffc0503080ce:	078e                	slli	a5,a5,0x3
ffffffc0503080d0:	fb843703          	ld	a4,-72(s0)
ffffffc0503080d4:	97ba                	add	a5,a5,a4
ffffffc0503080d6:	0007b023          	sd	zero,0(a5) # 1000 <_start-0xffffffc0502ff000>
ffffffc0503080da:	fd842783          	lw	a5,-40(s0)
ffffffc0503080de:	2785                	addiw	a5,a5,1
ffffffc0503080e0:	fcf42c23          	sw	a5,-40(s0)
ffffffc0503080e4:	fd842783          	lw	a5,-40(s0)
ffffffc0503080e8:	873e                	mv	a4,a5
ffffffc0503080ea:	1ff00793          	li	a5,511
ffffffc0503080ee:	fce7fee3          	bgeu	a5,a4,ffffffc0503080ca <load_elf+0x168>
ffffffc0503080f2:	fe042703          	lw	a4,-32(s0)
ffffffc0503080f6:	6785                	lui	a5,0x1
ffffffc0503080f8:	9fb9                	addw	a5,a5,a4
ffffffc0503080fa:	2781                	sext.w	a5,a5
ffffffc0503080fc:	fef42023          	sw	a5,-32(s0)
ffffffc050308100:	fe042703          	lw	a4,-32(s0)
ffffffc050308104:	fc843783          	ld	a5,-56(s0)
ffffffc050308108:	779c                	ld	a5,40(a5)
ffffffc05030810a:	eef765e3          	bltu	a4,a5,ffffffc050307ff4 <load_elf+0x92>
ffffffc05030810e:	fc645783          	lhu	a5,-58(s0)
ffffffc050308112:	fe843703          	ld	a4,-24(s0)
ffffffc050308116:	97ba                	add	a5,a5,a4
ffffffc050308118:	fef43423          	sd	a5,-24(s0)
ffffffc05030811c:	fe645783          	lhu	a5,-26(s0)
ffffffc050308120:	fff7871b          	addiw	a4,a5,-1
ffffffc050308124:	fee41323          	sh	a4,-26(s0)
ffffffc050308128:	ea0798e3          	bnez	a5,ffffffc050307fd8 <load_elf+0x76>
ffffffc05030812c:	fd043783          	ld	a5,-48(s0)
ffffffc050308130:	6f9c                	ld	a5,24(a5)
ffffffc050308132:	853e                	mv	a0,a5
ffffffc050308134:	70a6                	ld	ra,104(sp)
ffffffc050308136:	7406                	ld	s0,96(sp)
ffffffc050308138:	6165                	addi	sp,sp,112
ffffffc05030813a:	8082                	ret

ffffffc05030813c <do_scheduler>:
ffffffc05030813c:	7139                	addi	sp,sp,-64
ffffffc05030813e:	fc06                	sd	ra,56(sp)
ffffffc050308140:	f822                	sd	s0,48(sp)
ffffffc050308142:	0080                	addi	s0,sp,64
ffffffc050308144:	14002073          	csrr	zero,sscratch
ffffffc050308148:	96cf80ef          	jal	ra,ffffffc0503002b4 <get_current_cpu_id>
ffffffc05030814c:	fea43423          	sd	a0,-24(s0)
ffffffc050308150:	00040717          	auipc	a4,0x40
ffffffc050308154:	44870713          	addi	a4,a4,1096 # ffffffc050348598 <current_running>
ffffffc050308158:	fe843783          	ld	a5,-24(s0)
ffffffc05030815c:	078e                	slli	a5,a5,0x3
ffffffc05030815e:	97ba                	add	a5,a5,a4
ffffffc050308160:	639c                	ld	a5,0(a5)
ffffffc050308162:	fef43023          	sd	a5,-32(s0)
ffffffc050308166:	00040717          	auipc	a4,0x40
ffffffc05030816a:	43270713          	addi	a4,a4,1074 # ffffffc050348598 <current_running>
ffffffc05030816e:	fe843783          	ld	a5,-24(s0)
ffffffc050308172:	078e                	slli	a5,a5,0x3
ffffffc050308174:	97ba                	add	a5,a5,a4
ffffffc050308176:	639c                	ld	a5,0(a5)
ffffffc050308178:	4bbc                	lw	a5,80(a5)
ffffffc05030817a:	c7bd                	beqz	a5,ffffffc0503081e8 <do_scheduler+0xac>
ffffffc05030817c:	00040717          	auipc	a4,0x40
ffffffc050308180:	41c70713          	addi	a4,a4,1052 # ffffffc050348598 <current_running>
ffffffc050308184:	fe843783          	ld	a5,-24(s0)
ffffffc050308188:	078e                	slli	a5,a5,0x3
ffffffc05030818a:	97ba                	add	a5,a5,a4
ffffffc05030818c:	639c                	ld	a5,0(a5)
ffffffc05030818e:	4bbc                	lw	a5,80(a5)
ffffffc050308190:	873e                	mv	a4,a5
ffffffc050308192:	4791                	li	a5,4
ffffffc050308194:	04f70a63          	beq	a4,a5,ffffffc0503081e8 <do_scheduler+0xac>
ffffffc050308198:	00040717          	auipc	a4,0x40
ffffffc05030819c:	40070713          	addi	a4,a4,1024 # ffffffc050348598 <current_running>
ffffffc0503081a0:	fe843783          	ld	a5,-24(s0)
ffffffc0503081a4:	078e                	slli	a5,a5,0x3
ffffffc0503081a6:	97ba                	add	a5,a5,a4
ffffffc0503081a8:	639c                	ld	a5,0(a5)
ffffffc0503081aa:	4709                	li	a4,2
ffffffc0503081ac:	cbb8                	sw	a4,80(a5)
ffffffc0503081ae:	00040717          	auipc	a4,0x40
ffffffc0503081b2:	3ea70713          	addi	a4,a4,1002 # ffffffc050348598 <current_running>
ffffffc0503081b6:	fe843783          	ld	a5,-24(s0)
ffffffc0503081ba:	078e                	slli	a5,a5,0x3
ffffffc0503081bc:	97ba                	add	a5,a5,a4
ffffffc0503081be:	639c                	ld	a5,0(a5)
ffffffc0503081c0:	47bc                	lw	a5,72(a5)
ffffffc0503081c2:	c39d                	beqz	a5,ffffffc0503081e8 <do_scheduler+0xac>
ffffffc0503081c4:	00040717          	auipc	a4,0x40
ffffffc0503081c8:	3d470713          	addi	a4,a4,980 # ffffffc050348598 <current_running>
ffffffc0503081cc:	fe843783          	ld	a5,-24(s0)
ffffffc0503081d0:	078e                	slli	a5,a5,0x3
ffffffc0503081d2:	97ba                	add	a5,a5,a4
ffffffc0503081d4:	639c                	ld	a5,0(a5)
ffffffc0503081d6:	02878793          	addi	a5,a5,40 # 1028 <_start-0xffffffc0502fefd8>
ffffffc0503081da:	00004597          	auipc	a1,0x4
ffffffc0503081de:	c7e58593          	addi	a1,a1,-898 # ffffffc05030be58 <ready_queue>
ffffffc0503081e2:	853e                	mv	a0,a5
ffffffc0503081e4:	c09ff0ef          	jal	ra,ffffffc050307dec <list_add>
ffffffc0503081e8:	00004517          	auipc	a0,0x4
ffffffc0503081ec:	c7050513          	addi	a0,a0,-912 # ffffffc05030be58 <ready_queue>
ffffffc0503081f0:	c59ff0ef          	jal	ra,ffffffc050307e48 <list_empty>
ffffffc0503081f4:	87aa                	mv	a5,a0
ffffffc0503081f6:	c3a1                	beqz	a5,ffffffc050308236 <do_scheduler+0xfa>
ffffffc0503081f8:	fe843783          	ld	a5,-24(s0)
ffffffc0503081fc:	ef99                	bnez	a5,ffffffc05030821a <do_scheduler+0xde>
ffffffc0503081fe:	00040717          	auipc	a4,0x40
ffffffc050308202:	39a70713          	addi	a4,a4,922 # ffffffc050348598 <current_running>
ffffffc050308206:	fe843783          	ld	a5,-24(s0)
ffffffc05030820a:	078e                	slli	a5,a5,0x3
ffffffc05030820c:	97ba                	add	a5,a5,a4
ffffffc05030820e:	00004717          	auipc	a4,0x4
ffffffc050308212:	a6a70713          	addi	a4,a4,-1430 # ffffffc05030bc78 <pid0_pcb_m>
ffffffc050308216:	e398                	sd	a4,0(a5)
ffffffc050308218:	aa01                	j	ffffffc050308328 <do_scheduler+0x1ec>
ffffffc05030821a:	00040717          	auipc	a4,0x40
ffffffc05030821e:	37e70713          	addi	a4,a4,894 # ffffffc050348598 <current_running>
ffffffc050308222:	fe843783          	ld	a5,-24(s0)
ffffffc050308226:	078e                	slli	a5,a5,0x3
ffffffc050308228:	97ba                	add	a5,a5,a4
ffffffc05030822a:	00004717          	auipc	a4,0x4
ffffffc05030822e:	b3e70713          	addi	a4,a4,-1218 # ffffffc05030bd68 <pid0_pcb_s>
ffffffc050308232:	e398                	sd	a4,0(a5)
ffffffc050308234:	a8d5                	j	ffffffc050308328 <do_scheduler+0x1ec>
ffffffc050308236:	00004797          	auipc	a5,0x4
ffffffc05030823a:	c2278793          	addi	a5,a5,-990 # ffffffc05030be58 <ready_queue>
ffffffc05030823e:	639c                	ld	a5,0(a5)
ffffffc050308240:	fcf43c23          	sd	a5,-40(s0)
ffffffc050308244:	fd843783          	ld	a5,-40(s0)
ffffffc050308248:	fd878793          	addi	a5,a5,-40
ffffffc05030824c:	fcf43823          	sd	a5,-48(s0)
ffffffc050308250:	a0e1                	j	ffffffc050308318 <do_scheduler+0x1dc>
ffffffc050308252:	00004797          	auipc	a5,0x4
ffffffc050308256:	c0678793          	addi	a5,a5,-1018 # ffffffc05030be58 <ready_queue>
ffffffc05030825a:	679c                	ld	a5,8(a5)
ffffffc05030825c:	fcf43423          	sd	a5,-56(s0)
ffffffc050308260:	fc843783          	ld	a5,-56(s0)
ffffffc050308264:	fd878793          	addi	a5,a5,-40
ffffffc050308268:	fcf43023          	sd	a5,-64(s0)
ffffffc05030826c:	00004797          	auipc	a5,0x4
ffffffc050308270:	bec78793          	addi	a5,a5,-1044 # ffffffc05030be58 <ready_queue>
ffffffc050308274:	679c                	ld	a5,8(a5)
ffffffc050308276:	853e                	mv	a0,a5
ffffffc050308278:	b2bff0ef          	jal	ra,ffffffc050307da2 <list_del>
ffffffc05030827c:	fc043783          	ld	a5,-64(s0)
ffffffc050308280:	0e07a783          	lw	a5,224(a5)
ffffffc050308284:	873e                	mv	a4,a5
ffffffc050308286:	478d                	li	a5,3
ffffffc050308288:	00f70c63          	beq	a4,a5,ffffffc0503082a0 <do_scheduler+0x164>
ffffffc05030828c:	fc043783          	ld	a5,-64(s0)
ffffffc050308290:	0e07a783          	lw	a5,224(a5)
ffffffc050308294:	873e                	mv	a4,a5
ffffffc050308296:	fe843783          	ld	a5,-24(s0)
ffffffc05030829a:	0785                	addi	a5,a5,1
ffffffc05030829c:	00f71e63          	bne	a4,a5,ffffffc0503082b8 <do_scheduler+0x17c>
ffffffc0503082a0:	00040717          	auipc	a4,0x40
ffffffc0503082a4:	2f870713          	addi	a4,a4,760 # ffffffc050348598 <current_running>
ffffffc0503082a8:	fe843783          	ld	a5,-24(s0)
ffffffc0503082ac:	078e                	slli	a5,a5,0x3
ffffffc0503082ae:	97ba                	add	a5,a5,a4
ffffffc0503082b0:	fc043703          	ld	a4,-64(s0)
ffffffc0503082b4:	e398                	sd	a4,0(a5)
ffffffc0503082b6:	a88d                	j	ffffffc050308328 <do_scheduler+0x1ec>
ffffffc0503082b8:	fc043783          	ld	a5,-64(s0)
ffffffc0503082bc:	02878793          	addi	a5,a5,40
ffffffc0503082c0:	00004597          	auipc	a1,0x4
ffffffc0503082c4:	b9858593          	addi	a1,a1,-1128 # ffffffc05030be58 <ready_queue>
ffffffc0503082c8:	853e                	mv	a0,a5
ffffffc0503082ca:	b23ff0ef          	jal	ra,ffffffc050307dec <list_add>
ffffffc0503082ce:	fc043703          	ld	a4,-64(s0)
ffffffc0503082d2:	fd043783          	ld	a5,-48(s0)
ffffffc0503082d6:	04f71163          	bne	a4,a5,ffffffc050308318 <do_scheduler+0x1dc>
ffffffc0503082da:	fe843783          	ld	a5,-24(s0)
ffffffc0503082de:	ef99                	bnez	a5,ffffffc0503082fc <do_scheduler+0x1c0>
ffffffc0503082e0:	00040717          	auipc	a4,0x40
ffffffc0503082e4:	2b870713          	addi	a4,a4,696 # ffffffc050348598 <current_running>
ffffffc0503082e8:	fe843783          	ld	a5,-24(s0)
ffffffc0503082ec:	078e                	slli	a5,a5,0x3
ffffffc0503082ee:	97ba                	add	a5,a5,a4
ffffffc0503082f0:	00004717          	auipc	a4,0x4
ffffffc0503082f4:	98870713          	addi	a4,a4,-1656 # ffffffc05030bc78 <pid0_pcb_m>
ffffffc0503082f8:	e398                	sd	a4,0(a5)
ffffffc0503082fa:	a03d                	j	ffffffc050308328 <do_scheduler+0x1ec>
ffffffc0503082fc:	00040717          	auipc	a4,0x40
ffffffc050308300:	29c70713          	addi	a4,a4,668 # ffffffc050348598 <current_running>
ffffffc050308304:	fe843783          	ld	a5,-24(s0)
ffffffc050308308:	078e                	slli	a5,a5,0x3
ffffffc05030830a:	97ba                	add	a5,a5,a4
ffffffc05030830c:	00004717          	auipc	a4,0x4
ffffffc050308310:	a5c70713          	addi	a4,a4,-1444 # ffffffc05030bd68 <pid0_pcb_s>
ffffffc050308314:	e398                	sd	a4,0(a5)
ffffffc050308316:	a809                	j	ffffffc050308328 <do_scheduler+0x1ec>
ffffffc050308318:	00004517          	auipc	a0,0x4
ffffffc05030831c:	b4050513          	addi	a0,a0,-1216 # ffffffc05030be58 <ready_queue>
ffffffc050308320:	b29ff0ef          	jal	ra,ffffffc050307e48 <list_empty>
ffffffc050308324:	87aa                	mv	a5,a0
ffffffc050308326:	d795                	beqz	a5,ffffffc050308252 <do_scheduler+0x116>
ffffffc050308328:	00040717          	auipc	a4,0x40
ffffffc05030832c:	27070713          	addi	a4,a4,624 # ffffffc050348598 <current_running>
ffffffc050308330:	fe843783          	ld	a5,-24(s0)
ffffffc050308334:	078e                	slli	a5,a5,0x3
ffffffc050308336:	97ba                	add	a5,a5,a4
ffffffc050308338:	639c                	ld	a5,0(a5)
ffffffc05030833a:	4705                	li	a4,1
ffffffc05030833c:	cbb8                	sw	a4,80(a5)
ffffffc05030833e:	00040717          	auipc	a4,0x40
ffffffc050308342:	25a70713          	addi	a4,a4,602 # ffffffc050348598 <current_running>
ffffffc050308346:	fe843783          	ld	a5,-24(s0)
ffffffc05030834a:	078e                	slli	a5,a5,0x3
ffffffc05030834c:	97ba                	add	a5,a5,a4
ffffffc05030834e:	639c                	ld	a5,0(a5)
ffffffc050308350:	47bc                	lw	a5,72(a5)
ffffffc050308352:	0007869b          	sext.w	a3,a5
ffffffc050308356:	00040717          	auipc	a4,0x40
ffffffc05030835a:	24270713          	addi	a4,a4,578 # ffffffc050348598 <current_running>
ffffffc05030835e:	fe843783          	ld	a5,-24(s0)
ffffffc050308362:	078e                	slli	a5,a5,0x3
ffffffc050308364:	97ba                	add	a5,a5,a4
ffffffc050308366:	639c                	ld	a5,0(a5)
ffffffc050308368:	77f8                	ld	a4,232(a5)
ffffffc05030836a:	4785                	li	a5,1
ffffffc05030836c:	179a                	slli	a5,a5,0x26
ffffffc05030836e:	97ba                	add	a5,a5,a4
ffffffc050308370:	83b1                	srli	a5,a5,0xc
ffffffc050308372:	863e                	mv	a2,a5
ffffffc050308374:	85b6                	mv	a1,a3
ffffffc050308376:	4521                	li	a0,8
ffffffc050308378:	b0dff0ef          	jal	ra,ffffffc050307e84 <set_satp>
ffffffc05030837c:	af7ff0ef          	jal	ra,ffffffc050307e72 <local_flush_tlb_all>
ffffffc050308380:	00040717          	auipc	a4,0x40
ffffffc050308384:	21870713          	addi	a4,a4,536 # ffffffc050348598 <current_running>
ffffffc050308388:	fe843783          	ld	a5,-24(s0)
ffffffc05030838c:	078e                	slli	a5,a5,0x3
ffffffc05030838e:	97ba                	add	a5,a5,a4
ffffffc050308390:	639c                	ld	a5,0(a5)
ffffffc050308392:	4fb4                	lw	a3,88(a5)
ffffffc050308394:	00040717          	auipc	a4,0x40
ffffffc050308398:	20470713          	addi	a4,a4,516 # ffffffc050348598 <current_running>
ffffffc05030839c:	fe843783          	ld	a5,-24(s0)
ffffffc0503083a0:	078e                	slli	a5,a5,0x3
ffffffc0503083a2:	97ba                	add	a5,a5,a4
ffffffc0503083a4:	639c                	ld	a5,0(a5)
ffffffc0503083a6:	4ffc                	lw	a5,92(a5)
ffffffc0503083a8:	85be                	mv	a1,a5
ffffffc0503083aa:	8536                	mv	a0,a3
ffffffc0503083ac:	9f4f90ef          	jal	ra,ffffffc0503015a0 <vt100_move_cursor>
ffffffc0503083b0:	00040717          	auipc	a4,0x40
ffffffc0503083b4:	1e870713          	addi	a4,a4,488 # ffffffc050348598 <current_running>
ffffffc0503083b8:	fe843783          	ld	a5,-24(s0)
ffffffc0503083bc:	078e                	slli	a5,a5,0x3
ffffffc0503083be:	97ba                	add	a5,a5,a4
ffffffc0503083c0:	639c                	ld	a5,0(a5)
ffffffc0503083c2:	85be                	mv	a1,a5
ffffffc0503083c4:	fe043503          	ld	a0,-32(s0)
ffffffc0503083c8:	cf5f70ef          	jal	ra,ffffffc0503000bc <switch_to>
ffffffc0503083cc:	0001                	nop
ffffffc0503083ce:	70e2                	ld	ra,56(sp)
ffffffc0503083d0:	7442                	ld	s0,48(sp)
ffffffc0503083d2:	6121                	addi	sp,sp,64
ffffffc0503083d4:	8082                	ret

ffffffc0503083d6 <do_sleep>:
ffffffc0503083d6:	7179                	addi	sp,sp,-48
ffffffc0503083d8:	f406                	sd	ra,40(sp)
ffffffc0503083da:	f022                	sd	s0,32(sp)
ffffffc0503083dc:	1800                	addi	s0,sp,48
ffffffc0503083de:	87aa                	mv	a5,a0
ffffffc0503083e0:	fcf42e23          	sw	a5,-36(s0)
ffffffc0503083e4:	ed1f70ef          	jal	ra,ffffffc0503002b4 <get_current_cpu_id>
ffffffc0503083e8:	fea43423          	sd	a0,-24(s0)
ffffffc0503083ec:	00040717          	auipc	a4,0x40
ffffffc0503083f0:	1ac70713          	addi	a4,a4,428 # ffffffc050348598 <current_running>
ffffffc0503083f4:	fe843783          	ld	a5,-24(s0)
ffffffc0503083f8:	078e                	slli	a5,a5,0x3
ffffffc0503083fa:	97ba                	add	a5,a5,a4
ffffffc0503083fc:	639c                	ld	a5,0(a5)
ffffffc0503083fe:	0407a823          	sw	zero,80(a5)
ffffffc050308402:	00040717          	auipc	a4,0x40
ffffffc050308406:	19670713          	addi	a4,a4,406 # ffffffc050348598 <current_running>
ffffffc05030840a:	fe843783          	ld	a5,-24(s0)
ffffffc05030840e:	078e                	slli	a5,a5,0x3
ffffffc050308410:	97ba                	add	a5,a5,a4
ffffffc050308412:	639c                	ld	a5,0(a5)
ffffffc050308414:	02878693          	addi	a3,a5,40
ffffffc050308418:	0002f797          	auipc	a5,0x2f
ffffffc05030841c:	14078793          	addi	a5,a5,320 # ffffffc050337558 <time_base>
ffffffc050308420:	439c                	lw	a5,0(a5)
ffffffc050308422:	fdc42703          	lw	a4,-36(s0)
ffffffc050308426:	02f707bb          	mulw	a5,a4,a5
ffffffc05030842a:	2781                	sext.w	a5,a5
ffffffc05030842c:	1782                	slli	a5,a5,0x20
ffffffc05030842e:	9381                	srli	a5,a5,0x20
ffffffc050308430:	863e                	mv	a2,a5
ffffffc050308432:	85b6                	mv	a1,a3
ffffffc050308434:	00000517          	auipc	a0,0x0
ffffffc050308438:	06050513          	addi	a0,a0,96 # ffffffc050308494 <do_unblock>
ffffffc05030843c:	534010ef          	jal	ra,ffffffc050309970 <timer_create>
ffffffc050308440:	cfdff0ef          	jal	ra,ffffffc05030813c <do_scheduler>
ffffffc050308444:	0001                	nop
ffffffc050308446:	70a2                	ld	ra,40(sp)
ffffffc050308448:	7402                	ld	s0,32(sp)
ffffffc05030844a:	6145                	addi	sp,sp,48
ffffffc05030844c:	8082                	ret

ffffffc05030844e <do_block>:
ffffffc05030844e:	7179                	addi	sp,sp,-48
ffffffc050308450:	f406                	sd	ra,40(sp)
ffffffc050308452:	f022                	sd	s0,32(sp)
ffffffc050308454:	1800                	addi	s0,sp,48
ffffffc050308456:	fca43c23          	sd	a0,-40(s0)
ffffffc05030845a:	fcb43823          	sd	a1,-48(s0)
ffffffc05030845e:	fd843783          	ld	a5,-40(s0)
ffffffc050308462:	fef43423          	sd	a5,-24(s0)
ffffffc050308466:	fe843783          	ld	a5,-24(s0)
ffffffc05030846a:	fd878793          	addi	a5,a5,-40
ffffffc05030846e:	fef43023          	sd	a5,-32(s0)
ffffffc050308472:	fe043783          	ld	a5,-32(s0)
ffffffc050308476:	0407a823          	sw	zero,80(a5)
ffffffc05030847a:	fd043583          	ld	a1,-48(s0)
ffffffc05030847e:	fd843503          	ld	a0,-40(s0)
ffffffc050308482:	96bff0ef          	jal	ra,ffffffc050307dec <list_add>
ffffffc050308486:	cb7ff0ef          	jal	ra,ffffffc05030813c <do_scheduler>
ffffffc05030848a:	0001                	nop
ffffffc05030848c:	70a2                	ld	ra,40(sp)
ffffffc05030848e:	7402                	ld	s0,32(sp)
ffffffc050308490:	6145                	addi	sp,sp,48
ffffffc050308492:	8082                	ret

ffffffc050308494 <do_unblock>:
ffffffc050308494:	7179                	addi	sp,sp,-48
ffffffc050308496:	f406                	sd	ra,40(sp)
ffffffc050308498:	f022                	sd	s0,32(sp)
ffffffc05030849a:	1800                	addi	s0,sp,48
ffffffc05030849c:	fca43c23          	sd	a0,-40(s0)
ffffffc0503084a0:	fd843783          	ld	a5,-40(s0)
ffffffc0503084a4:	fef43423          	sd	a5,-24(s0)
ffffffc0503084a8:	fe843783          	ld	a5,-24(s0)
ffffffc0503084ac:	fd878793          	addi	a5,a5,-40
ffffffc0503084b0:	fef43023          	sd	a5,-32(s0)
ffffffc0503084b4:	fe043783          	ld	a5,-32(s0)
ffffffc0503084b8:	4709                	li	a4,2
ffffffc0503084ba:	cbb8                	sw	a4,80(a5)
ffffffc0503084bc:	00004597          	auipc	a1,0x4
ffffffc0503084c0:	99c58593          	addi	a1,a1,-1636 # ffffffc05030be58 <ready_queue>
ffffffc0503084c4:	fd843503          	ld	a0,-40(s0)
ffffffc0503084c8:	953ff0ef          	jal	ra,ffffffc050307e1a <list_move>
ffffffc0503084cc:	0001                	nop
ffffffc0503084ce:	70a2                	ld	ra,40(sp)
ffffffc0503084d0:	7402                	ld	s0,32(sp)
ffffffc0503084d2:	6145                	addi	sp,sp,48
ffffffc0503084d4:	8082                	ret

ffffffc0503084d6 <do_binsemget>:
ffffffc0503084d6:	7179                	addi	sp,sp,-48
ffffffc0503084d8:	f422                	sd	s0,40(sp)
ffffffc0503084da:	1800                	addi	s0,sp,48
ffffffc0503084dc:	87aa                	mv	a5,a0
ffffffc0503084de:	fcf42e23          	sw	a5,-36(s0)
ffffffc0503084e2:	fdc42703          	lw	a4,-36(s0)
ffffffc0503084e6:	41f7579b          	sraiw	a5,a4,0x1f
ffffffc0503084ea:	01c7d79b          	srliw	a5,a5,0x1c
ffffffc0503084ee:	9f3d                	addw	a4,a4,a5
ffffffc0503084f0:	8b3d                	andi	a4,a4,15
ffffffc0503084f2:	40f707bb          	subw	a5,a4,a5
ffffffc0503084f6:	fef42623          	sw	a5,-20(s0)
ffffffc0503084fa:	fec42783          	lw	a5,-20(s0)
ffffffc0503084fe:	853e                	mv	a0,a5
ffffffc050308500:	7422                	ld	s0,40(sp)
ffffffc050308502:	6145                	addi	sp,sp,48
ffffffc050308504:	8082                	ret

ffffffc050308506 <do_binsemop>:
ffffffc050308506:	7179                	addi	sp,sp,-48
ffffffc050308508:	f406                	sd	ra,40(sp)
ffffffc05030850a:	f022                	sd	s0,32(sp)
ffffffc05030850c:	1800                	addi	s0,sp,48
ffffffc05030850e:	87aa                	mv	a5,a0
ffffffc050308510:	872e                	mv	a4,a1
ffffffc050308512:	fcf42e23          	sw	a5,-36(s0)
ffffffc050308516:	87ba                	mv	a5,a4
ffffffc050308518:	fcf42c23          	sw	a5,-40(s0)
ffffffc05030851c:	fdc42703          	lw	a4,-36(s0)
ffffffc050308520:	87ba                	mv	a5,a4
ffffffc050308522:	0786                	slli	a5,a5,0x1
ffffffc050308524:	97ba                	add	a5,a5,a4
ffffffc050308526:	078e                	slli	a5,a5,0x3
ffffffc050308528:	00032717          	auipc	a4,0x32
ffffffc05030852c:	ea870713          	addi	a4,a4,-344 # ffffffc05033a3d0 <binsem>
ffffffc050308530:	97ba                	add	a5,a5,a4
ffffffc050308532:	fef43423          	sd	a5,-24(s0)
ffffffc050308536:	fd842783          	lw	a5,-40(s0)
ffffffc05030853a:	2781                	sext.w	a5,a5
ffffffc05030853c:	e791                	bnez	a5,ffffffc050308548 <do_binsemop+0x42>
ffffffc05030853e:	fe843503          	ld	a0,-24(s0)
ffffffc050308542:	a6cff0ef          	jal	ra,ffffffc0503077ae <do_mutex_lock_acquire>
ffffffc050308546:	a821                	j	ffffffc05030855e <do_binsemop+0x58>
ffffffc050308548:	fd842783          	lw	a5,-40(s0)
ffffffc05030854c:	0007871b          	sext.w	a4,a5
ffffffc050308550:	4785                	li	a5,1
ffffffc050308552:	00f71663          	bne	a4,a5,ffffffc05030855e <do_binsemop+0x58>
ffffffc050308556:	fe843503          	ld	a0,-24(s0)
ffffffc05030855a:	aeeff0ef          	jal	ra,ffffffc050307848 <do_mutex_lock_release>
ffffffc05030855e:	4785                	li	a5,1
ffffffc050308560:	853e                	mv	a0,a5
ffffffc050308562:	70a2                	ld	ra,40(sp)
ffffffc050308564:	7402                	ld	s0,32(sp)
ffffffc050308566:	6145                	addi	sp,sp,48
ffffffc050308568:	8082                	ret

ffffffc05030856a <do_binsem_destroy>:
ffffffc05030856a:	7179                	addi	sp,sp,-48
ffffffc05030856c:	f406                	sd	ra,40(sp)
ffffffc05030856e:	f022                	sd	s0,32(sp)
ffffffc050308570:	1800                	addi	s0,sp,48
ffffffc050308572:	87aa                	mv	a5,a0
ffffffc050308574:	fcf42e23          	sw	a5,-36(s0)
ffffffc050308578:	fdc42703          	lw	a4,-36(s0)
ffffffc05030857c:	87ba                	mv	a5,a4
ffffffc05030857e:	0786                	slli	a5,a5,0x1
ffffffc050308580:	97ba                	add	a5,a5,a4
ffffffc050308582:	078e                	slli	a5,a5,0x3
ffffffc050308584:	00032717          	auipc	a4,0x32
ffffffc050308588:	e4c70713          	addi	a4,a4,-436 # ffffffc05033a3d0 <binsem>
ffffffc05030858c:	97ba                	add	a5,a5,a4
ffffffc05030858e:	fef43423          	sd	a5,-24(s0)
ffffffc050308592:	fe843783          	ld	a5,-24(s0)
ffffffc050308596:	07a1                	addi	a5,a5,8
ffffffc050308598:	853e                	mv	a0,a5
ffffffc05030859a:	8afff0ef          	jal	ra,ffffffc050307e48 <list_empty>
ffffffc05030859e:	87aa                	mv	a5,a0
ffffffc0503085a0:	c399                	beqz	a5,ffffffc0503085a6 <do_binsem_destroy+0x3c>
ffffffc0503085a2:	4785                	li	a5,1
ffffffc0503085a4:	a011                	j	ffffffc0503085a8 <do_binsem_destroy+0x3e>
ffffffc0503085a6:	4781                	li	a5,0
ffffffc0503085a8:	853e                	mv	a0,a5
ffffffc0503085aa:	70a2                	ld	ra,40(sp)
ffffffc0503085ac:	7402                	ld	s0,32(sp)
ffffffc0503085ae:	6145                	addi	sp,sp,48
ffffffc0503085b0:	8082                	ret

ffffffc0503085b2 <recycle>:
ffffffc0503085b2:	1101                	addi	sp,sp,-32
ffffffc0503085b4:	ec22                	sd	s0,24(sp)
ffffffc0503085b6:	1000                	addi	s0,sp,32
ffffffc0503085b8:	fea43423          	sd	a0,-24(s0)
ffffffc0503085bc:	0001                	nop
ffffffc0503085be:	6462                	ld	s0,24(sp)
ffffffc0503085c0:	6105                	addi	sp,sp,32
ffffffc0503085c2:	8082                	ret

ffffffc0503085c4 <reuse>:
ffffffc0503085c4:	1101                	addi	sp,sp,-32
ffffffc0503085c6:	ec22                	sd	s0,24(sp)
ffffffc0503085c8:	1000                	addi	s0,sp,32
ffffffc0503085ca:	0002f797          	auipc	a5,0x2f
ffffffc0503085ce:	f4678793          	addi	a5,a5,-186 # ffffffc050337510 <recycle_queue>
ffffffc0503085d2:	6398                	ld	a4,0(a5)
ffffffc0503085d4:	0002f797          	auipc	a5,0x2f
ffffffc0503085d8:	f3c78793          	addi	a5,a5,-196 # ffffffc050337510 <recycle_queue>
ffffffc0503085dc:	00f71463          	bne	a4,a5,ffffffc0503085e4 <reuse+0x20>
ffffffc0503085e0:	4781                	li	a5,0
ffffffc0503085e2:	a02d                	j	ffffffc05030860c <reuse+0x48>
ffffffc0503085e4:	0002f797          	auipc	a5,0x2f
ffffffc0503085e8:	f2c78793          	addi	a5,a5,-212 # ffffffc050337510 <recycle_queue>
ffffffc0503085ec:	639c                	ld	a5,0(a5)
ffffffc0503085ee:	fef43423          	sd	a5,-24(s0)
ffffffc0503085f2:	fe843783          	ld	a5,-24(s0)
ffffffc0503085f6:	fc078793          	addi	a5,a5,-64
ffffffc0503085fa:	639c                	ld	a5,0(a5)
ffffffc0503085fc:	873e                	mv	a4,a5
ffffffc0503085fe:	0002f797          	auipc	a5,0x2f
ffffffc050308602:	f1278793          	addi	a5,a5,-238 # ffffffc050337510 <recycle_queue>
ffffffc050308606:	e398                	sd	a4,0(a5)
ffffffc050308608:	fe843783          	ld	a5,-24(s0)
ffffffc05030860c:	853e                	mv	a0,a5
ffffffc05030860e:	6462                	ld	s0,24(sp)
ffffffc050308610:	6105                	addi	sp,sp,32
ffffffc050308612:	8082                	ret

ffffffc050308614 <do_spawn>:
ffffffc050308614:	715d                	addi	sp,sp,-80
ffffffc050308616:	e486                	sd	ra,72(sp)
ffffffc050308618:	e0a2                	sd	s0,64(sp)
ffffffc05030861a:	0880                	addi	s0,sp,80
ffffffc05030861c:	fca43423          	sd	a0,-56(s0)
ffffffc050308620:	fcb43023          	sd	a1,-64(s0)
ffffffc050308624:	87b2                	mv	a5,a2
ffffffc050308626:	faf42e23          	sw	a5,-68(s0)
ffffffc05030862a:	00004517          	auipc	a0,0x4
ffffffc05030862e:	83e50513          	addi	a0,a0,-1986 # ffffffc05030be68 <exit_queue>
ffffffc050308632:	817ff0ef          	jal	ra,ffffffc050307e48 <list_empty>
ffffffc050308636:	87aa                	mv	a5,a0
ffffffc050308638:	e79d                	bnez	a5,ffffffc050308666 <do_spawn+0x52>
ffffffc05030863a:	00004797          	auipc	a5,0x4
ffffffc05030863e:	82e78793          	addi	a5,a5,-2002 # ffffffc05030be68 <exit_queue>
ffffffc050308642:	679c                	ld	a5,8(a5)
ffffffc050308644:	fef43023          	sd	a5,-32(s0)
ffffffc050308648:	fe043783          	ld	a5,-32(s0)
ffffffc05030864c:	fd878793          	addi	a5,a5,-40
ffffffc050308650:	fef43423          	sd	a5,-24(s0)
ffffffc050308654:	00004797          	auipc	a5,0x4
ffffffc050308658:	81478793          	addi	a5,a5,-2028 # ffffffc05030be68 <exit_queue>
ffffffc05030865c:	679c                	ld	a5,8(a5)
ffffffc05030865e:	853e                	mv	a0,a5
ffffffc050308660:	f42ff0ef          	jal	ra,ffffffc050307da2 <list_del>
ffffffc050308664:	a815                	j	ffffffc050308698 <do_spawn+0x84>
ffffffc050308666:	0002f797          	auipc	a5,0x2f
ffffffc05030866a:	eda78793          	addi	a5,a5,-294 # ffffffc050337540 <_edata>
ffffffc05030866e:	4398                	lw	a4,0(a5)
ffffffc050308670:	0017079b          	addiw	a5,a4,1
ffffffc050308674:	0007869b          	sext.w	a3,a5
ffffffc050308678:	0002f797          	auipc	a5,0x2f
ffffffc05030867c:	ec878793          	addi	a5,a5,-312 # ffffffc050337540 <_edata>
ffffffc050308680:	c394                	sw	a3,0(a5)
ffffffc050308682:	87ba                	mv	a5,a4
ffffffc050308684:	0792                	slli	a5,a5,0x4
ffffffc050308686:	8f99                	sub	a5,a5,a4
ffffffc050308688:	0792                	slli	a5,a5,0x4
ffffffc05030868a:	00031717          	auipc	a4,0x31
ffffffc05030868e:	e4670713          	addi	a4,a4,-442 # ffffffc0503394d0 <pcb>
ffffffc050308692:	97ba                	add	a5,a5,a4
ffffffc050308694:	fef43423          	sd	a5,-24(s0)
ffffffc050308698:	f2dff0ef          	jal	ra,ffffffc0503085c4 <reuse>
ffffffc05030869c:	872a                	mv	a4,a0
ffffffc05030869e:	fe843783          	ld	a5,-24(s0)
ffffffc0503086a2:	ef98                	sd	a4,24(a5)
ffffffc0503086a4:	fe843783          	ld	a5,-24(s0)
ffffffc0503086a8:	6f9c                	ld	a5,24(a5)
ffffffc0503086aa:	eb91                	bnez	a5,ffffffc0503086be <do_spawn+0xaa>
ffffffc0503086ac:	4505                	li	a0,1
ffffffc0503086ae:	514010ef          	jal	ra,ffffffc050309bc2 <allocPage>
ffffffc0503086b2:	872a                	mv	a4,a0
ffffffc0503086b4:	6785                	lui	a5,0x1
ffffffc0503086b6:	973e                	add	a4,a4,a5
ffffffc0503086b8:	fe843783          	ld	a5,-24(s0)
ffffffc0503086bc:	ef98                	sd	a4,24(a5)
ffffffc0503086be:	f07ff0ef          	jal	ra,ffffffc0503085c4 <reuse>
ffffffc0503086c2:	872a                	mv	a4,a0
ffffffc0503086c4:	fe843783          	ld	a5,-24(s0)
ffffffc0503086c8:	f398                	sd	a4,32(a5)
ffffffc0503086ca:	fe843783          	ld	a5,-24(s0)
ffffffc0503086ce:	739c                	ld	a5,32(a5)
ffffffc0503086d0:	eb91                	bnez	a5,ffffffc0503086e4 <do_spawn+0xd0>
ffffffc0503086d2:	4505                	li	a0,1
ffffffc0503086d4:	4ee010ef          	jal	ra,ffffffc050309bc2 <allocPage>
ffffffc0503086d8:	872a                	mv	a4,a0
ffffffc0503086da:	6785                	lui	a5,0x1
ffffffc0503086dc:	973e                	add	a4,a4,a5
ffffffc0503086de:	fe843783          	ld	a5,-24(s0)
ffffffc0503086e2:	f398                	sd	a4,32(a5)
ffffffc0503086e4:	fe843783          	ld	a5,-24(s0)
ffffffc0503086e8:	6f98                	ld	a4,24(a5)
ffffffc0503086ea:	fe843783          	ld	a5,-24(s0)
ffffffc0503086ee:	e398                	sd	a4,0(a5)
ffffffc0503086f0:	fe843783          	ld	a5,-24(s0)
ffffffc0503086f4:	7398                	ld	a4,32(a5)
ffffffc0503086f6:	fe843783          	ld	a5,-24(s0)
ffffffc0503086fa:	e798                	sd	a4,8(a5)
ffffffc0503086fc:	fe843783          	ld	a5,-24(s0)
ffffffc050308700:	639c                	ld	a5,0(a5)
ffffffc050308702:	e7078713          	addi	a4,a5,-400 # e70 <_start-0xffffffc0502ff190>
ffffffc050308706:	fe843783          	ld	a5,-24(s0)
ffffffc05030870a:	e398                	sd	a4,0(a5)
ffffffc05030870c:	0002f797          	auipc	a5,0x2f
ffffffc050308710:	de478793          	addi	a5,a5,-540 # ffffffc0503374f0 <process_id>
ffffffc050308714:	439c                	lw	a5,0(a5)
ffffffc050308716:	0017871b          	addiw	a4,a5,1
ffffffc05030871a:	0007069b          	sext.w	a3,a4
ffffffc05030871e:	0002f717          	auipc	a4,0x2f
ffffffc050308722:	dd270713          	addi	a4,a4,-558 # ffffffc0503374f0 <process_id>
ffffffc050308726:	c314                	sw	a3,0(a4)
ffffffc050308728:	fe843703          	ld	a4,-24(s0)
ffffffc05030872c:	c73c                	sw	a5,72(a4)
ffffffc05030872e:	fc843783          	ld	a5,-56(s0)
ffffffc050308732:	4798                	lw	a4,8(a5)
ffffffc050308734:	fe843783          	ld	a5,-24(s0)
ffffffc050308738:	c7f8                	sw	a4,76(a5)
ffffffc05030873a:	fe843783          	ld	a5,-24(s0)
ffffffc05030873e:	4709                	li	a4,2
ffffffc050308740:	cbb8                	sw	a4,80(a5)
ffffffc050308742:	fe843783          	ld	a5,-24(s0)
ffffffc050308746:	fbc42703          	lw	a4,-68(s0)
ffffffc05030874a:	cbf8                	sw	a4,84(a5)
ffffffc05030874c:	fe843783          	ld	a5,-24(s0)
ffffffc050308750:	0407ac23          	sw	zero,88(a5)
ffffffc050308754:	fe843783          	ld	a5,-24(s0)
ffffffc050308758:	0407ae23          	sw	zero,92(a5)
ffffffc05030875c:	fe843783          	ld	a5,-24(s0)
ffffffc050308760:	0807a423          	sw	zero,136(a5)
ffffffc050308764:	b51f70ef          	jal	ra,ffffffc0503002b4 <get_current_cpu_id>
ffffffc050308768:	fca43c23          	sd	a0,-40(s0)
ffffffc05030876c:	00040717          	auipc	a4,0x40
ffffffc050308770:	e2c70713          	addi	a4,a4,-468 # ffffffc050348598 <current_running>
ffffffc050308774:	fd843783          	ld	a5,-40(s0)
ffffffc050308778:	078e                	slli	a5,a5,0x3
ffffffc05030877a:	97ba                	add	a5,a5,a4
ffffffc05030877c:	639c                	ld	a5,0(a5)
ffffffc05030877e:	0e07a703          	lw	a4,224(a5)
ffffffc050308782:	fe843783          	ld	a5,-24(s0)
ffffffc050308786:	0ee7a023          	sw	a4,224(a5)
ffffffc05030878a:	fe843783          	ld	a5,-24(s0)
ffffffc05030878e:	02878793          	addi	a5,a5,40
ffffffc050308792:	00003597          	auipc	a1,0x3
ffffffc050308796:	6c658593          	addi	a1,a1,1734 # ffffffc05030be58 <ready_queue>
ffffffc05030879a:	853e                	mv	a0,a5
ffffffc05030879c:	e50ff0ef          	jal	ra,ffffffc050307dec <list_add>
ffffffc0503087a0:	fe843783          	ld	a5,-24(s0)
ffffffc0503087a4:	03878793          	addi	a5,a5,56
ffffffc0503087a8:	853e                	mv	a0,a5
ffffffc0503087aa:	d66ff0ef          	jal	ra,ffffffc050307d10 <init_list_head>
ffffffc0503087ae:	fe843783          	ld	a5,-24(s0)
ffffffc0503087b2:	47bc                	lw	a5,72(a5)
ffffffc0503087b4:	853e                	mv	a0,a5
ffffffc0503087b6:	60a6                	ld	ra,72(sp)
ffffffc0503087b8:	6406                	ld	s0,64(sp)
ffffffc0503087ba:	6161                	addi	sp,sp,80
ffffffc0503087bc:	8082                	ret

ffffffc0503087be <do_exit>:
ffffffc0503087be:	7139                	addi	sp,sp,-64
ffffffc0503087c0:	fc06                	sd	ra,56(sp)
ffffffc0503087c2:	f822                	sd	s0,48(sp)
ffffffc0503087c4:	0080                	addi	s0,sp,64
ffffffc0503087c6:	aeff70ef          	jal	ra,ffffffc0503002b4 <get_current_cpu_id>
ffffffc0503087ca:	fea43023          	sd	a0,-32(s0)
ffffffc0503087ce:	00040717          	auipc	a4,0x40
ffffffc0503087d2:	dca70713          	addi	a4,a4,-566 # ffffffc050348598 <current_running>
ffffffc0503087d6:	fe043783          	ld	a5,-32(s0)
ffffffc0503087da:	078e                	slli	a5,a5,0x3
ffffffc0503087dc:	97ba                	add	a5,a5,a4
ffffffc0503087de:	639c                	ld	a5,0(a5)
ffffffc0503087e0:	fcf43c23          	sd	a5,-40(s0)
ffffffc0503087e4:	a80d                	j	ffffffc050308816 <do_exit+0x58>
ffffffc0503087e6:	fd843783          	ld	a5,-40(s0)
ffffffc0503087ea:	63bc                	ld	a5,64(a5)
ffffffc0503087ec:	fcf43823          	sd	a5,-48(s0)
ffffffc0503087f0:	fd043783          	ld	a5,-48(s0)
ffffffc0503087f4:	fd878793          	addi	a5,a5,-40
ffffffc0503087f8:	fcf43423          	sd	a5,-56(s0)
ffffffc0503087fc:	fc843783          	ld	a5,-56(s0)
ffffffc050308800:	4bbc                	lw	a5,80(a5)
ffffffc050308802:	873e                	mv	a4,a5
ffffffc050308804:	4791                	li	a5,4
ffffffc050308806:	00f70863          	beq	a4,a5,ffffffc050308816 <do_exit+0x58>
ffffffc05030880a:	fd843783          	ld	a5,-40(s0)
ffffffc05030880e:	63bc                	ld	a5,64(a5)
ffffffc050308810:	853e                	mv	a0,a5
ffffffc050308812:	c83ff0ef          	jal	ra,ffffffc050308494 <do_unblock>
ffffffc050308816:	fd843783          	ld	a5,-40(s0)
ffffffc05030881a:	03878793          	addi	a5,a5,56
ffffffc05030881e:	853e                	mv	a0,a5
ffffffc050308820:	e28ff0ef          	jal	ra,ffffffc050307e48 <list_empty>
ffffffc050308824:	87aa                	mv	a5,a0
ffffffc050308826:	d3e1                	beqz	a5,ffffffc0503087e6 <do_exit+0x28>
ffffffc050308828:	fd843783          	ld	a5,-40(s0)
ffffffc05030882c:	0887a783          	lw	a5,136(a5)
ffffffc050308830:	fef42623          	sw	a5,-20(s0)
ffffffc050308834:	a00d                	j	ffffffc050308856 <do_exit+0x98>
ffffffc050308836:	fec42783          	lw	a5,-20(s0)
ffffffc05030883a:	37fd                	addiw	a5,a5,-1
ffffffc05030883c:	fef42623          	sw	a5,-20(s0)
ffffffc050308840:	fd843703          	ld	a4,-40(s0)
ffffffc050308844:	fec42783          	lw	a5,-20(s0)
ffffffc050308848:	07c9                	addi	a5,a5,18
ffffffc05030884a:	078e                	slli	a5,a5,0x3
ffffffc05030884c:	97ba                	add	a5,a5,a4
ffffffc05030884e:	639c                	ld	a5,0(a5)
ffffffc050308850:	853e                	mv	a0,a5
ffffffc050308852:	ff7fe0ef          	jal	ra,ffffffc050307848 <do_mutex_lock_release>
ffffffc050308856:	fec42783          	lw	a5,-20(s0)
ffffffc05030885a:	2781                	sext.w	a5,a5
ffffffc05030885c:	ffe9                	bnez	a5,ffffffc050308836 <do_exit+0x78>
ffffffc05030885e:	fd843783          	ld	a5,-40(s0)
ffffffc050308862:	6f9c                	ld	a5,24(a5)
ffffffc050308864:	853e                	mv	a0,a5
ffffffc050308866:	d4dff0ef          	jal	ra,ffffffc0503085b2 <recycle>
ffffffc05030886a:	fd843783          	ld	a5,-40(s0)
ffffffc05030886e:	739c                	ld	a5,32(a5)
ffffffc050308870:	853e                	mv	a0,a5
ffffffc050308872:	3c6010ef          	jal	ra,ffffffc050309c38 <freePage>
ffffffc050308876:	fd843783          	ld	a5,-40(s0)
ffffffc05030887a:	02878793          	addi	a5,a5,40
ffffffc05030887e:	00003597          	auipc	a1,0x3
ffffffc050308882:	5ea58593          	addi	a1,a1,1514 # ffffffc05030be68 <exit_queue>
ffffffc050308886:	853e                	mv	a0,a5
ffffffc050308888:	d64ff0ef          	jal	ra,ffffffc050307dec <list_add>
ffffffc05030888c:	fd843783          	ld	a5,-40(s0)
ffffffc050308890:	4711                	li	a4,4
ffffffc050308892:	cbb8                	sw	a4,80(a5)
ffffffc050308894:	fd843783          	ld	a5,-40(s0)
ffffffc050308898:	0407a423          	sw	zero,72(a5)
ffffffc05030889c:	8a1ff0ef          	jal	ra,ffffffc05030813c <do_scheduler>
ffffffc0503088a0:	0001                	nop
ffffffc0503088a2:	70e2                	ld	ra,56(sp)
ffffffc0503088a4:	7442                	ld	s0,48(sp)
ffffffc0503088a6:	6121                	addi	sp,sp,64
ffffffc0503088a8:	8082                	ret

ffffffc0503088aa <do_kill>:
ffffffc0503088aa:	715d                	addi	sp,sp,-80
ffffffc0503088ac:	e486                	sd	ra,72(sp)
ffffffc0503088ae:	e0a2                	sd	s0,64(sp)
ffffffc0503088b0:	0880                	addi	s0,sp,80
ffffffc0503088b2:	87aa                	mv	a5,a0
ffffffc0503088b4:	faf42e23          	sw	a5,-68(s0)
ffffffc0503088b8:	fe042623          	sw	zero,-20(s0)
ffffffc0503088bc:	a031                	j	ffffffc0503088c8 <do_kill+0x1e>
ffffffc0503088be:	fec42783          	lw	a5,-20(s0)
ffffffc0503088c2:	2785                	addiw	a5,a5,1
ffffffc0503088c4:	fef42623          	sw	a5,-20(s0)
ffffffc0503088c8:	00031697          	auipc	a3,0x31
ffffffc0503088cc:	c0868693          	addi	a3,a3,-1016 # ffffffc0503394d0 <pcb>
ffffffc0503088d0:	fec42703          	lw	a4,-20(s0)
ffffffc0503088d4:	87ba                	mv	a5,a4
ffffffc0503088d6:	0792                	slli	a5,a5,0x4
ffffffc0503088d8:	8f99                	sub	a5,a5,a4
ffffffc0503088da:	0792                	slli	a5,a5,0x4
ffffffc0503088dc:	97b6                	add	a5,a5,a3
ffffffc0503088de:	47b8                	lw	a4,72(a5)
ffffffc0503088e0:	fbc42783          	lw	a5,-68(s0)
ffffffc0503088e4:	2781                	sext.w	a5,a5
ffffffc0503088e6:	00e78963          	beq	a5,a4,ffffffc0503088f8 <do_kill+0x4e>
ffffffc0503088ea:	fec42783          	lw	a5,-20(s0)
ffffffc0503088ee:	0007871b          	sext.w	a4,a5
ffffffc0503088f2:	47bd                	li	a5,15
ffffffc0503088f4:	fce7d5e3          	bge	a5,a4,ffffffc0503088be <do_kill+0x14>
ffffffc0503088f8:	fec42783          	lw	a5,-20(s0)
ffffffc0503088fc:	0007871b          	sext.w	a4,a5
ffffffc050308900:	47c1                	li	a5,16
ffffffc050308902:	00f71463          	bne	a4,a5,ffffffc05030890a <do_kill+0x60>
ffffffc050308906:	4781                	li	a5,0
ffffffc050308908:	aa21                	j	ffffffc050308a20 <do_kill+0x176>
ffffffc05030890a:	fec42703          	lw	a4,-20(s0)
ffffffc05030890e:	87ba                	mv	a5,a4
ffffffc050308910:	0792                	slli	a5,a5,0x4
ffffffc050308912:	8f99                	sub	a5,a5,a4
ffffffc050308914:	0792                	slli	a5,a5,0x4
ffffffc050308916:	00031717          	auipc	a4,0x31
ffffffc05030891a:	bba70713          	addi	a4,a4,-1094 # ffffffc0503394d0 <pcb>
ffffffc05030891e:	97ba                	add	a5,a5,a4
ffffffc050308920:	fef43023          	sd	a5,-32(s0)
ffffffc050308924:	fe043783          	ld	a5,-32(s0)
ffffffc050308928:	02878793          	addi	a5,a5,40
ffffffc05030892c:	853e                	mv	a0,a5
ffffffc05030892e:	c74ff0ef          	jal	ra,ffffffc050307da2 <list_del>
ffffffc050308932:	fe043783          	ld	a5,-32(s0)
ffffffc050308936:	06078793          	addi	a5,a5,96
ffffffc05030893a:	853e                	mv	a0,a5
ffffffc05030893c:	c66ff0ef          	jal	ra,ffffffc050307da2 <list_del>
ffffffc050308940:	a80d                	j	ffffffc050308972 <do_kill+0xc8>
ffffffc050308942:	fe043783          	ld	a5,-32(s0)
ffffffc050308946:	63bc                	ld	a5,64(a5)
ffffffc050308948:	fcf43823          	sd	a5,-48(s0)
ffffffc05030894c:	fd043783          	ld	a5,-48(s0)
ffffffc050308950:	fd878793          	addi	a5,a5,-40
ffffffc050308954:	fcf43423          	sd	a5,-56(s0)
ffffffc050308958:	fc843783          	ld	a5,-56(s0)
ffffffc05030895c:	4bbc                	lw	a5,80(a5)
ffffffc05030895e:	873e                	mv	a4,a5
ffffffc050308960:	4791                	li	a5,4
ffffffc050308962:	00f70863          	beq	a4,a5,ffffffc050308972 <do_kill+0xc8>
ffffffc050308966:	fe043783          	ld	a5,-32(s0)
ffffffc05030896a:	63bc                	ld	a5,64(a5)
ffffffc05030896c:	853e                	mv	a0,a5
ffffffc05030896e:	b27ff0ef          	jal	ra,ffffffc050308494 <do_unblock>
ffffffc050308972:	fe043783          	ld	a5,-32(s0)
ffffffc050308976:	03878793          	addi	a5,a5,56
ffffffc05030897a:	853e                	mv	a0,a5
ffffffc05030897c:	cccff0ef          	jal	ra,ffffffc050307e48 <list_empty>
ffffffc050308980:	87aa                	mv	a5,a0
ffffffc050308982:	d3e1                	beqz	a5,ffffffc050308942 <do_kill+0x98>
ffffffc050308984:	fe043783          	ld	a5,-32(s0)
ffffffc050308988:	0887a783          	lw	a5,136(a5)
ffffffc05030898c:	fef42623          	sw	a5,-20(s0)
ffffffc050308990:	a00d                	j	ffffffc0503089b2 <do_kill+0x108>
ffffffc050308992:	fec42783          	lw	a5,-20(s0)
ffffffc050308996:	37fd                	addiw	a5,a5,-1
ffffffc050308998:	fef42623          	sw	a5,-20(s0)
ffffffc05030899c:	fe043703          	ld	a4,-32(s0)
ffffffc0503089a0:	fec42783          	lw	a5,-20(s0)
ffffffc0503089a4:	07c9                	addi	a5,a5,18
ffffffc0503089a6:	078e                	slli	a5,a5,0x3
ffffffc0503089a8:	97ba                	add	a5,a5,a4
ffffffc0503089aa:	639c                	ld	a5,0(a5)
ffffffc0503089ac:	853e                	mv	a0,a5
ffffffc0503089ae:	e9bfe0ef          	jal	ra,ffffffc050307848 <do_mutex_lock_release>
ffffffc0503089b2:	fec42783          	lw	a5,-20(s0)
ffffffc0503089b6:	2781                	sext.w	a5,a5
ffffffc0503089b8:	ffe9                	bnez	a5,ffffffc050308992 <do_kill+0xe8>
ffffffc0503089ba:	fe043783          	ld	a5,-32(s0)
ffffffc0503089be:	6f9c                	ld	a5,24(a5)
ffffffc0503089c0:	853e                	mv	a0,a5
ffffffc0503089c2:	bf1ff0ef          	jal	ra,ffffffc0503085b2 <recycle>
ffffffc0503089c6:	fe043783          	ld	a5,-32(s0)
ffffffc0503089ca:	739c                	ld	a5,32(a5)
ffffffc0503089cc:	853e                	mv	a0,a5
ffffffc0503089ce:	26a010ef          	jal	ra,ffffffc050309c38 <freePage>
ffffffc0503089d2:	fe043783          	ld	a5,-32(s0)
ffffffc0503089d6:	02878793          	addi	a5,a5,40
ffffffc0503089da:	00003597          	auipc	a1,0x3
ffffffc0503089de:	48e58593          	addi	a1,a1,1166 # ffffffc05030be68 <exit_queue>
ffffffc0503089e2:	853e                	mv	a0,a5
ffffffc0503089e4:	c08ff0ef          	jal	ra,ffffffc050307dec <list_add>
ffffffc0503089e8:	fe043783          	ld	a5,-32(s0)
ffffffc0503089ec:	4711                	li	a4,4
ffffffc0503089ee:	cbb8                	sw	a4,80(a5)
ffffffc0503089f0:	fe043783          	ld	a5,-32(s0)
ffffffc0503089f4:	0407a423          	sw	zero,72(a5)
ffffffc0503089f8:	8bdf70ef          	jal	ra,ffffffc0503002b4 <get_current_cpu_id>
ffffffc0503089fc:	fca43c23          	sd	a0,-40(s0)
ffffffc050308a00:	00040717          	auipc	a4,0x40
ffffffc050308a04:	b9870713          	addi	a4,a4,-1128 # ffffffc050348598 <current_running>
ffffffc050308a08:	fd843783          	ld	a5,-40(s0)
ffffffc050308a0c:	078e                	slli	a5,a5,0x3
ffffffc050308a0e:	97ba                	add	a5,a5,a4
ffffffc050308a10:	639c                	ld	a5,0(a5)
ffffffc050308a12:	fe043703          	ld	a4,-32(s0)
ffffffc050308a16:	00f71463          	bne	a4,a5,ffffffc050308a1e <do_kill+0x174>
ffffffc050308a1a:	f22ff0ef          	jal	ra,ffffffc05030813c <do_scheduler>
ffffffc050308a1e:	4785                	li	a5,1
ffffffc050308a20:	853e                	mv	a0,a5
ffffffc050308a22:	60a6                	ld	ra,72(sp)
ffffffc050308a24:	6406                	ld	s0,64(sp)
ffffffc050308a26:	6161                	addi	sp,sp,80
ffffffc050308a28:	8082                	ret

ffffffc050308a2a <do_waitpid>:
ffffffc050308a2a:	7179                	addi	sp,sp,-48
ffffffc050308a2c:	f406                	sd	ra,40(sp)
ffffffc050308a2e:	f022                	sd	s0,32(sp)
ffffffc050308a30:	1800                	addi	s0,sp,48
ffffffc050308a32:	87aa                	mv	a5,a0
ffffffc050308a34:	fcf42e23          	sw	a5,-36(s0)
ffffffc050308a38:	fe042623          	sw	zero,-20(s0)
ffffffc050308a3c:	a031                	j	ffffffc050308a48 <do_waitpid+0x1e>
ffffffc050308a3e:	fec42783          	lw	a5,-20(s0)
ffffffc050308a42:	2785                	addiw	a5,a5,1
ffffffc050308a44:	fef42623          	sw	a5,-20(s0)
ffffffc050308a48:	00031697          	auipc	a3,0x31
ffffffc050308a4c:	a8868693          	addi	a3,a3,-1400 # ffffffc0503394d0 <pcb>
ffffffc050308a50:	fec42703          	lw	a4,-20(s0)
ffffffc050308a54:	87ba                	mv	a5,a4
ffffffc050308a56:	0792                	slli	a5,a5,0x4
ffffffc050308a58:	8f99                	sub	a5,a5,a4
ffffffc050308a5a:	0792                	slli	a5,a5,0x4
ffffffc050308a5c:	97b6                	add	a5,a5,a3
ffffffc050308a5e:	47b8                	lw	a4,72(a5)
ffffffc050308a60:	fdc42783          	lw	a5,-36(s0)
ffffffc050308a64:	2781                	sext.w	a5,a5
ffffffc050308a66:	00e78963          	beq	a5,a4,ffffffc050308a78 <do_waitpid+0x4e>
ffffffc050308a6a:	fec42783          	lw	a5,-20(s0)
ffffffc050308a6e:	0007871b          	sext.w	a4,a5
ffffffc050308a72:	47bd                	li	a5,15
ffffffc050308a74:	fce7d5e3          	bge	a5,a4,ffffffc050308a3e <do_waitpid+0x14>
ffffffc050308a78:	fec42783          	lw	a5,-20(s0)
ffffffc050308a7c:	0007871b          	sext.w	a4,a5
ffffffc050308a80:	47c1                	li	a5,16
ffffffc050308a82:	00f71463          	bne	a4,a5,ffffffc050308a8a <do_waitpid+0x60>
ffffffc050308a86:	4781                	li	a5,0
ffffffc050308a88:	a099                	j	ffffffc050308ace <do_waitpid+0xa4>
ffffffc050308a8a:	82bf70ef          	jal	ra,ffffffc0503002b4 <get_current_cpu_id>
ffffffc050308a8e:	fea43023          	sd	a0,-32(s0)
ffffffc050308a92:	00040717          	auipc	a4,0x40
ffffffc050308a96:	b0670713          	addi	a4,a4,-1274 # ffffffc050348598 <current_running>
ffffffc050308a9a:	fe043783          	ld	a5,-32(s0)
ffffffc050308a9e:	078e                	slli	a5,a5,0x3
ffffffc050308aa0:	97ba                	add	a5,a5,a4
ffffffc050308aa2:	639c                	ld	a5,0(a5)
ffffffc050308aa4:	02878693          	addi	a3,a5,40
ffffffc050308aa8:	fec42703          	lw	a4,-20(s0)
ffffffc050308aac:	87ba                	mv	a5,a4
ffffffc050308aae:	0792                	slli	a5,a5,0x4
ffffffc050308ab0:	8f99                	sub	a5,a5,a4
ffffffc050308ab2:	0792                	slli	a5,a5,0x4
ffffffc050308ab4:	03078713          	addi	a4,a5,48
ffffffc050308ab8:	00031797          	auipc	a5,0x31
ffffffc050308abc:	a1878793          	addi	a5,a5,-1512 # ffffffc0503394d0 <pcb>
ffffffc050308ac0:	97ba                	add	a5,a5,a4
ffffffc050308ac2:	07a1                	addi	a5,a5,8
ffffffc050308ac4:	85be                	mv	a1,a5
ffffffc050308ac6:	8536                	mv	a0,a3
ffffffc050308ac8:	987ff0ef          	jal	ra,ffffffc05030844e <do_block>
ffffffc050308acc:	4785                	li	a5,1
ffffffc050308ace:	853e                	mv	a0,a5
ffffffc050308ad0:	70a2                	ld	ra,40(sp)
ffffffc050308ad2:	7402                	ld	s0,32(sp)
ffffffc050308ad4:	6145                	addi	sp,sp,48
ffffffc050308ad6:	8082                	ret

ffffffc050308ad8 <do_process_show>:
ffffffc050308ad8:	1101                	addi	sp,sp,-32
ffffffc050308ada:	ec06                	sd	ra,24(sp)
ffffffc050308adc:	e822                	sd	s0,16(sp)
ffffffc050308ade:	1000                	addi	s0,sp,32
ffffffc050308ae0:	00003517          	auipc	a0,0x3
ffffffc050308ae4:	fe050513          	addi	a0,a0,-32 # ffffffc05030bac0 <__FUNCTION__.1399+0x20>
ffffffc050308ae8:	170020ef          	jal	ra,ffffffc05030ac58 <prints>
ffffffc050308aec:	fe042423          	sw	zero,-24(s0)
ffffffc050308af0:	fe842783          	lw	a5,-24(s0)
ffffffc050308af4:	fef42623          	sw	a5,-20(s0)
ffffffc050308af8:	a271                	j	ffffffc050308c84 <do_process_show+0x1ac>
ffffffc050308afa:	00031697          	auipc	a3,0x31
ffffffc050308afe:	9d668693          	addi	a3,a3,-1578 # ffffffc0503394d0 <pcb>
ffffffc050308b02:	fec42703          	lw	a4,-20(s0)
ffffffc050308b06:	87ba                	mv	a5,a4
ffffffc050308b08:	0792                	slli	a5,a5,0x4
ffffffc050308b0a:	8f99                	sub	a5,a5,a4
ffffffc050308b0c:	0792                	slli	a5,a5,0x4
ffffffc050308b0e:	97b6                	add	a5,a5,a3
ffffffc050308b10:	4bbc                	lw	a5,80(a5)
ffffffc050308b12:	873e                	mv	a4,a5
ffffffc050308b14:	4785                	li	a5,1
ffffffc050308b16:	08f71463          	bne	a4,a5,ffffffc050308b9e <do_process_show+0xc6>
ffffffc050308b1a:	fec42703          	lw	a4,-20(s0)
ffffffc050308b1e:	87ba                	mv	a5,a4
ffffffc050308b20:	0792                	slli	a5,a5,0x4
ffffffc050308b22:	8f99                	sub	a5,a5,a4
ffffffc050308b24:	0792                	slli	a5,a5,0x4
ffffffc050308b26:	00031717          	auipc	a4,0x31
ffffffc050308b2a:	9aa70713          	addi	a4,a4,-1622 # ffffffc0503394d0 <pcb>
ffffffc050308b2e:	973e                	add	a4,a4,a5
ffffffc050308b30:	00040797          	auipc	a5,0x40
ffffffc050308b34:	a6878793          	addi	a5,a5,-1432 # ffffffc050348598 <current_running>
ffffffc050308b38:	639c                	ld	a5,0(a5)
ffffffc050308b3a:	00f71563          	bne	a4,a5,ffffffc050308b44 <do_process_show+0x6c>
ffffffc050308b3e:	fe042223          	sw	zero,-28(s0)
ffffffc050308b42:	a021                	j	ffffffc050308b4a <do_process_show+0x72>
ffffffc050308b44:	4785                	li	a5,1
ffffffc050308b46:	fef42223          	sw	a5,-28(s0)
ffffffc050308b4a:	00031697          	auipc	a3,0x31
ffffffc050308b4e:	98668693          	addi	a3,a3,-1658 # ffffffc0503394d0 <pcb>
ffffffc050308b52:	fec42703          	lw	a4,-20(s0)
ffffffc050308b56:	87ba                	mv	a5,a4
ffffffc050308b58:	0792                	slli	a5,a5,0x4
ffffffc050308b5a:	8f99                	sub	a5,a5,a4
ffffffc050308b5c:	0792                	slli	a5,a5,0x4
ffffffc050308b5e:	97b6                	add	a5,a5,a3
ffffffc050308b60:	47b0                	lw	a2,72(a5)
ffffffc050308b62:	00031697          	auipc	a3,0x31
ffffffc050308b66:	96e68693          	addi	a3,a3,-1682 # ffffffc0503394d0 <pcb>
ffffffc050308b6a:	fec42703          	lw	a4,-20(s0)
ffffffc050308b6e:	87ba                	mv	a5,a4
ffffffc050308b70:	0792                	slli	a5,a5,0x4
ffffffc050308b72:	8f99                	sub	a5,a5,a4
ffffffc050308b74:	0792                	slli	a5,a5,0x4
ffffffc050308b76:	97b6                	add	a5,a5,a3
ffffffc050308b78:	0e07a683          	lw	a3,224(a5)
ffffffc050308b7c:	fe442703          	lw	a4,-28(s0)
ffffffc050308b80:	fe842783          	lw	a5,-24(s0)
ffffffc050308b84:	85be                	mv	a1,a5
ffffffc050308b86:	00003517          	auipc	a0,0x3
ffffffc050308b8a:	f5250513          	addi	a0,a0,-174 # ffffffc05030bad8 <__FUNCTION__.1399+0x38>
ffffffc050308b8e:	0ca020ef          	jal	ra,ffffffc05030ac58 <prints>
ffffffc050308b92:	fe842783          	lw	a5,-24(s0)
ffffffc050308b96:	2785                	addiw	a5,a5,1
ffffffc050308b98:	fef42423          	sw	a5,-24(s0)
ffffffc050308b9c:	a8f9                	j	ffffffc050308c7a <do_process_show+0x1a2>
ffffffc050308b9e:	00031697          	auipc	a3,0x31
ffffffc050308ba2:	93268693          	addi	a3,a3,-1742 # ffffffc0503394d0 <pcb>
ffffffc050308ba6:	fec42703          	lw	a4,-20(s0)
ffffffc050308baa:	87ba                	mv	a5,a4
ffffffc050308bac:	0792                	slli	a5,a5,0x4
ffffffc050308bae:	8f99                	sub	a5,a5,a4
ffffffc050308bb0:	0792                	slli	a5,a5,0x4
ffffffc050308bb2:	97b6                	add	a5,a5,a3
ffffffc050308bb4:	4bbc                	lw	a5,80(a5)
ffffffc050308bb6:	873e                	mv	a4,a5
ffffffc050308bb8:	4789                	li	a5,2
ffffffc050308bba:	04f71b63          	bne	a4,a5,ffffffc050308c10 <do_process_show+0x138>
ffffffc050308bbe:	00031697          	auipc	a3,0x31
ffffffc050308bc2:	91268693          	addi	a3,a3,-1774 # ffffffc0503394d0 <pcb>
ffffffc050308bc6:	fec42703          	lw	a4,-20(s0)
ffffffc050308bca:	87ba                	mv	a5,a4
ffffffc050308bcc:	0792                	slli	a5,a5,0x4
ffffffc050308bce:	8f99                	sub	a5,a5,a4
ffffffc050308bd0:	0792                	slli	a5,a5,0x4
ffffffc050308bd2:	97b6                	add	a5,a5,a3
ffffffc050308bd4:	47b0                	lw	a2,72(a5)
ffffffc050308bd6:	00031697          	auipc	a3,0x31
ffffffc050308bda:	8fa68693          	addi	a3,a3,-1798 # ffffffc0503394d0 <pcb>
ffffffc050308bde:	fec42703          	lw	a4,-20(s0)
ffffffc050308be2:	87ba                	mv	a5,a4
ffffffc050308be4:	0792                	slli	a5,a5,0x4
ffffffc050308be6:	8f99                	sub	a5,a5,a4
ffffffc050308be8:	0792                	slli	a5,a5,0x4
ffffffc050308bea:	97b6                	add	a5,a5,a3
ffffffc050308bec:	0e07a703          	lw	a4,224(a5)
ffffffc050308bf0:	fe842783          	lw	a5,-24(s0)
ffffffc050308bf4:	86ba                	mv	a3,a4
ffffffc050308bf6:	85be                	mv	a1,a5
ffffffc050308bf8:	00003517          	auipc	a0,0x3
ffffffc050308bfc:	f1850513          	addi	a0,a0,-232 # ffffffc05030bb10 <__FUNCTION__.1399+0x70>
ffffffc050308c00:	058020ef          	jal	ra,ffffffc05030ac58 <prints>
ffffffc050308c04:	fe842783          	lw	a5,-24(s0)
ffffffc050308c08:	2785                	addiw	a5,a5,1
ffffffc050308c0a:	fef42423          	sw	a5,-24(s0)
ffffffc050308c0e:	a0b5                	j	ffffffc050308c7a <do_process_show+0x1a2>
ffffffc050308c10:	00031697          	auipc	a3,0x31
ffffffc050308c14:	8c068693          	addi	a3,a3,-1856 # ffffffc0503394d0 <pcb>
ffffffc050308c18:	fec42703          	lw	a4,-20(s0)
ffffffc050308c1c:	87ba                	mv	a5,a4
ffffffc050308c1e:	0792                	slli	a5,a5,0x4
ffffffc050308c20:	8f99                	sub	a5,a5,a4
ffffffc050308c22:	0792                	slli	a5,a5,0x4
ffffffc050308c24:	97b6                	add	a5,a5,a3
ffffffc050308c26:	4bbc                	lw	a5,80(a5)
ffffffc050308c28:	eba9                	bnez	a5,ffffffc050308c7a <do_process_show+0x1a2>
ffffffc050308c2a:	00031697          	auipc	a3,0x31
ffffffc050308c2e:	8a668693          	addi	a3,a3,-1882 # ffffffc0503394d0 <pcb>
ffffffc050308c32:	fec42703          	lw	a4,-20(s0)
ffffffc050308c36:	87ba                	mv	a5,a4
ffffffc050308c38:	0792                	slli	a5,a5,0x4
ffffffc050308c3a:	8f99                	sub	a5,a5,a4
ffffffc050308c3c:	0792                	slli	a5,a5,0x4
ffffffc050308c3e:	97b6                	add	a5,a5,a3
ffffffc050308c40:	47b0                	lw	a2,72(a5)
ffffffc050308c42:	00031697          	auipc	a3,0x31
ffffffc050308c46:	88e68693          	addi	a3,a3,-1906 # ffffffc0503394d0 <pcb>
ffffffc050308c4a:	fec42703          	lw	a4,-20(s0)
ffffffc050308c4e:	87ba                	mv	a5,a4
ffffffc050308c50:	0792                	slli	a5,a5,0x4
ffffffc050308c52:	8f99                	sub	a5,a5,a4
ffffffc050308c54:	0792                	slli	a5,a5,0x4
ffffffc050308c56:	97b6                	add	a5,a5,a3
ffffffc050308c58:	0e07a703          	lw	a4,224(a5)
ffffffc050308c5c:	fe842783          	lw	a5,-24(s0)
ffffffc050308c60:	86ba                	mv	a3,a4
ffffffc050308c62:	85be                	mv	a1,a5
ffffffc050308c64:	00003517          	auipc	a0,0x3
ffffffc050308c68:	edc50513          	addi	a0,a0,-292 # ffffffc05030bb40 <__FUNCTION__.1399+0xa0>
ffffffc050308c6c:	7ed010ef          	jal	ra,ffffffc05030ac58 <prints>
ffffffc050308c70:	fe842783          	lw	a5,-24(s0)
ffffffc050308c74:	2785                	addiw	a5,a5,1
ffffffc050308c76:	fef42423          	sw	a5,-24(s0)
ffffffc050308c7a:	fec42783          	lw	a5,-20(s0)
ffffffc050308c7e:	2785                	addiw	a5,a5,1
ffffffc050308c80:	fef42623          	sw	a5,-20(s0)
ffffffc050308c84:	0002f797          	auipc	a5,0x2f
ffffffc050308c88:	8bc78793          	addi	a5,a5,-1860 # ffffffc050337540 <_edata>
ffffffc050308c8c:	4398                	lw	a4,0(a5)
ffffffc050308c8e:	fec42783          	lw	a5,-20(s0)
ffffffc050308c92:	2781                	sext.w	a5,a5
ffffffc050308c94:	e6e7c3e3          	blt	a5,a4,ffffffc050308afa <do_process_show+0x22>
ffffffc050308c98:	0001                	nop
ffffffc050308c9a:	0001                	nop
ffffffc050308c9c:	60e2                	ld	ra,24(sp)
ffffffc050308c9e:	6442                	ld	s0,16(sp)
ffffffc050308ca0:	6105                	addi	sp,sp,32
ffffffc050308ca2:	8082                	ret

ffffffc050308ca4 <do_getpid>:
ffffffc050308ca4:	1101                	addi	sp,sp,-32
ffffffc050308ca6:	ec06                	sd	ra,24(sp)
ffffffc050308ca8:	e822                	sd	s0,16(sp)
ffffffc050308caa:	1000                	addi	s0,sp,32
ffffffc050308cac:	e08f70ef          	jal	ra,ffffffc0503002b4 <get_current_cpu_id>
ffffffc050308cb0:	fea43423          	sd	a0,-24(s0)
ffffffc050308cb4:	00040717          	auipc	a4,0x40
ffffffc050308cb8:	8e470713          	addi	a4,a4,-1820 # ffffffc050348598 <current_running>
ffffffc050308cbc:	fe843783          	ld	a5,-24(s0)
ffffffc050308cc0:	078e                	slli	a5,a5,0x3
ffffffc050308cc2:	97ba                	add	a5,a5,a4
ffffffc050308cc4:	639c                	ld	a5,0(a5)
ffffffc050308cc6:	47bc                	lw	a5,72(a5)
ffffffc050308cc8:	853e                	mv	a0,a5
ffffffc050308cca:	60e2                	ld	ra,24(sp)
ffffffc050308ccc:	6442                	ld	s0,16(sp)
ffffffc050308cce:	6105                	addi	sp,sp,32
ffffffc050308cd0:	8082                	ret

ffffffc050308cd2 <do_cond_wait>:
ffffffc050308cd2:	7179                	addi	sp,sp,-48
ffffffc050308cd4:	f406                	sd	ra,40(sp)
ffffffc050308cd6:	f022                	sd	s0,32(sp)
ffffffc050308cd8:	1800                	addi	s0,sp,48
ffffffc050308cda:	fca43c23          	sd	a0,-40(s0)
ffffffc050308cde:	fcb43823          	sd	a1,-48(s0)
ffffffc050308ce2:	dd2f70ef          	jal	ra,ffffffc0503002b4 <get_current_cpu_id>
ffffffc050308ce6:	fea43423          	sd	a0,-24(s0)
ffffffc050308cea:	00040717          	auipc	a4,0x40
ffffffc050308cee:	8ae70713          	addi	a4,a4,-1874 # ffffffc050348598 <current_running>
ffffffc050308cf2:	fe843783          	ld	a5,-24(s0)
ffffffc050308cf6:	078e                	slli	a5,a5,0x3
ffffffc050308cf8:	97ba                	add	a5,a5,a4
ffffffc050308cfa:	639c                	ld	a5,0(a5)
ffffffc050308cfc:	0407a823          	sw	zero,80(a5)
ffffffc050308d00:	00040717          	auipc	a4,0x40
ffffffc050308d04:	89870713          	addi	a4,a4,-1896 # ffffffc050348598 <current_running>
ffffffc050308d08:	fe843783          	ld	a5,-24(s0)
ffffffc050308d0c:	078e                	slli	a5,a5,0x3
ffffffc050308d0e:	97ba                	add	a5,a5,a4
ffffffc050308d10:	639c                	ld	a5,0(a5)
ffffffc050308d12:	02878793          	addi	a5,a5,40
ffffffc050308d16:	fd843703          	ld	a4,-40(s0)
ffffffc050308d1a:	85ba                	mv	a1,a4
ffffffc050308d1c:	853e                	mv	a0,a5
ffffffc050308d1e:	8ceff0ef          	jal	ra,ffffffc050307dec <list_add>
ffffffc050308d22:	fd043783          	ld	a5,-48(s0)
ffffffc050308d26:	439c                	lw	a5,0(a5)
ffffffc050308d28:	4585                	li	a1,1
ffffffc050308d2a:	853e                	mv	a0,a5
ffffffc050308d2c:	fdaff0ef          	jal	ra,ffffffc050308506 <do_binsemop>
ffffffc050308d30:	c0cff0ef          	jal	ra,ffffffc05030813c <do_scheduler>
ffffffc050308d34:	fd043783          	ld	a5,-48(s0)
ffffffc050308d38:	439c                	lw	a5,0(a5)
ffffffc050308d3a:	4581                	li	a1,0
ffffffc050308d3c:	853e                	mv	a0,a5
ffffffc050308d3e:	fc8ff0ef          	jal	ra,ffffffc050308506 <do_binsemop>
ffffffc050308d42:	4785                	li	a5,1
ffffffc050308d44:	853e                	mv	a0,a5
ffffffc050308d46:	70a2                	ld	ra,40(sp)
ffffffc050308d48:	7402                	ld	s0,32(sp)
ffffffc050308d4a:	6145                	addi	sp,sp,48
ffffffc050308d4c:	8082                	ret

ffffffc050308d4e <do_cond_signal>:
ffffffc050308d4e:	1101                	addi	sp,sp,-32
ffffffc050308d50:	ec06                	sd	ra,24(sp)
ffffffc050308d52:	e822                	sd	s0,16(sp)
ffffffc050308d54:	1000                	addi	s0,sp,32
ffffffc050308d56:	fea43423          	sd	a0,-24(s0)
ffffffc050308d5a:	fe843783          	ld	a5,-24(s0)
ffffffc050308d5e:	853e                	mv	a0,a5
ffffffc050308d60:	8e8ff0ef          	jal	ra,ffffffc050307e48 <list_empty>
ffffffc050308d64:	87aa                	mv	a5,a0
ffffffc050308d66:	e799                	bnez	a5,ffffffc050308d74 <do_cond_signal+0x26>
ffffffc050308d68:	fe843783          	ld	a5,-24(s0)
ffffffc050308d6c:	679c                	ld	a5,8(a5)
ffffffc050308d6e:	853e                	mv	a0,a5
ffffffc050308d70:	f24ff0ef          	jal	ra,ffffffc050308494 <do_unblock>
ffffffc050308d74:	4785                	li	a5,1
ffffffc050308d76:	853e                	mv	a0,a5
ffffffc050308d78:	60e2                	ld	ra,24(sp)
ffffffc050308d7a:	6442                	ld	s0,16(sp)
ffffffc050308d7c:	6105                	addi	sp,sp,32
ffffffc050308d7e:	8082                	ret

ffffffc050308d80 <do_cond_broadcast>:
ffffffc050308d80:	1101                	addi	sp,sp,-32
ffffffc050308d82:	ec06                	sd	ra,24(sp)
ffffffc050308d84:	e822                	sd	s0,16(sp)
ffffffc050308d86:	1000                	addi	s0,sp,32
ffffffc050308d88:	fea43423          	sd	a0,-24(s0)
ffffffc050308d8c:	a039                	j	ffffffc050308d9a <do_cond_broadcast+0x1a>
ffffffc050308d8e:	fe843783          	ld	a5,-24(s0)
ffffffc050308d92:	679c                	ld	a5,8(a5)
ffffffc050308d94:	853e                	mv	a0,a5
ffffffc050308d96:	efeff0ef          	jal	ra,ffffffc050308494 <do_unblock>
ffffffc050308d9a:	fe843783          	ld	a5,-24(s0)
ffffffc050308d9e:	853e                	mv	a0,a5
ffffffc050308da0:	8a8ff0ef          	jal	ra,ffffffc050307e48 <list_empty>
ffffffc050308da4:	87aa                	mv	a5,a0
ffffffc050308da6:	d7e5                	beqz	a5,ffffffc050308d8e <do_cond_broadcast+0xe>
ffffffc050308da8:	4785                	li	a5,1
ffffffc050308daa:	853e                	mv	a0,a5
ffffffc050308dac:	60e2                	ld	ra,24(sp)
ffffffc050308dae:	6442                	ld	s0,16(sp)
ffffffc050308db0:	6105                	addi	sp,sp,32
ffffffc050308db2:	8082                	ret

ffffffc050308db4 <do_barrier_wait>:
ffffffc050308db4:	7179                	addi	sp,sp,-48
ffffffc050308db6:	f406                	sd	ra,40(sp)
ffffffc050308db8:	f022                	sd	s0,32(sp)
ffffffc050308dba:	1800                	addi	s0,sp,48
ffffffc050308dbc:	fca43c23          	sd	a0,-40(s0)
ffffffc050308dc0:	fd843783          	ld	a5,-40(s0)
ffffffc050308dc4:	43dc                	lw	a5,4(a5)
ffffffc050308dc6:	2785                	addiw	a5,a5,1
ffffffc050308dc8:	0007871b          	sext.w	a4,a5
ffffffc050308dcc:	fd843783          	ld	a5,-40(s0)
ffffffc050308dd0:	c3d8                	sw	a4,4(a5)
ffffffc050308dd2:	fd843783          	ld	a5,-40(s0)
ffffffc050308dd6:	4398                	lw	a4,0(a5)
ffffffc050308dd8:	fd843783          	ld	a5,-40(s0)
ffffffc050308ddc:	43dc                	lw	a5,4(a5)
ffffffc050308dde:	02f71663          	bne	a4,a5,ffffffc050308e0a <do_barrier_wait+0x56>
ffffffc050308de2:	a039                	j	ffffffc050308df0 <do_barrier_wait+0x3c>
ffffffc050308de4:	fd843783          	ld	a5,-40(s0)
ffffffc050308de8:	6b9c                	ld	a5,16(a5)
ffffffc050308dea:	853e                	mv	a0,a5
ffffffc050308dec:	ea8ff0ef          	jal	ra,ffffffc050308494 <do_unblock>
ffffffc050308df0:	fd843783          	ld	a5,-40(s0)
ffffffc050308df4:	07a1                	addi	a5,a5,8
ffffffc050308df6:	853e                	mv	a0,a5
ffffffc050308df8:	850ff0ef          	jal	ra,ffffffc050307e48 <list_empty>
ffffffc050308dfc:	87aa                	mv	a5,a0
ffffffc050308dfe:	d3fd                	beqz	a5,ffffffc050308de4 <do_barrier_wait+0x30>
ffffffc050308e00:	fd843783          	ld	a5,-40(s0)
ffffffc050308e04:	0007a223          	sw	zero,4(a5)
ffffffc050308e08:	a0a1                	j	ffffffc050308e50 <do_barrier_wait+0x9c>
ffffffc050308e0a:	caaf70ef          	jal	ra,ffffffc0503002b4 <get_current_cpu_id>
ffffffc050308e0e:	fea43423          	sd	a0,-24(s0)
ffffffc050308e12:	0003f717          	auipc	a4,0x3f
ffffffc050308e16:	78670713          	addi	a4,a4,1926 # ffffffc050348598 <current_running>
ffffffc050308e1a:	fe843783          	ld	a5,-24(s0)
ffffffc050308e1e:	078e                	slli	a5,a5,0x3
ffffffc050308e20:	97ba                	add	a5,a5,a4
ffffffc050308e22:	639c                	ld	a5,0(a5)
ffffffc050308e24:	0407a823          	sw	zero,80(a5)
ffffffc050308e28:	0003f717          	auipc	a4,0x3f
ffffffc050308e2c:	77070713          	addi	a4,a4,1904 # ffffffc050348598 <current_running>
ffffffc050308e30:	fe843783          	ld	a5,-24(s0)
ffffffc050308e34:	078e                	slli	a5,a5,0x3
ffffffc050308e36:	97ba                	add	a5,a5,a4
ffffffc050308e38:	639c                	ld	a5,0(a5)
ffffffc050308e3a:	02878713          	addi	a4,a5,40
ffffffc050308e3e:	fd843783          	ld	a5,-40(s0)
ffffffc050308e42:	07a1                	addi	a5,a5,8
ffffffc050308e44:	85be                	mv	a1,a5
ffffffc050308e46:	853a                	mv	a0,a4
ffffffc050308e48:	fa5fe0ef          	jal	ra,ffffffc050307dec <list_add>
ffffffc050308e4c:	af0ff0ef          	jal	ra,ffffffc05030813c <do_scheduler>
ffffffc050308e50:	4785                	li	a5,1
ffffffc050308e52:	853e                	mv	a0,a5
ffffffc050308e54:	70a2                	ld	ra,40(sp)
ffffffc050308e56:	7402                	ld	s0,32(sp)
ffffffc050308e58:	6145                	addi	sp,sp,48
ffffffc050308e5a:	8082                	ret

ffffffc050308e5c <do_mbox_open>:
ffffffc050308e5c:	7179                	addi	sp,sp,-48
ffffffc050308e5e:	f406                	sd	ra,40(sp)
ffffffc050308e60:	f022                	sd	s0,32(sp)
ffffffc050308e62:	1800                	addi	s0,sp,48
ffffffc050308e64:	fca43c23          	sd	a0,-40(s0)
ffffffc050308e68:	fe042623          	sw	zero,-20(s0)
ffffffc050308e6c:	a81d                	j	ffffffc050308ea2 <do_mbox_open+0x46>
ffffffc050308e6e:	fec42703          	lw	a4,-20(s0)
ffffffc050308e72:	87ba                	mv	a5,a4
ffffffc050308e74:	0792                	slli	a5,a5,0x4
ffffffc050308e76:	97ba                	add	a5,a5,a4
ffffffc050308e78:	078e                	slli	a5,a5,0x3
ffffffc050308e7a:	0003f717          	auipc	a4,0x3f
ffffffc050308e7e:	72e70713          	addi	a4,a4,1838 # ffffffc0503485a8 <mailbox_k>
ffffffc050308e82:	97ba                	add	a5,a5,a4
ffffffc050308e84:	85be                	mv	a1,a5
ffffffc050308e86:	fd843503          	ld	a0,-40(s0)
ffffffc050308e8a:	182010ef          	jal	ra,ffffffc05030a00c <kstrcmp>
ffffffc050308e8e:	87aa                	mv	a5,a0
ffffffc050308e90:	e781                	bnez	a5,ffffffc050308e98 <do_mbox_open+0x3c>
ffffffc050308e92:	fec42783          	lw	a5,-20(s0)
ffffffc050308e96:	a8c5                	j	ffffffc050308f86 <do_mbox_open+0x12a>
ffffffc050308e98:	fec42783          	lw	a5,-20(s0)
ffffffc050308e9c:	2785                	addiw	a5,a5,1
ffffffc050308e9e:	fef42623          	sw	a5,-20(s0)
ffffffc050308ea2:	fec42783          	lw	a5,-20(s0)
ffffffc050308ea6:	0007871b          	sext.w	a4,a5
ffffffc050308eaa:	47bd                	li	a5,15
ffffffc050308eac:	fce7d1e3          	bge	a5,a4,ffffffc050308e6e <do_mbox_open+0x12>
ffffffc050308eb0:	fe042623          	sw	zero,-20(s0)
ffffffc050308eb4:	a85d                	j	ffffffc050308f6a <do_mbox_open+0x10e>
ffffffc050308eb6:	0003f697          	auipc	a3,0x3f
ffffffc050308eba:	6f268693          	addi	a3,a3,1778 # ffffffc0503485a8 <mailbox_k>
ffffffc050308ebe:	fec42703          	lw	a4,-20(s0)
ffffffc050308ec2:	87ba                	mv	a5,a4
ffffffc050308ec4:	0792                	slli	a5,a5,0x4
ffffffc050308ec6:	97ba                	add	a5,a5,a4
ffffffc050308ec8:	078e                	slli	a5,a5,0x3
ffffffc050308eca:	97b6                	add	a5,a5,a3
ffffffc050308ecc:	53fc                	lw	a5,100(a5)
ffffffc050308ece:	873e                	mv	a4,a5
ffffffc050308ed0:	4785                	li	a5,1
ffffffc050308ed2:	08f71763          	bne	a4,a5,ffffffc050308f60 <do_mbox_open+0x104>
ffffffc050308ed6:	0003f697          	auipc	a3,0x3f
ffffffc050308eda:	6d268693          	addi	a3,a3,1746 # ffffffc0503485a8 <mailbox_k>
ffffffc050308ede:	fec42703          	lw	a4,-20(s0)
ffffffc050308ee2:	87ba                	mv	a5,a4
ffffffc050308ee4:	0792                	slli	a5,a5,0x4
ffffffc050308ee6:	97ba                	add	a5,a5,a4
ffffffc050308ee8:	078e                	slli	a5,a5,0x3
ffffffc050308eea:	97b6                	add	a5,a5,a3
ffffffc050308eec:	0607a223          	sw	zero,100(a5)
ffffffc050308ef0:	fe042423          	sw	zero,-24(s0)
ffffffc050308ef4:	a835                	j	ffffffc050308f30 <do_mbox_open+0xd4>
ffffffc050308ef6:	fe842703          	lw	a4,-24(s0)
ffffffc050308efa:	0017079b          	addiw	a5,a4,1
ffffffc050308efe:	fef42423          	sw	a5,-24(s0)
ffffffc050308f02:	fd843783          	ld	a5,-40(s0)
ffffffc050308f06:	0007c603          	lbu	a2,0(a5)
ffffffc050308f0a:	0003f597          	auipc	a1,0x3f
ffffffc050308f0e:	69e58593          	addi	a1,a1,1694 # ffffffc0503485a8 <mailbox_k>
ffffffc050308f12:	fec42683          	lw	a3,-20(s0)
ffffffc050308f16:	87b6                	mv	a5,a3
ffffffc050308f18:	0792                	slli	a5,a5,0x4
ffffffc050308f1a:	97b6                	add	a5,a5,a3
ffffffc050308f1c:	078e                	slli	a5,a5,0x3
ffffffc050308f1e:	97ae                	add	a5,a5,a1
ffffffc050308f20:	97ba                	add	a5,a5,a4
ffffffc050308f22:	00c78023          	sb	a2,0(a5)
ffffffc050308f26:	fd843783          	ld	a5,-40(s0)
ffffffc050308f2a:	0785                	addi	a5,a5,1
ffffffc050308f2c:	fcf43c23          	sd	a5,-40(s0)
ffffffc050308f30:	fd843783          	ld	a5,-40(s0)
ffffffc050308f34:	0007c783          	lbu	a5,0(a5)
ffffffc050308f38:	ffdd                	bnez	a5,ffffffc050308ef6 <do_mbox_open+0x9a>
ffffffc050308f3a:	0003f617          	auipc	a2,0x3f
ffffffc050308f3e:	66e60613          	addi	a2,a2,1646 # ffffffc0503485a8 <mailbox_k>
ffffffc050308f42:	fe842683          	lw	a3,-24(s0)
ffffffc050308f46:	fec42703          	lw	a4,-20(s0)
ffffffc050308f4a:	87ba                	mv	a5,a4
ffffffc050308f4c:	0792                	slli	a5,a5,0x4
ffffffc050308f4e:	97ba                	add	a5,a5,a4
ffffffc050308f50:	078e                	slli	a5,a5,0x3
ffffffc050308f52:	97b2                	add	a5,a5,a2
ffffffc050308f54:	97b6                	add	a5,a5,a3
ffffffc050308f56:	00078023          	sb	zero,0(a5)
ffffffc050308f5a:	fec42783          	lw	a5,-20(s0)
ffffffc050308f5e:	a025                	j	ffffffc050308f86 <do_mbox_open+0x12a>
ffffffc050308f60:	fec42783          	lw	a5,-20(s0)
ffffffc050308f64:	2785                	addiw	a5,a5,1
ffffffc050308f66:	fef42623          	sw	a5,-20(s0)
ffffffc050308f6a:	fec42783          	lw	a5,-20(s0)
ffffffc050308f6e:	0007871b          	sext.w	a4,a5
ffffffc050308f72:	47bd                	li	a5,15
ffffffc050308f74:	f4e7d1e3          	bge	a5,a4,ffffffc050308eb6 <do_mbox_open+0x5a>
ffffffc050308f78:	00003517          	auipc	a0,0x3
ffffffc050308f7c:	bf850513          	addi	a0,a0,-1032 # ffffffc05030bb70 <__FUNCTION__.1399+0xd0>
ffffffc050308f80:	4d9010ef          	jal	ra,ffffffc05030ac58 <prints>
ffffffc050308f84:	57fd                	li	a5,-1
ffffffc050308f86:	853e                	mv	a0,a5
ffffffc050308f88:	70a2                	ld	ra,40(sp)
ffffffc050308f8a:	7402                	ld	s0,32(sp)
ffffffc050308f8c:	6145                	addi	sp,sp,48
ffffffc050308f8e:	8082                	ret

ffffffc050308f90 <do_mbox_close>:
ffffffc050308f90:	1101                	addi	sp,sp,-32
ffffffc050308f92:	ec22                	sd	s0,24(sp)
ffffffc050308f94:	1000                	addi	s0,sp,32
ffffffc050308f96:	87aa                	mv	a5,a0
ffffffc050308f98:	fef42623          	sw	a5,-20(s0)
ffffffc050308f9c:	0003f697          	auipc	a3,0x3f
ffffffc050308fa0:	60c68693          	addi	a3,a3,1548 # ffffffc0503485a8 <mailbox_k>
ffffffc050308fa4:	fec42703          	lw	a4,-20(s0)
ffffffc050308fa8:	87ba                	mv	a5,a4
ffffffc050308faa:	0792                	slli	a5,a5,0x4
ffffffc050308fac:	97ba                	add	a5,a5,a4
ffffffc050308fae:	078e                	slli	a5,a5,0x3
ffffffc050308fb0:	97b6                	add	a5,a5,a3
ffffffc050308fb2:	4705                	li	a4,1
ffffffc050308fb4:	d3f8                	sw	a4,100(a5)
ffffffc050308fb6:	0001                	nop
ffffffc050308fb8:	6462                	ld	s0,24(sp)
ffffffc050308fba:	6105                	addi	sp,sp,32
ffffffc050308fbc:	8082                	ret

ffffffc050308fbe <do_mbox_send>:
ffffffc050308fbe:	7179                	addi	sp,sp,-48
ffffffc050308fc0:	f406                	sd	ra,40(sp)
ffffffc050308fc2:	f022                	sd	s0,32(sp)
ffffffc050308fc4:	1800                	addi	s0,sp,48
ffffffc050308fc6:	87aa                	mv	a5,a0
ffffffc050308fc8:	fcb43823          	sd	a1,-48(s0)
ffffffc050308fcc:	8732                	mv	a4,a2
ffffffc050308fce:	fcf42e23          	sw	a5,-36(s0)
ffffffc050308fd2:	87ba                	mv	a5,a4
ffffffc050308fd4:	fcf42c23          	sw	a5,-40(s0)
ffffffc050308fd8:	0003f697          	auipc	a3,0x3f
ffffffc050308fdc:	5d068693          	addi	a3,a3,1488 # ffffffc0503485a8 <mailbox_k>
ffffffc050308fe0:	fdc42703          	lw	a4,-36(s0)
ffffffc050308fe4:	87ba                	mv	a5,a4
ffffffc050308fe6:	0792                	slli	a5,a5,0x4
ffffffc050308fe8:	97ba                	add	a5,a5,a4
ffffffc050308fea:	078e                	slli	a5,a5,0x3
ffffffc050308fec:	97b6                	add	a5,a5,a3
ffffffc050308fee:	4ffc                	lw	a5,92(a5)
ffffffc050308ff0:	fd842703          	lw	a4,-40(s0)
ffffffc050308ff4:	9fb9                	addw	a5,a5,a4
ffffffc050308ff6:	2781                	sext.w	a5,a5
ffffffc050308ff8:	873e                	mv	a4,a5
ffffffc050308ffa:	04000793          	li	a5,64
ffffffc050308ffe:	06e7d063          	bge	a5,a4,ffffffc05030905e <do_mbox_send+0xa0>
ffffffc050309002:	ab2f70ef          	jal	ra,ffffffc0503002b4 <get_current_cpu_id>
ffffffc050309006:	fea43023          	sd	a0,-32(s0)
ffffffc05030900a:	0003f717          	auipc	a4,0x3f
ffffffc05030900e:	58e70713          	addi	a4,a4,1422 # ffffffc050348598 <current_running>
ffffffc050309012:	fe043783          	ld	a5,-32(s0)
ffffffc050309016:	078e                	slli	a5,a5,0x3
ffffffc050309018:	97ba                	add	a5,a5,a4
ffffffc05030901a:	639c                	ld	a5,0(a5)
ffffffc05030901c:	0407a823          	sw	zero,80(a5)
ffffffc050309020:	0003f717          	auipc	a4,0x3f
ffffffc050309024:	57870713          	addi	a4,a4,1400 # ffffffc050348598 <current_running>
ffffffc050309028:	fe043783          	ld	a5,-32(s0)
ffffffc05030902c:	078e                	slli	a5,a5,0x3
ffffffc05030902e:	97ba                	add	a5,a5,a4
ffffffc050309030:	639c                	ld	a5,0(a5)
ffffffc050309032:	02878693          	addi	a3,a5,40
ffffffc050309036:	fdc42703          	lw	a4,-36(s0)
ffffffc05030903a:	87ba                	mv	a5,a4
ffffffc05030903c:	0792                	slli	a5,a5,0x4
ffffffc05030903e:	97ba                	add	a5,a5,a4
ffffffc050309040:	078e                	slli	a5,a5,0x3
ffffffc050309042:	07078713          	addi	a4,a5,112
ffffffc050309046:	0003f797          	auipc	a5,0x3f
ffffffc05030904a:	56278793          	addi	a5,a5,1378 # ffffffc0503485a8 <mailbox_k>
ffffffc05030904e:	97ba                	add	a5,a5,a4
ffffffc050309050:	07a1                	addi	a5,a5,8
ffffffc050309052:	85be                	mv	a1,a5
ffffffc050309054:	8536                	mv	a0,a3
ffffffc050309056:	d97fe0ef          	jal	ra,ffffffc050307dec <list_add>
ffffffc05030905a:	8e2ff0ef          	jal	ra,ffffffc05030813c <do_scheduler>
ffffffc05030905e:	fe042623          	sw	zero,-20(s0)
ffffffc050309062:	a885                	j	ffffffc0503090d2 <do_mbox_send+0x114>
ffffffc050309064:	fec42783          	lw	a5,-20(s0)
ffffffc050309068:	fd043703          	ld	a4,-48(s0)
ffffffc05030906c:	00f70633          	add	a2,a4,a5
ffffffc050309070:	0003f697          	auipc	a3,0x3f
ffffffc050309074:	53868693          	addi	a3,a3,1336 # ffffffc0503485a8 <mailbox_k>
ffffffc050309078:	fdc42703          	lw	a4,-36(s0)
ffffffc05030907c:	87ba                	mv	a5,a4
ffffffc05030907e:	0792                	slli	a5,a5,0x4
ffffffc050309080:	97ba                	add	a5,a5,a4
ffffffc050309082:	078e                	slli	a5,a5,0x3
ffffffc050309084:	97b6                	add	a5,a5,a3
ffffffc050309086:	4ff8                	lw	a4,92(a5)
ffffffc050309088:	0017079b          	addiw	a5,a4,1
ffffffc05030908c:	0007859b          	sext.w	a1,a5
ffffffc050309090:	0003f517          	auipc	a0,0x3f
ffffffc050309094:	51850513          	addi	a0,a0,1304 # ffffffc0503485a8 <mailbox_k>
ffffffc050309098:	fdc42683          	lw	a3,-36(s0)
ffffffc05030909c:	87b6                	mv	a5,a3
ffffffc05030909e:	0792                	slli	a5,a5,0x4
ffffffc0503090a0:	97b6                	add	a5,a5,a3
ffffffc0503090a2:	078e                	slli	a5,a5,0x3
ffffffc0503090a4:	97aa                	add	a5,a5,a0
ffffffc0503090a6:	cfec                	sw	a1,92(a5)
ffffffc0503090a8:	00064603          	lbu	a2,0(a2)
ffffffc0503090ac:	0003f597          	auipc	a1,0x3f
ffffffc0503090b0:	4fc58593          	addi	a1,a1,1276 # ffffffc0503485a8 <mailbox_k>
ffffffc0503090b4:	fdc42683          	lw	a3,-36(s0)
ffffffc0503090b8:	87b6                	mv	a5,a3
ffffffc0503090ba:	0792                	slli	a5,a5,0x4
ffffffc0503090bc:	97b6                	add	a5,a5,a3
ffffffc0503090be:	078e                	slli	a5,a5,0x3
ffffffc0503090c0:	97ae                	add	a5,a5,a1
ffffffc0503090c2:	97ba                	add	a5,a5,a4
ffffffc0503090c4:	00c78ca3          	sb	a2,25(a5)
ffffffc0503090c8:	fec42783          	lw	a5,-20(s0)
ffffffc0503090cc:	2785                	addiw	a5,a5,1
ffffffc0503090ce:	fef42623          	sw	a5,-20(s0)
ffffffc0503090d2:	fec42703          	lw	a4,-20(s0)
ffffffc0503090d6:	fd842783          	lw	a5,-40(s0)
ffffffc0503090da:	2701                	sext.w	a4,a4
ffffffc0503090dc:	2781                	sext.w	a5,a5
ffffffc0503090de:	f8f743e3          	blt	a4,a5,ffffffc050309064 <do_mbox_send+0xa6>
ffffffc0503090e2:	fdc42703          	lw	a4,-36(s0)
ffffffc0503090e6:	87ba                	mv	a5,a4
ffffffc0503090e8:	0792                	slli	a5,a5,0x4
ffffffc0503090ea:	97ba                	add	a5,a5,a4
ffffffc0503090ec:	078e                	slli	a5,a5,0x3
ffffffc0503090ee:	06078713          	addi	a4,a5,96
ffffffc0503090f2:	0003f797          	auipc	a5,0x3f
ffffffc0503090f6:	4b678793          	addi	a5,a5,1206 # ffffffc0503485a8 <mailbox_k>
ffffffc0503090fa:	97ba                	add	a5,a5,a4
ffffffc0503090fc:	07a1                	addi	a5,a5,8
ffffffc0503090fe:	853e                	mv	a0,a5
ffffffc050309100:	c81ff0ef          	jal	ra,ffffffc050308d80 <do_cond_broadcast>
ffffffc050309104:	0001                	nop
ffffffc050309106:	70a2                	ld	ra,40(sp)
ffffffc050309108:	7402                	ld	s0,32(sp)
ffffffc05030910a:	6145                	addi	sp,sp,48
ffffffc05030910c:	8082                	ret

ffffffc05030910e <do_mbox_recv>:
ffffffc05030910e:	7179                	addi	sp,sp,-48
ffffffc050309110:	f406                	sd	ra,40(sp)
ffffffc050309112:	f022                	sd	s0,32(sp)
ffffffc050309114:	1800                	addi	s0,sp,48
ffffffc050309116:	87aa                	mv	a5,a0
ffffffc050309118:	fcb43823          	sd	a1,-48(s0)
ffffffc05030911c:	8732                	mv	a4,a2
ffffffc05030911e:	fcf42e23          	sw	a5,-36(s0)
ffffffc050309122:	87ba                	mv	a5,a4
ffffffc050309124:	fcf42c23          	sw	a5,-40(s0)
ffffffc050309128:	0003f697          	auipc	a3,0x3f
ffffffc05030912c:	48068693          	addi	a3,a3,1152 # ffffffc0503485a8 <mailbox_k>
ffffffc050309130:	fdc42703          	lw	a4,-36(s0)
ffffffc050309134:	87ba                	mv	a5,a4
ffffffc050309136:	0792                	slli	a5,a5,0x4
ffffffc050309138:	97ba                	add	a5,a5,a4
ffffffc05030913a:	078e                	slli	a5,a5,0x3
ffffffc05030913c:	97b6                	add	a5,a5,a3
ffffffc05030913e:	4ff8                	lw	a4,92(a5)
ffffffc050309140:	fd842783          	lw	a5,-40(s0)
ffffffc050309144:	40f707bb          	subw	a5,a4,a5
ffffffc050309148:	2781                	sext.w	a5,a5
ffffffc05030914a:	0607d063          	bgez	a5,ffffffc0503091aa <do_mbox_recv+0x9c>
ffffffc05030914e:	966f70ef          	jal	ra,ffffffc0503002b4 <get_current_cpu_id>
ffffffc050309152:	fea43023          	sd	a0,-32(s0)
ffffffc050309156:	0003f717          	auipc	a4,0x3f
ffffffc05030915a:	44270713          	addi	a4,a4,1090 # ffffffc050348598 <current_running>
ffffffc05030915e:	fe043783          	ld	a5,-32(s0)
ffffffc050309162:	078e                	slli	a5,a5,0x3
ffffffc050309164:	97ba                	add	a5,a5,a4
ffffffc050309166:	639c                	ld	a5,0(a5)
ffffffc050309168:	0407a823          	sw	zero,80(a5)
ffffffc05030916c:	0003f717          	auipc	a4,0x3f
ffffffc050309170:	42c70713          	addi	a4,a4,1068 # ffffffc050348598 <current_running>
ffffffc050309174:	fe043783          	ld	a5,-32(s0)
ffffffc050309178:	078e                	slli	a5,a5,0x3
ffffffc05030917a:	97ba                	add	a5,a5,a4
ffffffc05030917c:	639c                	ld	a5,0(a5)
ffffffc05030917e:	02878693          	addi	a3,a5,40
ffffffc050309182:	fdc42703          	lw	a4,-36(s0)
ffffffc050309186:	87ba                	mv	a5,a4
ffffffc050309188:	0792                	slli	a5,a5,0x4
ffffffc05030918a:	97ba                	add	a5,a5,a4
ffffffc05030918c:	078e                	slli	a5,a5,0x3
ffffffc05030918e:	06078713          	addi	a4,a5,96
ffffffc050309192:	0003f797          	auipc	a5,0x3f
ffffffc050309196:	41678793          	addi	a5,a5,1046 # ffffffc0503485a8 <mailbox_k>
ffffffc05030919a:	97ba                	add	a5,a5,a4
ffffffc05030919c:	07a1                	addi	a5,a5,8
ffffffc05030919e:	85be                	mv	a1,a5
ffffffc0503091a0:	8536                	mv	a0,a3
ffffffc0503091a2:	c4bfe0ef          	jal	ra,ffffffc050307dec <list_add>
ffffffc0503091a6:	f97fe0ef          	jal	ra,ffffffc05030813c <do_scheduler>
ffffffc0503091aa:	fd842783          	lw	a5,-40(s0)
ffffffc0503091ae:	37fd                	addiw	a5,a5,-1
ffffffc0503091b0:	fef42623          	sw	a5,-20(s0)
ffffffc0503091b4:	a059                	j	ffffffc05030923a <do_mbox_recv+0x12c>
ffffffc0503091b6:	0003f697          	auipc	a3,0x3f
ffffffc0503091ba:	3f268693          	addi	a3,a3,1010 # ffffffc0503485a8 <mailbox_k>
ffffffc0503091be:	fdc42703          	lw	a4,-36(s0)
ffffffc0503091c2:	87ba                	mv	a5,a4
ffffffc0503091c4:	0792                	slli	a5,a5,0x4
ffffffc0503091c6:	97ba                	add	a5,a5,a4
ffffffc0503091c8:	078e                	slli	a5,a5,0x3
ffffffc0503091ca:	97b6                	add	a5,a5,a3
ffffffc0503091cc:	4ffc                	lw	a5,92(a5)
ffffffc0503091ce:	37fd                	addiw	a5,a5,-1
ffffffc0503091d0:	0007869b          	sext.w	a3,a5
ffffffc0503091d4:	0003f617          	auipc	a2,0x3f
ffffffc0503091d8:	3d460613          	addi	a2,a2,980 # ffffffc0503485a8 <mailbox_k>
ffffffc0503091dc:	fdc42703          	lw	a4,-36(s0)
ffffffc0503091e0:	87ba                	mv	a5,a4
ffffffc0503091e2:	0792                	slli	a5,a5,0x4
ffffffc0503091e4:	97ba                	add	a5,a5,a4
ffffffc0503091e6:	078e                	slli	a5,a5,0x3
ffffffc0503091e8:	97b2                	add	a5,a5,a2
ffffffc0503091ea:	cff4                	sw	a3,92(a5)
ffffffc0503091ec:	0003f697          	auipc	a3,0x3f
ffffffc0503091f0:	3bc68693          	addi	a3,a3,956 # ffffffc0503485a8 <mailbox_k>
ffffffc0503091f4:	fdc42703          	lw	a4,-36(s0)
ffffffc0503091f8:	87ba                	mv	a5,a4
ffffffc0503091fa:	0792                	slli	a5,a5,0x4
ffffffc0503091fc:	97ba                	add	a5,a5,a4
ffffffc0503091fe:	078e                	slli	a5,a5,0x3
ffffffc050309200:	97b6                	add	a5,a5,a3
ffffffc050309202:	4ff0                	lw	a2,92(a5)
ffffffc050309204:	fec42783          	lw	a5,-20(s0)
ffffffc050309208:	fd043703          	ld	a4,-48(s0)
ffffffc05030920c:	00f706b3          	add	a3,a4,a5
ffffffc050309210:	0003f597          	auipc	a1,0x3f
ffffffc050309214:	39858593          	addi	a1,a1,920 # ffffffc0503485a8 <mailbox_k>
ffffffc050309218:	fdc42703          	lw	a4,-36(s0)
ffffffc05030921c:	87ba                	mv	a5,a4
ffffffc05030921e:	0792                	slli	a5,a5,0x4
ffffffc050309220:	97ba                	add	a5,a5,a4
ffffffc050309222:	078e                	slli	a5,a5,0x3
ffffffc050309224:	97ae                	add	a5,a5,a1
ffffffc050309226:	97b2                	add	a5,a5,a2
ffffffc050309228:	0197c783          	lbu	a5,25(a5)
ffffffc05030922c:	00f68023          	sb	a5,0(a3)
ffffffc050309230:	fec42783          	lw	a5,-20(s0)
ffffffc050309234:	37fd                	addiw	a5,a5,-1
ffffffc050309236:	fef42623          	sw	a5,-20(s0)
ffffffc05030923a:	fec42783          	lw	a5,-20(s0)
ffffffc05030923e:	2781                	sext.w	a5,a5
ffffffc050309240:	f607dbe3          	bgez	a5,ffffffc0503091b6 <do_mbox_recv+0xa8>
ffffffc050309244:	fdc42703          	lw	a4,-36(s0)
ffffffc050309248:	87ba                	mv	a5,a4
ffffffc05030924a:	0792                	slli	a5,a5,0x4
ffffffc05030924c:	97ba                	add	a5,a5,a4
ffffffc05030924e:	078e                	slli	a5,a5,0x3
ffffffc050309250:	07078713          	addi	a4,a5,112
ffffffc050309254:	0003f797          	auipc	a5,0x3f
ffffffc050309258:	35478793          	addi	a5,a5,852 # ffffffc0503485a8 <mailbox_k>
ffffffc05030925c:	97ba                	add	a5,a5,a4
ffffffc05030925e:	07a1                	addi	a5,a5,8
ffffffc050309260:	853e                	mv	a0,a5
ffffffc050309262:	b1fff0ef          	jal	ra,ffffffc050308d80 <do_cond_broadcast>
ffffffc050309266:	0001                	nop
ffffffc050309268:	70a2                	ld	ra,40(sp)
ffffffc05030926a:	7402                	ld	s0,32(sp)
ffffffc05030926c:	6145                	addi	sp,sp,48
ffffffc05030926e:	8082                	ret

ffffffc050309270 <do_taskset_p>:
ffffffc050309270:	7179                	addi	sp,sp,-48
ffffffc050309272:	f422                	sd	s0,40(sp)
ffffffc050309274:	1800                	addi	s0,sp,48
ffffffc050309276:	87aa                	mv	a5,a0
ffffffc050309278:	872e                	mv	a4,a1
ffffffc05030927a:	fcf42e23          	sw	a5,-36(s0)
ffffffc05030927e:	87ba                	mv	a5,a4
ffffffc050309280:	fcf42c23          	sw	a5,-40(s0)
ffffffc050309284:	fe042623          	sw	zero,-20(s0)
ffffffc050309288:	a031                	j	ffffffc050309294 <do_taskset_p+0x24>
ffffffc05030928a:	fec42783          	lw	a5,-20(s0)
ffffffc05030928e:	2785                	addiw	a5,a5,1
ffffffc050309290:	fef42623          	sw	a5,-20(s0)
ffffffc050309294:	00030697          	auipc	a3,0x30
ffffffc050309298:	23c68693          	addi	a3,a3,572 # ffffffc0503394d0 <pcb>
ffffffc05030929c:	fec42703          	lw	a4,-20(s0)
ffffffc0503092a0:	87ba                	mv	a5,a4
ffffffc0503092a2:	0792                	slli	a5,a5,0x4
ffffffc0503092a4:	8f99                	sub	a5,a5,a4
ffffffc0503092a6:	0792                	slli	a5,a5,0x4
ffffffc0503092a8:	97b6                	add	a5,a5,a3
ffffffc0503092aa:	47b8                	lw	a4,72(a5)
ffffffc0503092ac:	fd842783          	lw	a5,-40(s0)
ffffffc0503092b0:	2781                	sext.w	a5,a5
ffffffc0503092b2:	00e78963          	beq	a5,a4,ffffffc0503092c4 <do_taskset_p+0x54>
ffffffc0503092b6:	fec42783          	lw	a5,-20(s0)
ffffffc0503092ba:	0007871b          	sext.w	a4,a5
ffffffc0503092be:	47bd                	li	a5,15
ffffffc0503092c0:	fce7d5e3          	bge	a5,a4,ffffffc05030928a <do_taskset_p+0x1a>
ffffffc0503092c4:	fec42783          	lw	a5,-20(s0)
ffffffc0503092c8:	0007871b          	sext.w	a4,a5
ffffffc0503092cc:	47c1                	li	a5,16
ffffffc0503092ce:	02f70663          	beq	a4,a5,ffffffc0503092fa <do_taskset_p+0x8a>
ffffffc0503092d2:	fec42703          	lw	a4,-20(s0)
ffffffc0503092d6:	87ba                	mv	a5,a4
ffffffc0503092d8:	0792                	slli	a5,a5,0x4
ffffffc0503092da:	8f99                	sub	a5,a5,a4
ffffffc0503092dc:	0792                	slli	a5,a5,0x4
ffffffc0503092de:	00030717          	auipc	a4,0x30
ffffffc0503092e2:	1f270713          	addi	a4,a4,498 # ffffffc0503394d0 <pcb>
ffffffc0503092e6:	97ba                	add	a5,a5,a4
ffffffc0503092e8:	fef43023          	sd	a5,-32(s0)
ffffffc0503092ec:	fe043783          	ld	a5,-32(s0)
ffffffc0503092f0:	fdc42703          	lw	a4,-36(s0)
ffffffc0503092f4:	0ee7a023          	sw	a4,224(a5)
ffffffc0503092f8:	a011                	j	ffffffc0503092fc <do_taskset_p+0x8c>
ffffffc0503092fa:	0001                	nop
ffffffc0503092fc:	7422                	ld	s0,40(sp)
ffffffc0503092fe:	6145                	addi	sp,sp,48
ffffffc050309300:	8082                	ret

ffffffc050309302 <do_taskset_exec>:
ffffffc050309302:	7179                	addi	sp,sp,-48
ffffffc050309304:	f406                	sd	ra,40(sp)
ffffffc050309306:	f022                	sd	s0,32(sp)
ffffffc050309308:	1800                	addi	s0,sp,48
ffffffc05030930a:	87aa                	mv	a5,a0
ffffffc05030930c:	fcb43823          	sd	a1,-48(s0)
ffffffc050309310:	8732                	mv	a4,a2
ffffffc050309312:	fcf42e23          	sw	a5,-36(s0)
ffffffc050309316:	87ba                	mv	a5,a4
ffffffc050309318:	fcf42c23          	sw	a5,-40(s0)
ffffffc05030931c:	00003517          	auipc	a0,0x3
ffffffc050309320:	b4c50513          	addi	a0,a0,-1204 # ffffffc05030be68 <exit_queue>
ffffffc050309324:	b25fe0ef          	jal	ra,ffffffc050307e48 <list_empty>
ffffffc050309328:	87aa                	mv	a5,a0
ffffffc05030932a:	e79d                	bnez	a5,ffffffc050309358 <do_taskset_exec+0x56>
ffffffc05030932c:	00003797          	auipc	a5,0x3
ffffffc050309330:	b3c78793          	addi	a5,a5,-1220 # ffffffc05030be68 <exit_queue>
ffffffc050309334:	679c                	ld	a5,8(a5)
ffffffc050309336:	fef43023          	sd	a5,-32(s0)
ffffffc05030933a:	fe043783          	ld	a5,-32(s0)
ffffffc05030933e:	fd878793          	addi	a5,a5,-40
ffffffc050309342:	fef43423          	sd	a5,-24(s0)
ffffffc050309346:	00003797          	auipc	a5,0x3
ffffffc05030934a:	b2278793          	addi	a5,a5,-1246 # ffffffc05030be68 <exit_queue>
ffffffc05030934e:	679c                	ld	a5,8(a5)
ffffffc050309350:	853e                	mv	a0,a5
ffffffc050309352:	a51fe0ef          	jal	ra,ffffffc050307da2 <list_del>
ffffffc050309356:	a815                	j	ffffffc05030938a <do_taskset_exec+0x88>
ffffffc050309358:	0002e797          	auipc	a5,0x2e
ffffffc05030935c:	1e878793          	addi	a5,a5,488 # ffffffc050337540 <_edata>
ffffffc050309360:	4398                	lw	a4,0(a5)
ffffffc050309362:	0017079b          	addiw	a5,a4,1
ffffffc050309366:	0007869b          	sext.w	a3,a5
ffffffc05030936a:	0002e797          	auipc	a5,0x2e
ffffffc05030936e:	1d678793          	addi	a5,a5,470 # ffffffc050337540 <_edata>
ffffffc050309372:	c394                	sw	a3,0(a5)
ffffffc050309374:	87ba                	mv	a5,a4
ffffffc050309376:	0792                	slli	a5,a5,0x4
ffffffc050309378:	8f99                	sub	a5,a5,a4
ffffffc05030937a:	0792                	slli	a5,a5,0x4
ffffffc05030937c:	00030717          	auipc	a4,0x30
ffffffc050309380:	15470713          	addi	a4,a4,340 # ffffffc0503394d0 <pcb>
ffffffc050309384:	97ba                	add	a5,a5,a4
ffffffc050309386:	fef43423          	sd	a5,-24(s0)
ffffffc05030938a:	a3aff0ef          	jal	ra,ffffffc0503085c4 <reuse>
ffffffc05030938e:	872a                	mv	a4,a0
ffffffc050309390:	fe843783          	ld	a5,-24(s0)
ffffffc050309394:	ef98                	sd	a4,24(a5)
ffffffc050309396:	fe843783          	ld	a5,-24(s0)
ffffffc05030939a:	6f9c                	ld	a5,24(a5)
ffffffc05030939c:	eb91                	bnez	a5,ffffffc0503093b0 <do_taskset_exec+0xae>
ffffffc05030939e:	4505                	li	a0,1
ffffffc0503093a0:	023000ef          	jal	ra,ffffffc050309bc2 <allocPage>
ffffffc0503093a4:	872a                	mv	a4,a0
ffffffc0503093a6:	6785                	lui	a5,0x1
ffffffc0503093a8:	973e                	add	a4,a4,a5
ffffffc0503093aa:	fe843783          	ld	a5,-24(s0)
ffffffc0503093ae:	ef98                	sd	a4,24(a5)
ffffffc0503093b0:	a14ff0ef          	jal	ra,ffffffc0503085c4 <reuse>
ffffffc0503093b4:	872a                	mv	a4,a0
ffffffc0503093b6:	fe843783          	ld	a5,-24(s0)
ffffffc0503093ba:	f398                	sd	a4,32(a5)
ffffffc0503093bc:	fe843783          	ld	a5,-24(s0)
ffffffc0503093c0:	739c                	ld	a5,32(a5)
ffffffc0503093c2:	eb91                	bnez	a5,ffffffc0503093d6 <do_taskset_exec+0xd4>
ffffffc0503093c4:	4505                	li	a0,1
ffffffc0503093c6:	7fc000ef          	jal	ra,ffffffc050309bc2 <allocPage>
ffffffc0503093ca:	872a                	mv	a4,a0
ffffffc0503093cc:	6785                	lui	a5,0x1
ffffffc0503093ce:	973e                	add	a4,a4,a5
ffffffc0503093d0:	fe843783          	ld	a5,-24(s0)
ffffffc0503093d4:	f398                	sd	a4,32(a5)
ffffffc0503093d6:	fe843783          	ld	a5,-24(s0)
ffffffc0503093da:	6f98                	ld	a4,24(a5)
ffffffc0503093dc:	fe843783          	ld	a5,-24(s0)
ffffffc0503093e0:	e398                	sd	a4,0(a5)
ffffffc0503093e2:	fe843783          	ld	a5,-24(s0)
ffffffc0503093e6:	7398                	ld	a4,32(a5)
ffffffc0503093e8:	fe843783          	ld	a5,-24(s0)
ffffffc0503093ec:	e798                	sd	a4,8(a5)
ffffffc0503093ee:	fe843783          	ld	a5,-24(s0)
ffffffc0503093f2:	639c                	ld	a5,0(a5)
ffffffc0503093f4:	e7078713          	addi	a4,a5,-400 # e70 <_start-0xffffffc0502ff190>
ffffffc0503093f8:	fe843783          	ld	a5,-24(s0)
ffffffc0503093fc:	e398                	sd	a4,0(a5)
ffffffc0503093fe:	0002e797          	auipc	a5,0x2e
ffffffc050309402:	0f278793          	addi	a5,a5,242 # ffffffc0503374f0 <process_id>
ffffffc050309406:	439c                	lw	a5,0(a5)
ffffffc050309408:	0017871b          	addiw	a4,a5,1
ffffffc05030940c:	0007069b          	sext.w	a3,a4
ffffffc050309410:	0002e717          	auipc	a4,0x2e
ffffffc050309414:	0e070713          	addi	a4,a4,224 # ffffffc0503374f0 <process_id>
ffffffc050309418:	c314                	sw	a3,0(a4)
ffffffc05030941a:	fe843703          	ld	a4,-24(s0)
ffffffc05030941e:	c73c                	sw	a5,72(a4)
ffffffc050309420:	fd043783          	ld	a5,-48(s0)
ffffffc050309424:	4798                	lw	a4,8(a5)
ffffffc050309426:	fe843783          	ld	a5,-24(s0)
ffffffc05030942a:	c7f8                	sw	a4,76(a5)
ffffffc05030942c:	fe843783          	ld	a5,-24(s0)
ffffffc050309430:	4709                	li	a4,2
ffffffc050309432:	cbb8                	sw	a4,80(a5)
ffffffc050309434:	fe843783          	ld	a5,-24(s0)
ffffffc050309438:	fd842703          	lw	a4,-40(s0)
ffffffc05030943c:	cbf8                	sw	a4,84(a5)
ffffffc05030943e:	fe843783          	ld	a5,-24(s0)
ffffffc050309442:	0407ac23          	sw	zero,88(a5)
ffffffc050309446:	fe843783          	ld	a5,-24(s0)
ffffffc05030944a:	0407ae23          	sw	zero,92(a5)
ffffffc05030944e:	fe843783          	ld	a5,-24(s0)
ffffffc050309452:	0807a423          	sw	zero,136(a5)
ffffffc050309456:	fe843783          	ld	a5,-24(s0)
ffffffc05030945a:	fdc42703          	lw	a4,-36(s0)
ffffffc05030945e:	0ee7a023          	sw	a4,224(a5)
ffffffc050309462:	fe843783          	ld	a5,-24(s0)
ffffffc050309466:	02878793          	addi	a5,a5,40
ffffffc05030946a:	00003597          	auipc	a1,0x3
ffffffc05030946e:	9ee58593          	addi	a1,a1,-1554 # ffffffc05030be58 <ready_queue>
ffffffc050309472:	853e                	mv	a0,a5
ffffffc050309474:	979fe0ef          	jal	ra,ffffffc050307dec <list_add>
ffffffc050309478:	fe843783          	ld	a5,-24(s0)
ffffffc05030947c:	03878793          	addi	a5,a5,56
ffffffc050309480:	853e                	mv	a0,a5
ffffffc050309482:	88ffe0ef          	jal	ra,ffffffc050307d10 <init_list_head>
ffffffc050309486:	0001                	nop
ffffffc050309488:	70a2                	ld	ra,40(sp)
ffffffc05030948a:	7402                	ld	s0,32(sp)
ffffffc05030948c:	6145                	addi	sp,sp,48
ffffffc05030948e:	8082                	ret

ffffffc050309490 <do_exec>:
ffffffc050309490:	7135                	addi	sp,sp,-160
ffffffc050309492:	ed06                	sd	ra,152(sp)
ffffffc050309494:	e922                	sd	s0,144(sp)
ffffffc050309496:	e526                	sd	s1,136(sp)
ffffffc050309498:	e14a                	sd	s2,128(sp)
ffffffc05030949a:	1100                	addi	s0,sp,160
ffffffc05030949c:	f6a43c23          	sd	a0,-136(s0)
ffffffc0503094a0:	87ae                	mv	a5,a1
ffffffc0503094a2:	f6c43423          	sd	a2,-152(s0)
ffffffc0503094a6:	8736                	mv	a4,a3
ffffffc0503094a8:	f6f42a23          	sw	a5,-140(s0)
ffffffc0503094ac:	87ba                	mv	a5,a4
ffffffc0503094ae:	f6f42823          	sw	a5,-144(s0)
ffffffc0503094b2:	00003517          	auipc	a0,0x3
ffffffc0503094b6:	9b650513          	addi	a0,a0,-1610 # ffffffc05030be68 <exit_queue>
ffffffc0503094ba:	98ffe0ef          	jal	ra,ffffffc050307e48 <list_empty>
ffffffc0503094be:	87aa                	mv	a5,a0
ffffffc0503094c0:	e79d                	bnez	a5,ffffffc0503094ee <do_exec+0x5e>
ffffffc0503094c2:	00003797          	auipc	a5,0x3
ffffffc0503094c6:	9a678793          	addi	a5,a5,-1626 # ffffffc05030be68 <exit_queue>
ffffffc0503094ca:	679c                	ld	a5,8(a5)
ffffffc0503094cc:	faf43823          	sd	a5,-80(s0)
ffffffc0503094d0:	fb043783          	ld	a5,-80(s0)
ffffffc0503094d4:	fd878793          	addi	a5,a5,-40
ffffffc0503094d8:	fcf43c23          	sd	a5,-40(s0)
ffffffc0503094dc:	00003797          	auipc	a5,0x3
ffffffc0503094e0:	98c78793          	addi	a5,a5,-1652 # ffffffc05030be68 <exit_queue>
ffffffc0503094e4:	679c                	ld	a5,8(a5)
ffffffc0503094e6:	853e                	mv	a0,a5
ffffffc0503094e8:	8bbfe0ef          	jal	ra,ffffffc050307da2 <list_del>
ffffffc0503094ec:	a815                	j	ffffffc050309520 <do_exec+0x90>
ffffffc0503094ee:	0002e797          	auipc	a5,0x2e
ffffffc0503094f2:	05278793          	addi	a5,a5,82 # ffffffc050337540 <_edata>
ffffffc0503094f6:	4398                	lw	a4,0(a5)
ffffffc0503094f8:	0017079b          	addiw	a5,a4,1
ffffffc0503094fc:	0007869b          	sext.w	a3,a5
ffffffc050309500:	0002e797          	auipc	a5,0x2e
ffffffc050309504:	04078793          	addi	a5,a5,64 # ffffffc050337540 <_edata>
ffffffc050309508:	c394                	sw	a3,0(a5)
ffffffc05030950a:	87ba                	mv	a5,a4
ffffffc05030950c:	0792                	slli	a5,a5,0x4
ffffffc05030950e:	8f99                	sub	a5,a5,a4
ffffffc050309510:	0792                	slli	a5,a5,0x4
ffffffc050309512:	00030717          	auipc	a4,0x30
ffffffc050309516:	fbe70713          	addi	a4,a4,-66 # ffffffc0503394d0 <pcb>
ffffffc05030951a:	97ba                	add	a5,a5,a4
ffffffc05030951c:	fcf43c23          	sd	a5,-40(s0)
ffffffc050309520:	6a2000ef          	jal	ra,ffffffc050309bc2 <allocPage>
ffffffc050309524:	872a                	mv	a4,a0
ffffffc050309526:	fd843783          	ld	a5,-40(s0)
ffffffc05030952a:	f7f8                	sd	a4,232(a5)
ffffffc05030952c:	fd843783          	ld	a5,-40(s0)
ffffffc050309530:	77fc                	ld	a5,232(a5)
ffffffc050309532:	853e                	mv	a0,a5
ffffffc050309534:	997fe0ef          	jal	ra,ffffffc050307eca <clear_pgdir>
ffffffc050309538:	88cff0ef          	jal	ra,ffffffc0503085c4 <reuse>
ffffffc05030953c:	872a                	mv	a4,a0
ffffffc05030953e:	fd843783          	ld	a5,-40(s0)
ffffffc050309542:	ef98                	sd	a4,24(a5)
ffffffc050309544:	fd843783          	ld	a5,-40(s0)
ffffffc050309548:	6f9c                	ld	a5,24(a5)
ffffffc05030954a:	eb89                	bnez	a5,ffffffc05030955c <do_exec+0xcc>
ffffffc05030954c:	676000ef          	jal	ra,ffffffc050309bc2 <allocPage>
ffffffc050309550:	872a                	mv	a4,a0
ffffffc050309552:	6785                	lui	a5,0x1
ffffffc050309554:	973e                	add	a4,a4,a5
ffffffc050309556:	fd843783          	ld	a5,-40(s0)
ffffffc05030955a:	ef98                	sd	a4,24(a5)
ffffffc05030955c:	fd843783          	ld	a5,-40(s0)
ffffffc050309560:	000f0737          	lui	a4,0xf0
ffffffc050309564:	0705                	addi	a4,a4,1
ffffffc050309566:	0742                	slli	a4,a4,0x10
ffffffc050309568:	f398                	sd	a4,32(a5)
ffffffc05030956a:	fd843783          	ld	a5,-40(s0)
ffffffc05030956e:	7398                	ld	a4,32(a5)
ffffffc050309570:	77fd                	lui	a5,0xfffff
ffffffc050309572:	973e                	add	a4,a4,a5
ffffffc050309574:	fd843783          	ld	a5,-40(s0)
ffffffc050309578:	77fc                	ld	a5,232(a5)
ffffffc05030957a:	85be                	mv	a1,a5
ffffffc05030957c:	853a                	mv	a0,a4
ffffffc05030957e:	78e000ef          	jal	ra,ffffffc050309d0c <alloc_page_helper>
ffffffc050309582:	fca43823          	sd	a0,-48(s0)
ffffffc050309586:	fe02f7b7          	lui	a5,0xfe02f
ffffffc05030958a:	07b6                	slli	a5,a5,0xd
ffffffc05030958c:	faf43423          	sd	a5,-88(s0)
ffffffc050309590:	fd843783          	ld	a5,-40(s0)
ffffffc050309594:	77fc                	ld	a5,232(a5)
ffffffc050309596:	fa843583          	ld	a1,-88(s0)
ffffffc05030959a:	853e                	mv	a0,a5
ffffffc05030959c:	722000ef          	jal	ra,ffffffc050309cbe <share_pgtable>
ffffffc0503095a0:	fc042623          	sw	zero,-52(s0)
ffffffc0503095a4:	a80d                	j	ffffffc0503095d6 <do_exec+0x146>
ffffffc0503095a6:	0002e697          	auipc	a3,0x2e
ffffffc0503095aa:	ed268693          	addi	a3,a3,-302 # ffffffc050337478 <elf_files>
ffffffc0503095ae:	fcc42703          	lw	a4,-52(s0)
ffffffc0503095b2:	87ba                	mv	a5,a4
ffffffc0503095b4:	0786                	slli	a5,a5,0x1
ffffffc0503095b6:	97ba                	add	a5,a5,a4
ffffffc0503095b8:	078e                	slli	a5,a5,0x3
ffffffc0503095ba:	97b6                	add	a5,a5,a3
ffffffc0503095bc:	639c                	ld	a5,0(a5)
ffffffc0503095be:	f7843583          	ld	a1,-136(s0)
ffffffc0503095c2:	853e                	mv	a0,a5
ffffffc0503095c4:	249000ef          	jal	ra,ffffffc05030a00c <kstrcmp>
ffffffc0503095c8:	87aa                	mv	a5,a0
ffffffc0503095ca:	cf91                	beqz	a5,ffffffc0503095e6 <do_exec+0x156>
ffffffc0503095cc:	fcc42783          	lw	a5,-52(s0)
ffffffc0503095d0:	2785                	addiw	a5,a5,1
ffffffc0503095d2:	fcf42623          	sw	a5,-52(s0)
ffffffc0503095d6:	fcc42783          	lw	a5,-52(s0)
ffffffc0503095da:	0007871b          	sext.w	a4,a5
ffffffc0503095de:	478d                	li	a5,3
ffffffc0503095e0:	fce7d3e3          	bge	a5,a4,ffffffc0503095a6 <do_exec+0x116>
ffffffc0503095e4:	a011                	j	ffffffc0503095e8 <do_exec+0x158>
ffffffc0503095e6:	0001                	nop
ffffffc0503095e8:	0002e697          	auipc	a3,0x2e
ffffffc0503095ec:	e9068693          	addi	a3,a3,-368 # ffffffc050337478 <elf_files>
ffffffc0503095f0:	fcc42703          	lw	a4,-52(s0)
ffffffc0503095f4:	87ba                	mv	a5,a4
ffffffc0503095f6:	0786                	slli	a5,a5,0x1
ffffffc0503095f8:	97ba                	add	a5,a5,a4
ffffffc0503095fa:	078e                	slli	a5,a5,0x3
ffffffc0503095fc:	97b6                	add	a5,a5,a3
ffffffc0503095fe:	6b9c                	ld	a5,16(a5)
ffffffc050309600:	439c                	lw	a5,0(a5)
ffffffc050309602:	faf42223          	sw	a5,-92(s0)
ffffffc050309606:	0002e697          	auipc	a3,0x2e
ffffffc05030960a:	e7268693          	addi	a3,a3,-398 # ffffffc050337478 <elf_files>
ffffffc05030960e:	fcc42703          	lw	a4,-52(s0)
ffffffc050309612:	87ba                	mv	a5,a4
ffffffc050309614:	0786                	slli	a5,a5,0x1
ffffffc050309616:	97ba                	add	a5,a5,a4
ffffffc050309618:	078e                	slli	a5,a5,0x3
ffffffc05030961a:	97b6                	add	a5,a5,a3
ffffffc05030961c:	6798                	ld	a4,8(a5)
ffffffc05030961e:	fd843783          	ld	a5,-40(s0)
ffffffc050309622:	77f0                	ld	a2,232(a5)
ffffffc050309624:	fa442783          	lw	a5,-92(s0)
ffffffc050309628:	00000697          	auipc	a3,0x0
ffffffc05030962c:	6e468693          	addi	a3,a3,1764 # ffffffc050309d0c <alloc_page_helper>
ffffffc050309630:	85be                	mv	a1,a5
ffffffc050309632:	853a                	mv	a0,a4
ffffffc050309634:	92ffe0ef          	jal	ra,ffffffc050307f62 <load_elf>
ffffffc050309638:	87aa                	mv	a5,a0
ffffffc05030963a:	f8f43c23          	sd	a5,-104(s0)
ffffffc05030963e:	fd843783          	ld	a5,-40(s0)
ffffffc050309642:	6f98                	ld	a4,24(a5)
ffffffc050309644:	fd843783          	ld	a5,-40(s0)
ffffffc050309648:	e398                	sd	a4,0(a5)
ffffffc05030964a:	fd843783          	ld	a5,-40(s0)
ffffffc05030964e:	7398                	ld	a4,32(a5)
ffffffc050309650:	fd843783          	ld	a5,-40(s0)
ffffffc050309654:	e798                	sd	a4,8(a5)
ffffffc050309656:	3c0007b7          	lui	a5,0x3c000
ffffffc05030965a:	3c178793          	addi	a5,a5,961 # 3c0003c1 <_start-0xffffffc0142ffc3f>
ffffffc05030965e:	079a                	slli	a5,a5,0x6
ffffffc050309660:	f8f43823          	sd	a5,-112(s0)
ffffffc050309664:	fd043783          	ld	a5,-48(s0)
ffffffc050309668:	fcf43023          	sd	a5,-64(s0)
ffffffc05030966c:	00f007b7          	lui	a5,0xf00
ffffffc050309670:	07bd                	addi	a5,a5,15
ffffffc050309672:	07b2                	slli	a5,a5,0xc
ffffffc050309674:	faf43c23          	sd	a5,-72(s0)
ffffffc050309678:	fd043783          	ld	a5,-48(s0)
ffffffc05030967c:	04078793          	addi	a5,a5,64 # f00040 <_start-0xffffffc04f3fffc0>
ffffffc050309680:	fcf43823          	sd	a5,-48(s0)
ffffffc050309684:	fd843783          	ld	a5,-40(s0)
ffffffc050309688:	6388                	ld	a0,0(a5)
ffffffc05030968a:	fd843783          	ld	a5,-40(s0)
ffffffc05030968e:	678c                	ld	a1,8(a5)
ffffffc050309690:	f9843603          	ld	a2,-104(s0)
ffffffc050309694:	f9043703          	ld	a4,-112(s0)
ffffffc050309698:	f7442683          	lw	a3,-140(s0)
ffffffc05030969c:	fd843783          	ld	a5,-40(s0)
ffffffc0503096a0:	f9bf60ef          	jal	ra,ffffffc05030063a <init_pcb_stack>
ffffffc0503096a4:	fc042623          	sw	zero,-52(s0)
ffffffc0503096a8:	a85d                	j	ffffffc05030975e <do_exec+0x2ce>
ffffffc0503096aa:	fcc42783          	lw	a5,-52(s0)
ffffffc0503096ae:	078e                	slli	a5,a5,0x3
ffffffc0503096b0:	f6843703          	ld	a4,-152(s0)
ffffffc0503096b4:	97ba                	add	a5,a5,a4
ffffffc0503096b6:	639c                	ld	a5,0(a5)
ffffffc0503096b8:	cfc5                	beqz	a5,ffffffc050309770 <do_exec+0x2e0>
ffffffc0503096ba:	fc043483          	ld	s1,-64(s0)
ffffffc0503096be:	fcc42783          	lw	a5,-52(s0)
ffffffc0503096c2:	078e                	slli	a5,a5,0x3
ffffffc0503096c4:	f6843703          	ld	a4,-152(s0)
ffffffc0503096c8:	97ba                	add	a5,a5,a4
ffffffc0503096ca:	0007b903          	ld	s2,0(a5)
ffffffc0503096ce:	fcc42783          	lw	a5,-52(s0)
ffffffc0503096d2:	078e                	slli	a5,a5,0x3
ffffffc0503096d4:	f6843703          	ld	a4,-152(s0)
ffffffc0503096d8:	97ba                	add	a5,a5,a4
ffffffc0503096da:	639c                	ld	a5,0(a5)
ffffffc0503096dc:	853e                	mv	a0,a5
ffffffc0503096de:	029000ef          	jal	ra,ffffffc050309f06 <kstrlen>
ffffffc0503096e2:	87aa                	mv	a5,a0
ffffffc0503096e4:	2785                	addiw	a5,a5,1
ffffffc0503096e6:	2781                	sext.w	a5,a5
ffffffc0503096e8:	2781                	sext.w	a5,a5
ffffffc0503096ea:	863e                	mv	a2,a5
ffffffc0503096ec:	85ca                	mv	a1,s2
ffffffc0503096ee:	8526                	mv	a0,s1
ffffffc0503096f0:	04d000ef          	jal	ra,ffffffc050309f3c <kmemcpy>
ffffffc0503096f4:	fd043783          	ld	a5,-48(s0)
ffffffc0503096f8:	fb843703          	ld	a4,-72(s0)
ffffffc0503096fc:	e398                	sd	a4,0(a5)
ffffffc0503096fe:	fd043783          	ld	a5,-48(s0)
ffffffc050309702:	07a1                	addi	a5,a5,8
ffffffc050309704:	fcf43823          	sd	a5,-48(s0)
ffffffc050309708:	fcc42783          	lw	a5,-52(s0)
ffffffc05030970c:	078e                	slli	a5,a5,0x3
ffffffc05030970e:	f6843703          	ld	a4,-152(s0)
ffffffc050309712:	97ba                	add	a5,a5,a4
ffffffc050309714:	639c                	ld	a5,0(a5)
ffffffc050309716:	853e                	mv	a0,a5
ffffffc050309718:	7ee000ef          	jal	ra,ffffffc050309f06 <kstrlen>
ffffffc05030971c:	87aa                	mv	a5,a0
ffffffc05030971e:	2785                	addiw	a5,a5,1
ffffffc050309720:	2781                	sext.w	a5,a5
ffffffc050309722:	873e                	mv	a4,a5
ffffffc050309724:	fc043783          	ld	a5,-64(s0)
ffffffc050309728:	97ba                	add	a5,a5,a4
ffffffc05030972a:	fcf43023          	sd	a5,-64(s0)
ffffffc05030972e:	fcc42783          	lw	a5,-52(s0)
ffffffc050309732:	078e                	slli	a5,a5,0x3
ffffffc050309734:	f6843703          	ld	a4,-152(s0)
ffffffc050309738:	97ba                	add	a5,a5,a4
ffffffc05030973a:	639c                	ld	a5,0(a5)
ffffffc05030973c:	853e                	mv	a0,a5
ffffffc05030973e:	7c8000ef          	jal	ra,ffffffc050309f06 <kstrlen>
ffffffc050309742:	87aa                	mv	a5,a0
ffffffc050309744:	2785                	addiw	a5,a5,1
ffffffc050309746:	2781                	sext.w	a5,a5
ffffffc050309748:	873e                	mv	a4,a5
ffffffc05030974a:	fb843783          	ld	a5,-72(s0)
ffffffc05030974e:	97ba                	add	a5,a5,a4
ffffffc050309750:	faf43c23          	sd	a5,-72(s0)
ffffffc050309754:	fcc42783          	lw	a5,-52(s0)
ffffffc050309758:	2785                	addiw	a5,a5,1
ffffffc05030975a:	fcf42623          	sw	a5,-52(s0)
ffffffc05030975e:	fcc42703          	lw	a4,-52(s0)
ffffffc050309762:	f7442783          	lw	a5,-140(s0)
ffffffc050309766:	2701                	sext.w	a4,a4
ffffffc050309768:	2781                	sext.w	a5,a5
ffffffc05030976a:	f4f740e3          	blt	a4,a5,ffffffc0503096aa <do_exec+0x21a>
ffffffc05030976e:	a011                	j	ffffffc050309772 <do_exec+0x2e2>
ffffffc050309770:	0001                	nop
ffffffc050309772:	fd843783          	ld	a5,-40(s0)
ffffffc050309776:	639c                	ld	a5,0(a5)
ffffffc050309778:	e7078713          	addi	a4,a5,-400
ffffffc05030977c:	fd843783          	ld	a5,-40(s0)
ffffffc050309780:	e398                	sd	a4,0(a5)
ffffffc050309782:	0002e797          	auipc	a5,0x2e
ffffffc050309786:	d6e78793          	addi	a5,a5,-658 # ffffffc0503374f0 <process_id>
ffffffc05030978a:	439c                	lw	a5,0(a5)
ffffffc05030978c:	0017871b          	addiw	a4,a5,1
ffffffc050309790:	0007069b          	sext.w	a3,a4
ffffffc050309794:	0002e717          	auipc	a4,0x2e
ffffffc050309798:	d5c70713          	addi	a4,a4,-676 # ffffffc0503374f0 <process_id>
ffffffc05030979c:	c314                	sw	a3,0(a4)
ffffffc05030979e:	fd843703          	ld	a4,-40(s0)
ffffffc0503097a2:	c73c                	sw	a5,72(a4)
ffffffc0503097a4:	fd843783          	ld	a5,-40(s0)
ffffffc0503097a8:	4709                	li	a4,2
ffffffc0503097aa:	c7f8                	sw	a4,76(a5)
ffffffc0503097ac:	fd843783          	ld	a5,-40(s0)
ffffffc0503097b0:	4709                	li	a4,2
ffffffc0503097b2:	cbb8                	sw	a4,80(a5)
ffffffc0503097b4:	fd843783          	ld	a5,-40(s0)
ffffffc0503097b8:	f7042703          	lw	a4,-144(s0)
ffffffc0503097bc:	cbf8                	sw	a4,84(a5)
ffffffc0503097be:	fd843783          	ld	a5,-40(s0)
ffffffc0503097c2:	0407ac23          	sw	zero,88(a5)
ffffffc0503097c6:	fd843783          	ld	a5,-40(s0)
ffffffc0503097ca:	0407ae23          	sw	zero,92(a5)
ffffffc0503097ce:	fd843783          	ld	a5,-40(s0)
ffffffc0503097d2:	0807a423          	sw	zero,136(a5)
ffffffc0503097d6:	adff60ef          	jal	ra,ffffffc0503002b4 <get_current_cpu_id>
ffffffc0503097da:	f8a43423          	sd	a0,-120(s0)
ffffffc0503097de:	0003f717          	auipc	a4,0x3f
ffffffc0503097e2:	dba70713          	addi	a4,a4,-582 # ffffffc050348598 <current_running>
ffffffc0503097e6:	f8843783          	ld	a5,-120(s0)
ffffffc0503097ea:	078e                	slli	a5,a5,0x3
ffffffc0503097ec:	97ba                	add	a5,a5,a4
ffffffc0503097ee:	639c                	ld	a5,0(a5)
ffffffc0503097f0:	0e07a703          	lw	a4,224(a5)
ffffffc0503097f4:	fd843783          	ld	a5,-40(s0)
ffffffc0503097f8:	0ee7a023          	sw	a4,224(a5)
ffffffc0503097fc:	fd843783          	ld	a5,-40(s0)
ffffffc050309800:	02878793          	addi	a5,a5,40
ffffffc050309804:	00002597          	auipc	a1,0x2
ffffffc050309808:	65458593          	addi	a1,a1,1620 # ffffffc05030be58 <ready_queue>
ffffffc05030980c:	853e                	mv	a0,a5
ffffffc05030980e:	ddefe0ef          	jal	ra,ffffffc050307dec <list_add>
ffffffc050309812:	fd843783          	ld	a5,-40(s0)
ffffffc050309816:	03878793          	addi	a5,a5,56
ffffffc05030981a:	853e                	mv	a0,a5
ffffffc05030981c:	cf4fe0ef          	jal	ra,ffffffc050307d10 <init_list_head>
ffffffc050309820:	fd843783          	ld	a5,-40(s0)
ffffffc050309824:	47bc                	lw	a5,72(a5)
ffffffc050309826:	853e                	mv	a0,a5
ffffffc050309828:	60ea                	ld	ra,152(sp)
ffffffc05030982a:	644a                	ld	s0,144(sp)
ffffffc05030982c:	64aa                	ld	s1,136(sp)
ffffffc05030982e:	690a                	ld	s2,128(sp)
ffffffc050309830:	610d                	addi	sp,sp,160
ffffffc050309832:	8082                	ret

ffffffc050309834 <do_show_exec>:
ffffffc050309834:	1101                	addi	sp,sp,-32
ffffffc050309836:	ec06                	sd	ra,24(sp)
ffffffc050309838:	e822                	sd	s0,16(sp)
ffffffc05030983a:	1000                	addi	s0,sp,32
ffffffc05030983c:	fe042623          	sw	zero,-20(s0)
ffffffc050309840:	a80d                	j	ffffffc050309872 <do_show_exec+0x3e>
ffffffc050309842:	0002e697          	auipc	a3,0x2e
ffffffc050309846:	c3668693          	addi	a3,a3,-970 # ffffffc050337478 <elf_files>
ffffffc05030984a:	fec42703          	lw	a4,-20(s0)
ffffffc05030984e:	87ba                	mv	a5,a4
ffffffc050309850:	0786                	slli	a5,a5,0x1
ffffffc050309852:	97ba                	add	a5,a5,a4
ffffffc050309854:	078e                	slli	a5,a5,0x3
ffffffc050309856:	97b6                	add	a5,a5,a3
ffffffc050309858:	639c                	ld	a5,0(a5)
ffffffc05030985a:	85be                	mv	a1,a5
ffffffc05030985c:	00002517          	auipc	a0,0x2
ffffffc050309860:	33450513          	addi	a0,a0,820 # ffffffc05030bb90 <__FUNCTION__.1399+0xf0>
ffffffc050309864:	3f4010ef          	jal	ra,ffffffc05030ac58 <prints>
ffffffc050309868:	fec42783          	lw	a5,-20(s0)
ffffffc05030986c:	2785                	addiw	a5,a5,1
ffffffc05030986e:	fef42623          	sw	a5,-20(s0)
ffffffc050309872:	fec42783          	lw	a5,-20(s0)
ffffffc050309876:	0007871b          	sext.w	a4,a5
ffffffc05030987a:	478d                	li	a5,3
ffffffc05030987c:	fce7d3e3          	bge	a5,a4,ffffffc050309842 <do_show_exec+0xe>
ffffffc050309880:	0001                	nop
ffffffc050309882:	0001                	nop
ffffffc050309884:	60e2                	ld	ra,24(sp)
ffffffc050309886:	6442                	ld	s0,16(sp)
ffffffc050309888:	6105                	addi	sp,sp,32
ffffffc05030988a:	8082                	ret

ffffffc05030988c <_list_add>:
ffffffc05030988c:	7179                	addi	sp,sp,-48
ffffffc05030988e:	f422                	sd	s0,40(sp)
ffffffc050309890:	1800                	addi	s0,sp,48
ffffffc050309892:	fea43423          	sd	a0,-24(s0)
ffffffc050309896:	feb43023          	sd	a1,-32(s0)
ffffffc05030989a:	fcc43c23          	sd	a2,-40(s0)
ffffffc05030989e:	fd843783          	ld	a5,-40(s0)
ffffffc0503098a2:	fe843703          	ld	a4,-24(s0)
ffffffc0503098a6:	e798                	sd	a4,8(a5)
ffffffc0503098a8:	fe843783          	ld	a5,-24(s0)
ffffffc0503098ac:	fd843703          	ld	a4,-40(s0)
ffffffc0503098b0:	e398                	sd	a4,0(a5)
ffffffc0503098b2:	fe843783          	ld	a5,-24(s0)
ffffffc0503098b6:	fe043703          	ld	a4,-32(s0)
ffffffc0503098ba:	e798                	sd	a4,8(a5)
ffffffc0503098bc:	fe043783          	ld	a5,-32(s0)
ffffffc0503098c0:	fe843703          	ld	a4,-24(s0)
ffffffc0503098c4:	e398                	sd	a4,0(a5)
ffffffc0503098c6:	0001                	nop
ffffffc0503098c8:	7422                	ld	s0,40(sp)
ffffffc0503098ca:	6145                	addi	sp,sp,48
ffffffc0503098cc:	8082                	ret

ffffffc0503098ce <_list_del>:
ffffffc0503098ce:	1101                	addi	sp,sp,-32
ffffffc0503098d0:	ec22                	sd	s0,24(sp)
ffffffc0503098d2:	1000                	addi	s0,sp,32
ffffffc0503098d4:	fea43423          	sd	a0,-24(s0)
ffffffc0503098d8:	feb43023          	sd	a1,-32(s0)
ffffffc0503098dc:	fe043783          	ld	a5,-32(s0)
ffffffc0503098e0:	fe843703          	ld	a4,-24(s0)
ffffffc0503098e4:	e798                	sd	a4,8(a5)
ffffffc0503098e6:	fe843783          	ld	a5,-24(s0)
ffffffc0503098ea:	fe043703          	ld	a4,-32(s0)
ffffffc0503098ee:	e398                	sd	a4,0(a5)
ffffffc0503098f0:	0001                	nop
ffffffc0503098f2:	6462                	ld	s0,24(sp)
ffffffc0503098f4:	6105                	addi	sp,sp,32
ffffffc0503098f6:	8082                	ret

ffffffc0503098f8 <list_del>:
ffffffc0503098f8:	1101                	addi	sp,sp,-32
ffffffc0503098fa:	ec06                	sd	ra,24(sp)
ffffffc0503098fc:	e822                	sd	s0,16(sp)
ffffffc0503098fe:	1000                	addi	s0,sp,32
ffffffc050309900:	fea43423          	sd	a0,-24(s0)
ffffffc050309904:	fe843783          	ld	a5,-24(s0)
ffffffc050309908:	679c                	ld	a5,8(a5)
ffffffc05030990a:	c79d                	beqz	a5,ffffffc050309938 <list_del+0x40>
ffffffc05030990c:	fe843783          	ld	a5,-24(s0)
ffffffc050309910:	639c                	ld	a5,0(a5)
ffffffc050309912:	c39d                	beqz	a5,ffffffc050309938 <list_del+0x40>
ffffffc050309914:	fe843783          	ld	a5,-24(s0)
ffffffc050309918:	6798                	ld	a4,8(a5)
ffffffc05030991a:	fe843783          	ld	a5,-24(s0)
ffffffc05030991e:	639c                	ld	a5,0(a5)
ffffffc050309920:	85be                	mv	a1,a5
ffffffc050309922:	853a                	mv	a0,a4
ffffffc050309924:	fabff0ef          	jal	ra,ffffffc0503098ce <_list_del>
ffffffc050309928:	fe843783          	ld	a5,-24(s0)
ffffffc05030992c:	0007b423          	sd	zero,8(a5)
ffffffc050309930:	fe843783          	ld	a5,-24(s0)
ffffffc050309934:	0007b023          	sd	zero,0(a5)
ffffffc050309938:	0001                	nop
ffffffc05030993a:	60e2                	ld	ra,24(sp)
ffffffc05030993c:	6442                	ld	s0,16(sp)
ffffffc05030993e:	6105                	addi	sp,sp,32
ffffffc050309940:	8082                	ret

ffffffc050309942 <list_add>:
ffffffc050309942:	1101                	addi	sp,sp,-32
ffffffc050309944:	ec06                	sd	ra,24(sp)
ffffffc050309946:	e822                	sd	s0,16(sp)
ffffffc050309948:	1000                	addi	s0,sp,32
ffffffc05030994a:	fea43423          	sd	a0,-24(s0)
ffffffc05030994e:	feb43023          	sd	a1,-32(s0)
ffffffc050309952:	fe043783          	ld	a5,-32(s0)
ffffffc050309956:	639c                	ld	a5,0(a5)
ffffffc050309958:	863e                	mv	a2,a5
ffffffc05030995a:	fe043583          	ld	a1,-32(s0)
ffffffc05030995e:	fe843503          	ld	a0,-24(s0)
ffffffc050309962:	f2bff0ef          	jal	ra,ffffffc05030988c <_list_add>
ffffffc050309966:	0001                	nop
ffffffc050309968:	60e2                	ld	ra,24(sp)
ffffffc05030996a:	6442                	ld	s0,16(sp)
ffffffc05030996c:	6105                	addi	sp,sp,32
ffffffc05030996e:	8082                	ret

ffffffc050309970 <timer_create>:
ffffffc050309970:	7139                	addi	sp,sp,-64
ffffffc050309972:	fc06                	sd	ra,56(sp)
ffffffc050309974:	f822                	sd	s0,48(sp)
ffffffc050309976:	0080                	addi	s0,sp,64
ffffffc050309978:	fca43c23          	sd	a0,-40(s0)
ffffffc05030997c:	fcb43823          	sd	a1,-48(s0)
ffffffc050309980:	fcc43423          	sd	a2,-56(s0)
ffffffc050309984:	f14f60ef          	jal	ra,ffffffc050300098 <disable_preempt>
ffffffc050309988:	92df60ef          	jal	ra,ffffffc0503002b4 <get_current_cpu_id>
ffffffc05030998c:	fea43423          	sd	a0,-24(s0)
ffffffc050309990:	10c000ef          	jal	ra,ffffffc050309a9c <get_ticks>
ffffffc050309994:	86aa                	mv	a3,a0
ffffffc050309996:	0003f717          	auipc	a4,0x3f
ffffffc05030999a:	c0270713          	addi	a4,a4,-1022 # ffffffc050348598 <current_running>
ffffffc05030999e:	fe843783          	ld	a5,-24(s0)
ffffffc0503099a2:	078e                	slli	a5,a5,0x3
ffffffc0503099a4:	97ba                	add	a5,a5,a4
ffffffc0503099a6:	639c                	ld	a5,0(a5)
ffffffc0503099a8:	fc843703          	ld	a4,-56(s0)
ffffffc0503099ac:	9736                	add	a4,a4,a3
ffffffc0503099ae:	fbb8                	sd	a4,112(a5)
ffffffc0503099b0:	0003f717          	auipc	a4,0x3f
ffffffc0503099b4:	be870713          	addi	a4,a4,-1048 # ffffffc050348598 <current_running>
ffffffc0503099b8:	fe843783          	ld	a5,-24(s0)
ffffffc0503099bc:	078e                	slli	a5,a5,0x3
ffffffc0503099be:	97ba                	add	a5,a5,a4
ffffffc0503099c0:	639c                	ld	a5,0(a5)
ffffffc0503099c2:	fd843703          	ld	a4,-40(s0)
ffffffc0503099c6:	ffb8                	sd	a4,120(a5)
ffffffc0503099c8:	0003f717          	auipc	a4,0x3f
ffffffc0503099cc:	bd070713          	addi	a4,a4,-1072 # ffffffc050348598 <current_running>
ffffffc0503099d0:	fe843783          	ld	a5,-24(s0)
ffffffc0503099d4:	078e                	slli	a5,a5,0x3
ffffffc0503099d6:	97ba                	add	a5,a5,a4
ffffffc0503099d8:	639c                	ld	a5,0(a5)
ffffffc0503099da:	fd043703          	ld	a4,-48(s0)
ffffffc0503099de:	e3d8                	sd	a4,128(a5)
ffffffc0503099e0:	0003f717          	auipc	a4,0x3f
ffffffc0503099e4:	bb870713          	addi	a4,a4,-1096 # ffffffc050348598 <current_running>
ffffffc0503099e8:	fe843783          	ld	a5,-24(s0)
ffffffc0503099ec:	078e                	slli	a5,a5,0x3
ffffffc0503099ee:	97ba                	add	a5,a5,a4
ffffffc0503099f0:	639c                	ld	a5,0(a5)
ffffffc0503099f2:	06078793          	addi	a5,a5,96
ffffffc0503099f6:	00002597          	auipc	a1,0x2
ffffffc0503099fa:	48258593          	addi	a1,a1,1154 # ffffffc05030be78 <timers>
ffffffc0503099fe:	853e                	mv	a0,a5
ffffffc050309a00:	f43ff0ef          	jal	ra,ffffffc050309942 <list_add>
ffffffc050309a04:	e90f60ef          	jal	ra,ffffffc050300094 <enable_preempt>
ffffffc050309a08:	0001                	nop
ffffffc050309a0a:	70e2                	ld	ra,56(sp)
ffffffc050309a0c:	7442                	ld	s0,48(sp)
ffffffc050309a0e:	6121                	addi	sp,sp,64
ffffffc050309a10:	8082                	ret

ffffffc050309a12 <timer_check>:
ffffffc050309a12:	7139                	addi	sp,sp,-64
ffffffc050309a14:	fc06                	sd	ra,56(sp)
ffffffc050309a16:	f822                	sd	s0,48(sp)
ffffffc050309a18:	0080                	addi	s0,sp,64
ffffffc050309a1a:	e7ef60ef          	jal	ra,ffffffc050300098 <disable_preempt>
ffffffc050309a1e:	00002797          	auipc	a5,0x2
ffffffc050309a22:	45a78793          	addi	a5,a5,1114 # ffffffc05030be78 <timers>
ffffffc050309a26:	679c                	ld	a5,8(a5)
ffffffc050309a28:	fef43423          	sd	a5,-24(s0)
ffffffc050309a2c:	a889                	j	ffffffc050309a7e <timer_check+0x6c>
ffffffc050309a2e:	fe843783          	ld	a5,-24(s0)
ffffffc050309a32:	679c                	ld	a5,8(a5)
ffffffc050309a34:	fef43023          	sd	a5,-32(s0)
ffffffc050309a38:	064000ef          	jal	ra,ffffffc050309a9c <get_ticks>
ffffffc050309a3c:	fca43c23          	sd	a0,-40(s0)
ffffffc050309a40:	fe843783          	ld	a5,-24(s0)
ffffffc050309a44:	fcf43823          	sd	a5,-48(s0)
ffffffc050309a48:	fd043783          	ld	a5,-48(s0)
ffffffc050309a4c:	fcf43423          	sd	a5,-56(s0)
ffffffc050309a50:	fc843783          	ld	a5,-56(s0)
ffffffc050309a54:	6b9c                	ld	a5,16(a5)
ffffffc050309a56:	fd843703          	ld	a4,-40(s0)
ffffffc050309a5a:	00f76e63          	bltu	a4,a5,ffffffc050309a76 <timer_check+0x64>
ffffffc050309a5e:	fc843783          	ld	a5,-56(s0)
ffffffc050309a62:	6f98                	ld	a4,24(a5)
ffffffc050309a64:	fc843783          	ld	a5,-56(s0)
ffffffc050309a68:	739c                	ld	a5,32(a5)
ffffffc050309a6a:	853e                	mv	a0,a5
ffffffc050309a6c:	9702                	jalr	a4
ffffffc050309a6e:	fe843503          	ld	a0,-24(s0)
ffffffc050309a72:	e87ff0ef          	jal	ra,ffffffc0503098f8 <list_del>
ffffffc050309a76:	fe043783          	ld	a5,-32(s0)
ffffffc050309a7a:	fef43423          	sd	a5,-24(s0)
ffffffc050309a7e:	fe843703          	ld	a4,-24(s0)
ffffffc050309a82:	00002797          	auipc	a5,0x2
ffffffc050309a86:	3f678793          	addi	a5,a5,1014 # ffffffc05030be78 <timers>
ffffffc050309a8a:	faf712e3          	bne	a4,a5,ffffffc050309a2e <timer_check+0x1c>
ffffffc050309a8e:	e06f60ef          	jal	ra,ffffffc050300094 <enable_preempt>
ffffffc050309a92:	0001                	nop
ffffffc050309a94:	70e2                	ld	ra,56(sp)
ffffffc050309a96:	7442                	ld	s0,48(sp)
ffffffc050309a98:	6121                	addi	sp,sp,64
ffffffc050309a9a:	8082                	ret

ffffffc050309a9c <get_ticks>:
ffffffc050309a9c:	1141                	addi	sp,sp,-16
ffffffc050309a9e:	e422                	sd	s0,8(sp)
ffffffc050309aa0:	0800                	addi	s0,sp,16
ffffffc050309aa2:	c0102773          	rdtime	a4
ffffffc050309aa6:	0002e797          	auipc	a5,0x2e
ffffffc050309aaa:	aaa78793          	addi	a5,a5,-1366 # ffffffc050337550 <time_elapsed>
ffffffc050309aae:	e398                	sd	a4,0(a5)
ffffffc050309ab0:	0002e797          	auipc	a5,0x2e
ffffffc050309ab4:	aa078793          	addi	a5,a5,-1376 # ffffffc050337550 <time_elapsed>
ffffffc050309ab8:	639c                	ld	a5,0(a5)
ffffffc050309aba:	853e                	mv	a0,a5
ffffffc050309abc:	6422                	ld	s0,8(sp)
ffffffc050309abe:	0141                	addi	sp,sp,16
ffffffc050309ac0:	8082                	ret

ffffffc050309ac2 <get_timer>:
ffffffc050309ac2:	1141                	addi	sp,sp,-16
ffffffc050309ac4:	e406                	sd	ra,8(sp)
ffffffc050309ac6:	e022                	sd	s0,0(sp)
ffffffc050309ac8:	0800                	addi	s0,sp,16
ffffffc050309aca:	14002073          	csrr	zero,sscratch
ffffffc050309ace:	fcfff0ef          	jal	ra,ffffffc050309a9c <get_ticks>
ffffffc050309ad2:	872a                	mv	a4,a0
ffffffc050309ad4:	0002e797          	auipc	a5,0x2e
ffffffc050309ad8:	a8478793          	addi	a5,a5,-1404 # ffffffc050337558 <time_base>
ffffffc050309adc:	439c                	lw	a5,0(a5)
ffffffc050309ade:	1782                	slli	a5,a5,0x20
ffffffc050309ae0:	9381                	srli	a5,a5,0x20
ffffffc050309ae2:	02f757b3          	divu	a5,a4,a5
ffffffc050309ae6:	853e                	mv	a0,a5
ffffffc050309ae8:	60a2                	ld	ra,8(sp)
ffffffc050309aea:	6402                	ld	s0,0(sp)
ffffffc050309aec:	0141                	addi	sp,sp,16
ffffffc050309aee:	8082                	ret

ffffffc050309af0 <get_time_base>:
ffffffc050309af0:	1141                	addi	sp,sp,-16
ffffffc050309af2:	e422                	sd	s0,8(sp)
ffffffc050309af4:	0800                	addi	s0,sp,16
ffffffc050309af6:	0002e797          	auipc	a5,0x2e
ffffffc050309afa:	a6278793          	addi	a5,a5,-1438 # ffffffc050337558 <time_base>
ffffffc050309afe:	439c                	lw	a5,0(a5)
ffffffc050309b00:	1782                	slli	a5,a5,0x20
ffffffc050309b02:	9381                	srli	a5,a5,0x20
ffffffc050309b04:	853e                	mv	a0,a5
ffffffc050309b06:	6422                	ld	s0,8(sp)
ffffffc050309b08:	0141                	addi	sp,sp,16
ffffffc050309b0a:	8082                	ret

ffffffc050309b0c <latency>:
ffffffc050309b0c:	7179                	addi	sp,sp,-48
ffffffc050309b0e:	f406                	sd	ra,40(sp)
ffffffc050309b10:	f022                	sd	s0,32(sp)
ffffffc050309b12:	1800                	addi	s0,sp,48
ffffffc050309b14:	fca43c23          	sd	a0,-40(s0)
ffffffc050309b18:	fabff0ef          	jal	ra,ffffffc050309ac2 <get_timer>
ffffffc050309b1c:	fea43423          	sd	a0,-24(s0)
ffffffc050309b20:	0001                	nop
ffffffc050309b22:	fa1ff0ef          	jal	ra,ffffffc050309ac2 <get_timer>
ffffffc050309b26:	872a                	mv	a4,a0
ffffffc050309b28:	fe843783          	ld	a5,-24(s0)
ffffffc050309b2c:	40f707b3          	sub	a5,a4,a5
ffffffc050309b30:	fd843703          	ld	a4,-40(s0)
ffffffc050309b34:	fee7e7e3          	bltu	a5,a4,ffffffc050309b22 <latency+0x16>
ffffffc050309b38:	0001                	nop
ffffffc050309b3a:	70a2                	ld	ra,40(sp)
ffffffc050309b3c:	7402                	ld	s0,32(sp)
ffffffc050309b3e:	6145                	addi	sp,sp,48
ffffffc050309b40:	8082                	ret

ffffffc050309b42 <sbi_send_ipi>:
ffffffc050309b42:	1101                	addi	sp,sp,-32
ffffffc050309b44:	ec22                	sd	s0,24(sp)
ffffffc050309b46:	1000                	addi	s0,sp,32
ffffffc050309b48:	fea43423          	sd	a0,-24(s0)
ffffffc050309b4c:	fe843783          	ld	a5,-24(s0)
ffffffc050309b50:	853e                	mv	a0,a5
ffffffc050309b52:	4581                	li	a1,0
ffffffc050309b54:	4601                	li	a2,0
ffffffc050309b56:	4891                	li	a7,4
ffffffc050309b58:	00000073          	ecall
ffffffc050309b5c:	0001                	nop
ffffffc050309b5e:	6462                	ld	s0,24(sp)
ffffffc050309b60:	6105                	addi	sp,sp,32
ffffffc050309b62:	8082                	ret

ffffffc050309b64 <smp_init>:
ffffffc050309b64:	1141                	addi	sp,sp,-16
ffffffc050309b66:	e422                	sd	s0,8(sp)
ffffffc050309b68:	0800                	addi	s0,sp,16
ffffffc050309b6a:	0003f797          	auipc	a5,0x3f
ffffffc050309b6e:	2be78793          	addi	a5,a5,702 # ffffffc050348e28 <kernel_lock>
ffffffc050309b72:	0007a023          	sw	zero,0(a5)
ffffffc050309b76:	0001                	nop
ffffffc050309b78:	6422                	ld	s0,8(sp)
ffffffc050309b7a:	0141                	addi	sp,sp,16
ffffffc050309b7c:	8082                	ret

ffffffc050309b7e <wakeup_other_hart>:
ffffffc050309b7e:	1141                	addi	sp,sp,-16
ffffffc050309b80:	e406                	sd	ra,8(sp)
ffffffc050309b82:	e022                	sd	s0,0(sp)
ffffffc050309b84:	0800                	addi	s0,sp,16
ffffffc050309b86:	4501                	li	a0,0
ffffffc050309b88:	fbbff0ef          	jal	ra,ffffffc050309b42 <sbi_send_ipi>
ffffffc050309b8c:	14401073          	csrw	sip,zero
ffffffc050309b90:	0001                	nop
ffffffc050309b92:	60a2                	ld	ra,8(sp)
ffffffc050309b94:	6402                	ld	s0,0(sp)
ffffffc050309b96:	0141                	addi	sp,sp,16
ffffffc050309b98:	8082                	ret

ffffffc050309b9a <lock_kernel>:
ffffffc050309b9a:	1141                	addi	sp,sp,-16
ffffffc050309b9c:	e422                	sd	s0,8(sp)
ffffffc050309b9e:	0800                	addi	s0,sp,16
ffffffc050309ba0:	0001                	nop
ffffffc050309ba2:	6422                	ld	s0,8(sp)
ffffffc050309ba4:	0141                	addi	sp,sp,16
ffffffc050309ba6:	8082                	ret

ffffffc050309ba8 <unlock_kernel>:
ffffffc050309ba8:	1141                	addi	sp,sp,-16
ffffffc050309baa:	e422                	sd	s0,8(sp)
ffffffc050309bac:	0800                	addi	s0,sp,16
ffffffc050309bae:	0003f797          	auipc	a5,0x3f
ffffffc050309bb2:	27a78793          	addi	a5,a5,634 # ffffffc050348e28 <kernel_lock>
ffffffc050309bb6:	0007a023          	sw	zero,0(a5)
ffffffc050309bba:	0001                	nop
ffffffc050309bbc:	6422                	ld	s0,8(sp)
ffffffc050309bbe:	0141                	addi	sp,sp,16
ffffffc050309bc0:	8082                	ret

ffffffc050309bc2 <allocPage>:
ffffffc050309bc2:	1101                	addi	sp,sp,-32
ffffffc050309bc4:	ec22                	sd	s0,24(sp)
ffffffc050309bc6:	1000                	addi	s0,sp,32
ffffffc050309bc8:	0002e797          	auipc	a5,0x2e
ffffffc050309bcc:	95878793          	addi	a5,a5,-1704 # ffffffc050337520 <freePageList>
ffffffc050309bd0:	6398                	ld	a4,0(a5)
ffffffc050309bd2:	0002e797          	auipc	a5,0x2e
ffffffc050309bd6:	94e78793          	addi	a5,a5,-1714 # ffffffc050337520 <freePageList>
ffffffc050309bda:	02f71863          	bne	a4,a5,ffffffc050309c0a <allocPage+0x48>
ffffffc050309bde:	0002e797          	auipc	a5,0x2e
ffffffc050309be2:	93a78793          	addi	a5,a5,-1734 # ffffffc050337518 <memCurr>
ffffffc050309be6:	6398                	ld	a4,0(a5)
ffffffc050309be8:	6785                	lui	a5,0x1
ffffffc050309bea:	17fd                	addi	a5,a5,-1
ffffffc050309bec:	973e                	add	a4,a4,a5
ffffffc050309bee:	77fd                	lui	a5,0xfffff
ffffffc050309bf0:	8ff9                	and	a5,a5,a4
ffffffc050309bf2:	fef43423          	sd	a5,-24(s0)
ffffffc050309bf6:	fe843703          	ld	a4,-24(s0)
ffffffc050309bfa:	6785                	lui	a5,0x1
ffffffc050309bfc:	973e                	add	a4,a4,a5
ffffffc050309bfe:	0002e797          	auipc	a5,0x2e
ffffffc050309c02:	91a78793          	addi	a5,a5,-1766 # ffffffc050337518 <memCurr>
ffffffc050309c06:	e398                	sd	a4,0(a5)
ffffffc050309c08:	a015                	j	ffffffc050309c2c <allocPage+0x6a>
ffffffc050309c0a:	0002e797          	auipc	a5,0x2e
ffffffc050309c0e:	91678793          	addi	a5,a5,-1770 # ffffffc050337520 <freePageList>
ffffffc050309c12:	639c                	ld	a5,0(a5)
ffffffc050309c14:	fef43423          	sd	a5,-24(s0)
ffffffc050309c18:	fe843783          	ld	a5,-24(s0)
ffffffc050309c1c:	17e1                	addi	a5,a5,-8
ffffffc050309c1e:	639c                	ld	a5,0(a5)
ffffffc050309c20:	873e                	mv	a4,a5
ffffffc050309c22:	0002e797          	auipc	a5,0x2e
ffffffc050309c26:	8fe78793          	addi	a5,a5,-1794 # ffffffc050337520 <freePageList>
ffffffc050309c2a:	e398                	sd	a4,0(a5)
ffffffc050309c2c:	fe843783          	ld	a5,-24(s0)
ffffffc050309c30:	853e                	mv	a0,a5
ffffffc050309c32:	6462                	ld	s0,24(sp)
ffffffc050309c34:	6105                	addi	sp,sp,32
ffffffc050309c36:	8082                	ret

ffffffc050309c38 <freePage>:
ffffffc050309c38:	1101                	addi	sp,sp,-32
ffffffc050309c3a:	ec22                	sd	s0,24(sp)
ffffffc050309c3c:	1000                	addi	s0,sp,32
ffffffc050309c3e:	fea43423          	sd	a0,-24(s0)
ffffffc050309c42:	0001                	nop
ffffffc050309c44:	6462                	ld	s0,24(sp)
ffffffc050309c46:	6105                	addi	sp,sp,32
ffffffc050309c48:	8082                	ret

ffffffc050309c4a <kmalloc>:
ffffffc050309c4a:	7179                	addi	sp,sp,-48
ffffffc050309c4c:	f422                	sd	s0,40(sp)
ffffffc050309c4e:	1800                	addi	s0,sp,48
ffffffc050309c50:	fca43c23          	sd	a0,-40(s0)
ffffffc050309c54:	0002e797          	auipc	a5,0x2e
ffffffc050309c58:	8c478793          	addi	a5,a5,-1852 # ffffffc050337518 <memCurr>
ffffffc050309c5c:	6398                	ld	a4,0(a5)
ffffffc050309c5e:	fd843783          	ld	a5,-40(s0)
ffffffc050309c62:	97ba                	add	a5,a5,a4
ffffffc050309c64:	fff78713          	addi	a4,a5,-1
ffffffc050309c68:	fd843783          	ld	a5,-40(s0)
ffffffc050309c6c:	40f007b3          	neg	a5,a5
ffffffc050309c70:	8ff9                	and	a5,a5,a4
ffffffc050309c72:	fef43423          	sd	a5,-24(s0)
ffffffc050309c76:	fe843703          	ld	a4,-24(s0)
ffffffc050309c7a:	fd843783          	ld	a5,-40(s0)
ffffffc050309c7e:	973e                	add	a4,a4,a5
ffffffc050309c80:	0002e797          	auipc	a5,0x2e
ffffffc050309c84:	89878793          	addi	a5,a5,-1896 # ffffffc050337518 <memCurr>
ffffffc050309c88:	e398                	sd	a4,0(a5)
ffffffc050309c8a:	fe843783          	ld	a5,-24(s0)
ffffffc050309c8e:	853e                	mv	a0,a5
ffffffc050309c90:	7422                	ld	s0,40(sp)
ffffffc050309c92:	6145                	addi	sp,sp,48
ffffffc050309c94:	8082                	ret

ffffffc050309c96 <shm_page_get>:
ffffffc050309c96:	1101                	addi	sp,sp,-32
ffffffc050309c98:	ec22                	sd	s0,24(sp)
ffffffc050309c9a:	1000                	addi	s0,sp,32
ffffffc050309c9c:	87aa                	mv	a5,a0
ffffffc050309c9e:	fef42623          	sw	a5,-20(s0)
ffffffc050309ca2:	0001                	nop
ffffffc050309ca4:	853e                	mv	a0,a5
ffffffc050309ca6:	6462                	ld	s0,24(sp)
ffffffc050309ca8:	6105                	addi	sp,sp,32
ffffffc050309caa:	8082                	ret

ffffffc050309cac <shm_page_dt>:
ffffffc050309cac:	1101                	addi	sp,sp,-32
ffffffc050309cae:	ec22                	sd	s0,24(sp)
ffffffc050309cb0:	1000                	addi	s0,sp,32
ffffffc050309cb2:	fea43423          	sd	a0,-24(s0)
ffffffc050309cb6:	0001                	nop
ffffffc050309cb8:	6462                	ld	s0,24(sp)
ffffffc050309cba:	6105                	addi	sp,sp,32
ffffffc050309cbc:	8082                	ret

ffffffc050309cbe <share_pgtable>:
ffffffc050309cbe:	7179                	addi	sp,sp,-48
ffffffc050309cc0:	f406                	sd	ra,40(sp)
ffffffc050309cc2:	f022                	sd	s0,32(sp)
ffffffc050309cc4:	1800                	addi	s0,sp,48
ffffffc050309cc6:	fca43c23          	sd	a0,-40(s0)
ffffffc050309cca:	fcb43823          	sd	a1,-48(s0)
ffffffc050309cce:	6785                	lui	a5,0x1
ffffffc050309cd0:	80078793          	addi	a5,a5,-2048 # 800 <_start-0xffffffc0502ff800>
ffffffc050309cd4:	fef42623          	sw	a5,-20(s0)
ffffffc050309cd8:	fd843703          	ld	a4,-40(s0)
ffffffc050309cdc:	6785                	lui	a5,0x1
ffffffc050309cde:	80078793          	addi	a5,a5,-2048 # 800 <_start-0xffffffc0502ff800>
ffffffc050309ce2:	97ba                	add	a5,a5,a4
ffffffc050309ce4:	86be                	mv	a3,a5
ffffffc050309ce6:	fd043703          	ld	a4,-48(s0)
ffffffc050309cea:	6785                	lui	a5,0x1
ffffffc050309cec:	80078793          	addi	a5,a5,-2048 # 800 <_start-0xffffffc0502ff800>
ffffffc050309cf0:	97ba                	add	a5,a5,a4
ffffffc050309cf2:	873e                	mv	a4,a5
ffffffc050309cf4:	fec42783          	lw	a5,-20(s0)
ffffffc050309cf8:	863e                	mv	a2,a5
ffffffc050309cfa:	85ba                	mv	a1,a4
ffffffc050309cfc:	8536                	mv	a0,a3
ffffffc050309cfe:	23e000ef          	jal	ra,ffffffc050309f3c <kmemcpy>
ffffffc050309d02:	0001                	nop
ffffffc050309d04:	70a2                	ld	ra,40(sp)
ffffffc050309d06:	7402                	ld	s0,32(sp)
ffffffc050309d08:	6145                	addi	sp,sp,48
ffffffc050309d0a:	8082                	ret

ffffffc050309d0c <alloc_page_helper>:
ffffffc050309d0c:	7119                	addi	sp,sp,-128
ffffffc050309d0e:	fc86                	sd	ra,120(sp)
ffffffc050309d10:	f8a2                	sd	s0,112(sp)
ffffffc050309d12:	0100                	addi	s0,sp,128
ffffffc050309d14:	f8a43423          	sd	a0,-120(s0)
ffffffc050309d18:	f8b43023          	sd	a1,-128(s0)
ffffffc050309d1c:	f8843783          	ld	a5,-120(s0)
ffffffc050309d20:	07e6                	slli	a5,a5,0x19
ffffffc050309d22:	93dd                	srli	a5,a5,0x37
ffffffc050309d24:	fcf43c23          	sd	a5,-40(s0)
ffffffc050309d28:	f8843783          	ld	a5,-120(s0)
ffffffc050309d2c:	178a                	slli	a5,a5,0x22
ffffffc050309d2e:	93dd                	srli	a5,a5,0x37
ffffffc050309d30:	fcf43823          	sd	a5,-48(s0)
ffffffc050309d34:	f8843783          	ld	a5,-120(s0)
ffffffc050309d38:	17ae                	slli	a5,a5,0x2b
ffffffc050309d3a:	93dd                	srli	a5,a5,0x37
ffffffc050309d3c:	fcf43423          	sd	a5,-56(s0)
ffffffc050309d40:	f8843703          	ld	a4,-120(s0)
ffffffc050309d44:	6785                	lui	a5,0x1
ffffffc050309d46:	17fd                	addi	a5,a5,-1
ffffffc050309d48:	8ff9                	and	a5,a5,a4
ffffffc050309d4a:	fcf43023          	sd	a5,-64(s0)
ffffffc050309d4e:	fd843783          	ld	a5,-40(s0)
ffffffc050309d52:	00379713          	slli	a4,a5,0x3
ffffffc050309d56:	f8043783          	ld	a5,-128(s0)
ffffffc050309d5a:	97ba                	add	a5,a5,a4
ffffffc050309d5c:	639c                	ld	a5,0(a5)
ffffffc050309d5e:	faf43c23          	sd	a5,-72(s0)
ffffffc050309d62:	fb843783          	ld	a5,-72(s0)
ffffffc050309d66:	8b85                	andi	a5,a5,1
ffffffc050309d68:	ef85                	bnez	a5,ffffffc050309da0 <alloc_page_helper+0x94>
ffffffc050309d6a:	e59ff0ef          	jal	ra,ffffffc050309bc2 <allocPage>
ffffffc050309d6e:	fea43423          	sd	a0,-24(s0)
ffffffc050309d72:	fe843703          	ld	a4,-24(s0)
ffffffc050309d76:	4785                	li	a5,1
ffffffc050309d78:	179a                	slli	a5,a5,0x26
ffffffc050309d7a:	97ba                	add	a5,a5,a4
ffffffc050309d7c:	83b1                	srli	a5,a5,0xc
ffffffc050309d7e:	07aa                	slli	a5,a5,0xa
ffffffc050309d80:	faf43823          	sd	a5,-80(s0)
ffffffc050309d84:	fd843783          	ld	a5,-40(s0)
ffffffc050309d88:	00379713          	slli	a4,a5,0x3
ffffffc050309d8c:	f8043783          	ld	a5,-128(s0)
ffffffc050309d90:	97ba                	add	a5,a5,a4
ffffffc050309d92:	873e                	mv	a4,a5
ffffffc050309d94:	fb043783          	ld	a5,-80(s0)
ffffffc050309d98:	0d17e793          	ori	a5,a5,209
ffffffc050309d9c:	e31c                	sd	a5,0(a4)
ffffffc050309d9e:	a819                	j	ffffffc050309db4 <alloc_page_helper+0xa8>
ffffffc050309da0:	fb843783          	ld	a5,-72(s0)
ffffffc050309da4:	83a9                	srli	a5,a5,0xa
ffffffc050309da6:	00c79713          	slli	a4,a5,0xc
ffffffc050309daa:	57fd                	li	a5,-1
ffffffc050309dac:	179a                	slli	a5,a5,0x26
ffffffc050309dae:	97ba                	add	a5,a5,a4
ffffffc050309db0:	fef43423          	sd	a5,-24(s0)
ffffffc050309db4:	fd043783          	ld	a5,-48(s0)
ffffffc050309db8:	00379713          	slli	a4,a5,0x3
ffffffc050309dbc:	fe843783          	ld	a5,-24(s0)
ffffffc050309dc0:	97ba                	add	a5,a5,a4
ffffffc050309dc2:	639c                	ld	a5,0(a5)
ffffffc050309dc4:	faf43423          	sd	a5,-88(s0)
ffffffc050309dc8:	fa843783          	ld	a5,-88(s0)
ffffffc050309dcc:	8b85                	andi	a5,a5,1
ffffffc050309dce:	ef85                	bnez	a5,ffffffc050309e06 <alloc_page_helper+0xfa>
ffffffc050309dd0:	df3ff0ef          	jal	ra,ffffffc050309bc2 <allocPage>
ffffffc050309dd4:	fea43023          	sd	a0,-32(s0)
ffffffc050309dd8:	fe043703          	ld	a4,-32(s0)
ffffffc050309ddc:	4785                	li	a5,1
ffffffc050309dde:	179a                	slli	a5,a5,0x26
ffffffc050309de0:	97ba                	add	a5,a5,a4
ffffffc050309de2:	83b1                	srli	a5,a5,0xc
ffffffc050309de4:	07aa                	slli	a5,a5,0xa
ffffffc050309de6:	faf43023          	sd	a5,-96(s0)
ffffffc050309dea:	fd043783          	ld	a5,-48(s0)
ffffffc050309dee:	00379713          	slli	a4,a5,0x3
ffffffc050309df2:	fe843783          	ld	a5,-24(s0)
ffffffc050309df6:	97ba                	add	a5,a5,a4
ffffffc050309df8:	873e                	mv	a4,a5
ffffffc050309dfa:	fa043783          	ld	a5,-96(s0)
ffffffc050309dfe:	0d17e793          	ori	a5,a5,209
ffffffc050309e02:	e31c                	sd	a5,0(a4)
ffffffc050309e04:	a819                	j	ffffffc050309e1a <alloc_page_helper+0x10e>
ffffffc050309e06:	fa843783          	ld	a5,-88(s0)
ffffffc050309e0a:	83a9                	srli	a5,a5,0xa
ffffffc050309e0c:	00c79713          	slli	a4,a5,0xc
ffffffc050309e10:	57fd                	li	a5,-1
ffffffc050309e12:	179a                	slli	a5,a5,0x26
ffffffc050309e14:	97ba                	add	a5,a5,a4
ffffffc050309e16:	fef43023          	sd	a5,-32(s0)
ffffffc050309e1a:	da9ff0ef          	jal	ra,ffffffc050309bc2 <allocPage>
ffffffc050309e1e:	f8a43c23          	sd	a0,-104(s0)
ffffffc050309e22:	f9843703          	ld	a4,-104(s0)
ffffffc050309e26:	4785                	li	a5,1
ffffffc050309e28:	179a                	slli	a5,a5,0x26
ffffffc050309e2a:	97ba                	add	a5,a5,a4
ffffffc050309e2c:	83b1                	srli	a5,a5,0xc
ffffffc050309e2e:	07aa                	slli	a5,a5,0xa
ffffffc050309e30:	f8f43823          	sd	a5,-112(s0)
ffffffc050309e34:	fc843783          	ld	a5,-56(s0)
ffffffc050309e38:	00379713          	slli	a4,a5,0x3
ffffffc050309e3c:	fe043783          	ld	a5,-32(s0)
ffffffc050309e40:	97ba                	add	a5,a5,a4
ffffffc050309e42:	873e                	mv	a4,a5
ffffffc050309e44:	f9043783          	ld	a5,-112(s0)
ffffffc050309e48:	0df7e793          	ori	a5,a5,223
ffffffc050309e4c:	e31c                	sd	a5,0(a4)
ffffffc050309e4e:	f9843783          	ld	a5,-104(s0)
ffffffc050309e52:	853e                	mv	a0,a5
ffffffc050309e54:	70e6                	ld	ra,120(sp)
ffffffc050309e56:	7446                	ld	s0,112(sp)
ffffffc050309e58:	6109                	addi	sp,sp,128
ffffffc050309e5a:	8082                	ret

ffffffc050309e5c <ioremap>:
ffffffc050309e5c:	7179                	addi	sp,sp,-48
ffffffc050309e5e:	f422                	sd	s0,40(sp)
ffffffc050309e60:	1800                	addi	s0,sp,48
ffffffc050309e62:	fca43c23          	sd	a0,-40(s0)
ffffffc050309e66:	fcb43823          	sd	a1,-48(s0)
ffffffc050309e6a:	fd843703          	ld	a4,-40(s0)
ffffffc050309e6e:	57fd                	li	a5,-1
ffffffc050309e70:	179a                	slli	a5,a5,0x26
ffffffc050309e72:	97ba                	add	a5,a5,a4
ffffffc050309e74:	fef43423          	sd	a5,-24(s0)
ffffffc050309e78:	fe843783          	ld	a5,-24(s0)
ffffffc050309e7c:	853e                	mv	a0,a5
ffffffc050309e7e:	7422                	ld	s0,40(sp)
ffffffc050309e80:	6145                	addi	sp,sp,48
ffffffc050309e82:	8082                	ret

ffffffc050309e84 <iounmap>:
ffffffc050309e84:	1101                	addi	sp,sp,-32
ffffffc050309e86:	ec22                	sd	s0,24(sp)
ffffffc050309e88:	1000                	addi	s0,sp,32
ffffffc050309e8a:	fea43423          	sd	a0,-24(s0)
ffffffc050309e8e:	0001                	nop
ffffffc050309e90:	6462                	ld	s0,24(sp)
ffffffc050309e92:	6105                	addi	sp,sp,32
ffffffc050309e94:	8082                	ret

ffffffc050309e96 <handle_syscall>:
ffffffc050309e96:	7179                	addi	sp,sp,-48
ffffffc050309e98:	f406                	sd	ra,40(sp)
ffffffc050309e9a:	f022                	sd	s0,32(sp)
ffffffc050309e9c:	1800                	addi	s0,sp,48
ffffffc050309e9e:	fea43423          	sd	a0,-24(s0)
ffffffc050309ea2:	feb43023          	sd	a1,-32(s0)
ffffffc050309ea6:	fcc43c23          	sd	a2,-40(s0)
ffffffc050309eaa:	fe843783          	ld	a5,-24(s0)
ffffffc050309eae:	1087b783          	ld	a5,264(a5) # 1108 <_start-0xffffffc0502feef8>
ffffffc050309eb2:	00478713          	addi	a4,a5,4
ffffffc050309eb6:	fe843783          	ld	a5,-24(s0)
ffffffc050309eba:	10e7b423          	sd	a4,264(a5)
ffffffc050309ebe:	fe843783          	ld	a5,-24(s0)
ffffffc050309ec2:	67dc                	ld	a5,136(a5)
ffffffc050309ec4:	0003f717          	auipc	a4,0x3f
ffffffc050309ec8:	f6c70713          	addi	a4,a4,-148 # ffffffc050348e30 <syscall>
ffffffc050309ecc:	078e                	slli	a5,a5,0x3
ffffffc050309ece:	97ba                	add	a5,a5,a4
ffffffc050309ed0:	0007b803          	ld	a6,0(a5)
ffffffc050309ed4:	fe843783          	ld	a5,-24(s0)
ffffffc050309ed8:	6bb8                	ld	a4,80(a5)
ffffffc050309eda:	fe843783          	ld	a5,-24(s0)
ffffffc050309ede:	6fac                	ld	a1,88(a5)
ffffffc050309ee0:	fe843783          	ld	a5,-24(s0)
ffffffc050309ee4:	73b0                	ld	a2,96(a5)
ffffffc050309ee6:	fe843783          	ld	a5,-24(s0)
ffffffc050309eea:	77bc                	ld	a5,104(a5)
ffffffc050309eec:	86be                	mv	a3,a5
ffffffc050309eee:	853a                	mv	a0,a4
ffffffc050309ef0:	9802                	jalr	a6
ffffffc050309ef2:	87aa                	mv	a5,a0
ffffffc050309ef4:	873e                	mv	a4,a5
ffffffc050309ef6:	fe843783          	ld	a5,-24(s0)
ffffffc050309efa:	ebb8                	sd	a4,80(a5)
ffffffc050309efc:	0001                	nop
ffffffc050309efe:	70a2                	ld	ra,40(sp)
ffffffc050309f00:	7402                	ld	s0,32(sp)
ffffffc050309f02:	6145                	addi	sp,sp,48
ffffffc050309f04:	8082                	ret

ffffffc050309f06 <kstrlen>:
ffffffc050309f06:	7179                	addi	sp,sp,-48
ffffffc050309f08:	f422                	sd	s0,40(sp)
ffffffc050309f0a:	1800                	addi	s0,sp,48
ffffffc050309f0c:	fca43c23          	sd	a0,-40(s0)
ffffffc050309f10:	fe042623          	sw	zero,-20(s0)
ffffffc050309f14:	a031                	j	ffffffc050309f20 <kstrlen+0x1a>
ffffffc050309f16:	fec42783          	lw	a5,-20(s0)
ffffffc050309f1a:	2785                	addiw	a5,a5,1
ffffffc050309f1c:	fef42623          	sw	a5,-20(s0)
ffffffc050309f20:	fec42783          	lw	a5,-20(s0)
ffffffc050309f24:	fd843703          	ld	a4,-40(s0)
ffffffc050309f28:	97ba                	add	a5,a5,a4
ffffffc050309f2a:	0007c783          	lbu	a5,0(a5)
ffffffc050309f2e:	f7e5                	bnez	a5,ffffffc050309f16 <kstrlen+0x10>
ffffffc050309f30:	fec42783          	lw	a5,-20(s0)
ffffffc050309f34:	853e                	mv	a0,a5
ffffffc050309f36:	7422                	ld	s0,40(sp)
ffffffc050309f38:	6145                	addi	sp,sp,48
ffffffc050309f3a:	8082                	ret

ffffffc050309f3c <kmemcpy>:
ffffffc050309f3c:	7179                	addi	sp,sp,-48
ffffffc050309f3e:	f422                	sd	s0,40(sp)
ffffffc050309f40:	1800                	addi	s0,sp,48
ffffffc050309f42:	fea43423          	sd	a0,-24(s0)
ffffffc050309f46:	feb43023          	sd	a1,-32(s0)
ffffffc050309f4a:	87b2                	mv	a5,a2
ffffffc050309f4c:	fcf42e23          	sw	a5,-36(s0)
ffffffc050309f50:	a035                	j	ffffffc050309f7c <kmemcpy+0x40>
ffffffc050309f52:	fe043703          	ld	a4,-32(s0)
ffffffc050309f56:	00170793          	addi	a5,a4,1
ffffffc050309f5a:	fef43023          	sd	a5,-32(s0)
ffffffc050309f5e:	fe843783          	ld	a5,-24(s0)
ffffffc050309f62:	00178693          	addi	a3,a5,1
ffffffc050309f66:	fed43423          	sd	a3,-24(s0)
ffffffc050309f6a:	00074703          	lbu	a4,0(a4)
ffffffc050309f6e:	00e78023          	sb	a4,0(a5)
ffffffc050309f72:	fdc42783          	lw	a5,-36(s0)
ffffffc050309f76:	37fd                	addiw	a5,a5,-1
ffffffc050309f78:	fcf42e23          	sw	a5,-36(s0)
ffffffc050309f7c:	fdc42783          	lw	a5,-36(s0)
ffffffc050309f80:	2781                	sext.w	a5,a5
ffffffc050309f82:	fbe1                	bnez	a5,ffffffc050309f52 <kmemcpy+0x16>
ffffffc050309f84:	0001                	nop
ffffffc050309f86:	0001                	nop
ffffffc050309f88:	7422                	ld	s0,40(sp)
ffffffc050309f8a:	6145                	addi	sp,sp,48
ffffffc050309f8c:	8082                	ret

ffffffc050309f8e <kmemset>:
ffffffc050309f8e:	7179                	addi	sp,sp,-48
ffffffc050309f90:	f422                	sd	s0,40(sp)
ffffffc050309f92:	1800                	addi	s0,sp,48
ffffffc050309f94:	fca43c23          	sd	a0,-40(s0)
ffffffc050309f98:	87ae                	mv	a5,a1
ffffffc050309f9a:	8732                	mv	a4,a2
ffffffc050309f9c:	fcf40ba3          	sb	a5,-41(s0)
ffffffc050309fa0:	87ba                	mv	a5,a4
ffffffc050309fa2:	fcf42823          	sw	a5,-48(s0)
ffffffc050309fa6:	fd843783          	ld	a5,-40(s0)
ffffffc050309faa:	fef43423          	sd	a5,-24(s0)
ffffffc050309fae:	a005                	j	ffffffc050309fce <kmemset+0x40>
ffffffc050309fb0:	fe843783          	ld	a5,-24(s0)
ffffffc050309fb4:	00178713          	addi	a4,a5,1
ffffffc050309fb8:	fee43423          	sd	a4,-24(s0)
ffffffc050309fbc:	fd744703          	lbu	a4,-41(s0)
ffffffc050309fc0:	00e78023          	sb	a4,0(a5)
ffffffc050309fc4:	fd042783          	lw	a5,-48(s0)
ffffffc050309fc8:	37fd                	addiw	a5,a5,-1
ffffffc050309fca:	fcf42823          	sw	a5,-48(s0)
ffffffc050309fce:	fd042783          	lw	a5,-48(s0)
ffffffc050309fd2:	2781                	sext.w	a5,a5
ffffffc050309fd4:	fff1                	bnez	a5,ffffffc050309fb0 <kmemset+0x22>
ffffffc050309fd6:	0001                	nop
ffffffc050309fd8:	0001                	nop
ffffffc050309fda:	7422                	ld	s0,40(sp)
ffffffc050309fdc:	6145                	addi	sp,sp,48
ffffffc050309fde:	8082                	ret

ffffffc050309fe0 <kbzero>:
ffffffc050309fe0:	1101                	addi	sp,sp,-32
ffffffc050309fe2:	ec06                	sd	ra,24(sp)
ffffffc050309fe4:	e822                	sd	s0,16(sp)
ffffffc050309fe6:	1000                	addi	s0,sp,32
ffffffc050309fe8:	fea43423          	sd	a0,-24(s0)
ffffffc050309fec:	87ae                	mv	a5,a1
ffffffc050309fee:	fef42223          	sw	a5,-28(s0)
ffffffc050309ff2:	fe442783          	lw	a5,-28(s0)
ffffffc050309ff6:	863e                	mv	a2,a5
ffffffc050309ff8:	4581                	li	a1,0
ffffffc050309ffa:	fe843503          	ld	a0,-24(s0)
ffffffc050309ffe:	f91ff0ef          	jal	ra,ffffffc050309f8e <kmemset>
ffffffc05030a002:	0001                	nop
ffffffc05030a004:	60e2                	ld	ra,24(sp)
ffffffc05030a006:	6442                	ld	s0,16(sp)
ffffffc05030a008:	6105                	addi	sp,sp,32
ffffffc05030a00a:	8082                	ret

ffffffc05030a00c <kstrcmp>:
ffffffc05030a00c:	1101                	addi	sp,sp,-32
ffffffc05030a00e:	ec22                	sd	s0,24(sp)
ffffffc05030a010:	1000                	addi	s0,sp,32
ffffffc05030a012:	fea43423          	sd	a0,-24(s0)
ffffffc05030a016:	feb43023          	sd	a1,-32(s0)
ffffffc05030a01a:	a0a1                	j	ffffffc05030a062 <kstrcmp+0x56>
ffffffc05030a01c:	fe843783          	ld	a5,-24(s0)
ffffffc05030a020:	0007c703          	lbu	a4,0(a5)
ffffffc05030a024:	fe043783          	ld	a5,-32(s0)
ffffffc05030a028:	0007c783          	lbu	a5,0(a5)
ffffffc05030a02c:	02f70163          	beq	a4,a5,ffffffc05030a04e <kstrcmp+0x42>
ffffffc05030a030:	fe843783          	ld	a5,-24(s0)
ffffffc05030a034:	0007c783          	lbu	a5,0(a5)
ffffffc05030a038:	0007871b          	sext.w	a4,a5
ffffffc05030a03c:	fe043783          	ld	a5,-32(s0)
ffffffc05030a040:	0007c783          	lbu	a5,0(a5)
ffffffc05030a044:	2781                	sext.w	a5,a5
ffffffc05030a046:	40f707bb          	subw	a5,a4,a5
ffffffc05030a04a:	2781                	sext.w	a5,a5
ffffffc05030a04c:	a099                	j	ffffffc05030a092 <kstrcmp+0x86>
ffffffc05030a04e:	fe843783          	ld	a5,-24(s0)
ffffffc05030a052:	0785                	addi	a5,a5,1
ffffffc05030a054:	fef43423          	sd	a5,-24(s0)
ffffffc05030a058:	fe043783          	ld	a5,-32(s0)
ffffffc05030a05c:	0785                	addi	a5,a5,1
ffffffc05030a05e:	fef43023          	sd	a5,-32(s0)
ffffffc05030a062:	fe843783          	ld	a5,-24(s0)
ffffffc05030a066:	0007c783          	lbu	a5,0(a5)
ffffffc05030a06a:	c791                	beqz	a5,ffffffc05030a076 <kstrcmp+0x6a>
ffffffc05030a06c:	fe043783          	ld	a5,-32(s0)
ffffffc05030a070:	0007c783          	lbu	a5,0(a5)
ffffffc05030a074:	f7c5                	bnez	a5,ffffffc05030a01c <kstrcmp+0x10>
ffffffc05030a076:	fe843783          	ld	a5,-24(s0)
ffffffc05030a07a:	0007c783          	lbu	a5,0(a5)
ffffffc05030a07e:	0007871b          	sext.w	a4,a5
ffffffc05030a082:	fe043783          	ld	a5,-32(s0)
ffffffc05030a086:	0007c783          	lbu	a5,0(a5)
ffffffc05030a08a:	2781                	sext.w	a5,a5
ffffffc05030a08c:	40f707bb          	subw	a5,a4,a5
ffffffc05030a090:	2781                	sext.w	a5,a5
ffffffc05030a092:	853e                	mv	a0,a5
ffffffc05030a094:	6462                	ld	s0,24(sp)
ffffffc05030a096:	6105                	addi	sp,sp,32
ffffffc05030a098:	8082                	ret

ffffffc05030a09a <kstrcpy>:
ffffffc05030a09a:	7179                	addi	sp,sp,-48
ffffffc05030a09c:	f422                	sd	s0,40(sp)
ffffffc05030a09e:	1800                	addi	s0,sp,48
ffffffc05030a0a0:	fca43c23          	sd	a0,-40(s0)
ffffffc05030a0a4:	fcb43823          	sd	a1,-48(s0)
ffffffc05030a0a8:	fd843783          	ld	a5,-40(s0)
ffffffc05030a0ac:	fef43423          	sd	a5,-24(s0)
ffffffc05030a0b0:	a00d                	j	ffffffc05030a0d2 <kstrcpy+0x38>
ffffffc05030a0b2:	fd043703          	ld	a4,-48(s0)
ffffffc05030a0b6:	00170793          	addi	a5,a4,1
ffffffc05030a0ba:	fcf43823          	sd	a5,-48(s0)
ffffffc05030a0be:	fd843783          	ld	a5,-40(s0)
ffffffc05030a0c2:	00178693          	addi	a3,a5,1
ffffffc05030a0c6:	fcd43c23          	sd	a3,-40(s0)
ffffffc05030a0ca:	00074703          	lbu	a4,0(a4)
ffffffc05030a0ce:	00e78023          	sb	a4,0(a5)
ffffffc05030a0d2:	fd043783          	ld	a5,-48(s0)
ffffffc05030a0d6:	0007c783          	lbu	a5,0(a5)
ffffffc05030a0da:	ffe1                	bnez	a5,ffffffc05030a0b2 <kstrcpy+0x18>
ffffffc05030a0dc:	fd843783          	ld	a5,-40(s0)
ffffffc05030a0e0:	00078023          	sb	zero,0(a5)
ffffffc05030a0e4:	fe843783          	ld	a5,-24(s0)
ffffffc05030a0e8:	853e                	mv	a0,a5
ffffffc05030a0ea:	7422                	ld	s0,40(sp)
ffffffc05030a0ec:	6145                	addi	sp,sp,48
ffffffc05030a0ee:	8082                	ret

ffffffc05030a0f0 <kstrcat>:
ffffffc05030a0f0:	7179                	addi	sp,sp,-48
ffffffc05030a0f2:	f422                	sd	s0,40(sp)
ffffffc05030a0f4:	1800                	addi	s0,sp,48
ffffffc05030a0f6:	fca43c23          	sd	a0,-40(s0)
ffffffc05030a0fa:	fcb43823          	sd	a1,-48(s0)
ffffffc05030a0fe:	fd843783          	ld	a5,-40(s0)
ffffffc05030a102:	fef43423          	sd	a5,-24(s0)
ffffffc05030a106:	a031                	j	ffffffc05030a112 <kstrcat+0x22>
ffffffc05030a108:	fd843783          	ld	a5,-40(s0)
ffffffc05030a10c:	0785                	addi	a5,a5,1
ffffffc05030a10e:	fcf43c23          	sd	a5,-40(s0)
ffffffc05030a112:	fd843783          	ld	a5,-40(s0)
ffffffc05030a116:	0007c783          	lbu	a5,0(a5)
ffffffc05030a11a:	f7fd                	bnez	a5,ffffffc05030a108 <kstrcat+0x18>
ffffffc05030a11c:	a00d                	j	ffffffc05030a13e <kstrcat+0x4e>
ffffffc05030a11e:	fd043703          	ld	a4,-48(s0)
ffffffc05030a122:	00170793          	addi	a5,a4,1
ffffffc05030a126:	fcf43823          	sd	a5,-48(s0)
ffffffc05030a12a:	fd843783          	ld	a5,-40(s0)
ffffffc05030a12e:	00178693          	addi	a3,a5,1
ffffffc05030a132:	fcd43c23          	sd	a3,-40(s0)
ffffffc05030a136:	00074703          	lbu	a4,0(a4)
ffffffc05030a13a:	00e78023          	sb	a4,0(a5)
ffffffc05030a13e:	fd043783          	ld	a5,-48(s0)
ffffffc05030a142:	0007c783          	lbu	a5,0(a5)
ffffffc05030a146:	ffe1                	bnez	a5,ffffffc05030a11e <kstrcat+0x2e>
ffffffc05030a148:	fd843783          	ld	a5,-40(s0)
ffffffc05030a14c:	00078023          	sb	zero,0(a5)
ffffffc05030a150:	fe843783          	ld	a5,-24(s0)
ffffffc05030a154:	853e                	mv	a0,a5
ffffffc05030a156:	7422                	ld	s0,40(sp)
ffffffc05030a158:	6145                	addi	sp,sp,48
ffffffc05030a15a:	8082                	ret

ffffffc05030a15c <strlen>:
ffffffc05030a15c:	7179                	addi	sp,sp,-48
ffffffc05030a15e:	f422                	sd	s0,40(sp)
ffffffc05030a160:	1800                	addi	s0,sp,48
ffffffc05030a162:	fca43c23          	sd	a0,-40(s0)
ffffffc05030a166:	fe042623          	sw	zero,-20(s0)
ffffffc05030a16a:	a031                	j	ffffffc05030a176 <strlen+0x1a>
ffffffc05030a16c:	fec42783          	lw	a5,-20(s0)
ffffffc05030a170:	2785                	addiw	a5,a5,1
ffffffc05030a172:	fef42623          	sw	a5,-20(s0)
ffffffc05030a176:	fec42783          	lw	a5,-20(s0)
ffffffc05030a17a:	fd843703          	ld	a4,-40(s0)
ffffffc05030a17e:	97ba                	add	a5,a5,a4
ffffffc05030a180:	0007c783          	lbu	a5,0(a5)
ffffffc05030a184:	f7e5                	bnez	a5,ffffffc05030a16c <strlen+0x10>
ffffffc05030a186:	fec42783          	lw	a5,-20(s0)
ffffffc05030a18a:	853e                	mv	a0,a5
ffffffc05030a18c:	7422                	ld	s0,40(sp)
ffffffc05030a18e:	6145                	addi	sp,sp,48
ffffffc05030a190:	8082                	ret

ffffffc05030a192 <memcpy>:
ffffffc05030a192:	7179                	addi	sp,sp,-48
ffffffc05030a194:	f422                	sd	s0,40(sp)
ffffffc05030a196:	1800                	addi	s0,sp,48
ffffffc05030a198:	fea43423          	sd	a0,-24(s0)
ffffffc05030a19c:	feb43023          	sd	a1,-32(s0)
ffffffc05030a1a0:	87b2                	mv	a5,a2
ffffffc05030a1a2:	fcf42e23          	sw	a5,-36(s0)
ffffffc05030a1a6:	a035                	j	ffffffc05030a1d2 <memcpy+0x40>
ffffffc05030a1a8:	fe043703          	ld	a4,-32(s0)
ffffffc05030a1ac:	00170793          	addi	a5,a4,1
ffffffc05030a1b0:	fef43023          	sd	a5,-32(s0)
ffffffc05030a1b4:	fe843783          	ld	a5,-24(s0)
ffffffc05030a1b8:	00178693          	addi	a3,a5,1
ffffffc05030a1bc:	fed43423          	sd	a3,-24(s0)
ffffffc05030a1c0:	00074703          	lbu	a4,0(a4)
ffffffc05030a1c4:	00e78023          	sb	a4,0(a5)
ffffffc05030a1c8:	fdc42783          	lw	a5,-36(s0)
ffffffc05030a1cc:	37fd                	addiw	a5,a5,-1
ffffffc05030a1ce:	fcf42e23          	sw	a5,-36(s0)
ffffffc05030a1d2:	fdc42783          	lw	a5,-36(s0)
ffffffc05030a1d6:	2781                	sext.w	a5,a5
ffffffc05030a1d8:	fbe1                	bnez	a5,ffffffc05030a1a8 <memcpy+0x16>
ffffffc05030a1da:	0001                	nop
ffffffc05030a1dc:	0001                	nop
ffffffc05030a1de:	7422                	ld	s0,40(sp)
ffffffc05030a1e0:	6145                	addi	sp,sp,48
ffffffc05030a1e2:	8082                	ret

ffffffc05030a1e4 <memset>:
ffffffc05030a1e4:	7179                	addi	sp,sp,-48
ffffffc05030a1e6:	f422                	sd	s0,40(sp)
ffffffc05030a1e8:	1800                	addi	s0,sp,48
ffffffc05030a1ea:	fca43c23          	sd	a0,-40(s0)
ffffffc05030a1ee:	87ae                	mv	a5,a1
ffffffc05030a1f0:	8732                	mv	a4,a2
ffffffc05030a1f2:	fcf40ba3          	sb	a5,-41(s0)
ffffffc05030a1f6:	87ba                	mv	a5,a4
ffffffc05030a1f8:	fcf42823          	sw	a5,-48(s0)
ffffffc05030a1fc:	fd843783          	ld	a5,-40(s0)
ffffffc05030a200:	fef43423          	sd	a5,-24(s0)
ffffffc05030a204:	a005                	j	ffffffc05030a224 <memset+0x40>
ffffffc05030a206:	fe843783          	ld	a5,-24(s0)
ffffffc05030a20a:	00178713          	addi	a4,a5,1
ffffffc05030a20e:	fee43423          	sd	a4,-24(s0)
ffffffc05030a212:	fd744703          	lbu	a4,-41(s0)
ffffffc05030a216:	00e78023          	sb	a4,0(a5)
ffffffc05030a21a:	fd042783          	lw	a5,-48(s0)
ffffffc05030a21e:	37fd                	addiw	a5,a5,-1
ffffffc05030a220:	fcf42823          	sw	a5,-48(s0)
ffffffc05030a224:	fd042783          	lw	a5,-48(s0)
ffffffc05030a228:	2781                	sext.w	a5,a5
ffffffc05030a22a:	fff1                	bnez	a5,ffffffc05030a206 <memset+0x22>
ffffffc05030a22c:	0001                	nop
ffffffc05030a22e:	0001                	nop
ffffffc05030a230:	7422                	ld	s0,40(sp)
ffffffc05030a232:	6145                	addi	sp,sp,48
ffffffc05030a234:	8082                	ret

ffffffc05030a236 <bzero>:
ffffffc05030a236:	1101                	addi	sp,sp,-32
ffffffc05030a238:	ec06                	sd	ra,24(sp)
ffffffc05030a23a:	e822                	sd	s0,16(sp)
ffffffc05030a23c:	1000                	addi	s0,sp,32
ffffffc05030a23e:	fea43423          	sd	a0,-24(s0)
ffffffc05030a242:	87ae                	mv	a5,a1
ffffffc05030a244:	fef42223          	sw	a5,-28(s0)
ffffffc05030a248:	fe442783          	lw	a5,-28(s0)
ffffffc05030a24c:	863e                	mv	a2,a5
ffffffc05030a24e:	4581                	li	a1,0
ffffffc05030a250:	fe843503          	ld	a0,-24(s0)
ffffffc05030a254:	f91ff0ef          	jal	ra,ffffffc05030a1e4 <memset>
ffffffc05030a258:	0001                	nop
ffffffc05030a25a:	60e2                	ld	ra,24(sp)
ffffffc05030a25c:	6442                	ld	s0,16(sp)
ffffffc05030a25e:	6105                	addi	sp,sp,32
ffffffc05030a260:	8082                	ret

ffffffc05030a262 <strcmp>:
ffffffc05030a262:	1101                	addi	sp,sp,-32
ffffffc05030a264:	ec22                	sd	s0,24(sp)
ffffffc05030a266:	1000                	addi	s0,sp,32
ffffffc05030a268:	fea43423          	sd	a0,-24(s0)
ffffffc05030a26c:	feb43023          	sd	a1,-32(s0)
ffffffc05030a270:	a0a1                	j	ffffffc05030a2b8 <strcmp+0x56>
ffffffc05030a272:	fe843783          	ld	a5,-24(s0)
ffffffc05030a276:	0007c703          	lbu	a4,0(a5)
ffffffc05030a27a:	fe043783          	ld	a5,-32(s0)
ffffffc05030a27e:	0007c783          	lbu	a5,0(a5)
ffffffc05030a282:	02f70163          	beq	a4,a5,ffffffc05030a2a4 <strcmp+0x42>
ffffffc05030a286:	fe843783          	ld	a5,-24(s0)
ffffffc05030a28a:	0007c783          	lbu	a5,0(a5)
ffffffc05030a28e:	0007871b          	sext.w	a4,a5
ffffffc05030a292:	fe043783          	ld	a5,-32(s0)
ffffffc05030a296:	0007c783          	lbu	a5,0(a5)
ffffffc05030a29a:	2781                	sext.w	a5,a5
ffffffc05030a29c:	40f707bb          	subw	a5,a4,a5
ffffffc05030a2a0:	2781                	sext.w	a5,a5
ffffffc05030a2a2:	a099                	j	ffffffc05030a2e8 <strcmp+0x86>
ffffffc05030a2a4:	fe843783          	ld	a5,-24(s0)
ffffffc05030a2a8:	0785                	addi	a5,a5,1
ffffffc05030a2aa:	fef43423          	sd	a5,-24(s0)
ffffffc05030a2ae:	fe043783          	ld	a5,-32(s0)
ffffffc05030a2b2:	0785                	addi	a5,a5,1
ffffffc05030a2b4:	fef43023          	sd	a5,-32(s0)
ffffffc05030a2b8:	fe843783          	ld	a5,-24(s0)
ffffffc05030a2bc:	0007c783          	lbu	a5,0(a5)
ffffffc05030a2c0:	c791                	beqz	a5,ffffffc05030a2cc <strcmp+0x6a>
ffffffc05030a2c2:	fe043783          	ld	a5,-32(s0)
ffffffc05030a2c6:	0007c783          	lbu	a5,0(a5)
ffffffc05030a2ca:	f7c5                	bnez	a5,ffffffc05030a272 <strcmp+0x10>
ffffffc05030a2cc:	fe843783          	ld	a5,-24(s0)
ffffffc05030a2d0:	0007c783          	lbu	a5,0(a5)
ffffffc05030a2d4:	0007871b          	sext.w	a4,a5
ffffffc05030a2d8:	fe043783          	ld	a5,-32(s0)
ffffffc05030a2dc:	0007c783          	lbu	a5,0(a5)
ffffffc05030a2e0:	2781                	sext.w	a5,a5
ffffffc05030a2e2:	40f707bb          	subw	a5,a4,a5
ffffffc05030a2e6:	2781                	sext.w	a5,a5
ffffffc05030a2e8:	853e                	mv	a0,a5
ffffffc05030a2ea:	6462                	ld	s0,24(sp)
ffffffc05030a2ec:	6105                	addi	sp,sp,32
ffffffc05030a2ee:	8082                	ret

ffffffc05030a2f0 <strcpy>:
ffffffc05030a2f0:	7179                	addi	sp,sp,-48
ffffffc05030a2f2:	f422                	sd	s0,40(sp)
ffffffc05030a2f4:	1800                	addi	s0,sp,48
ffffffc05030a2f6:	fca43c23          	sd	a0,-40(s0)
ffffffc05030a2fa:	fcb43823          	sd	a1,-48(s0)
ffffffc05030a2fe:	fd843783          	ld	a5,-40(s0)
ffffffc05030a302:	fef43423          	sd	a5,-24(s0)
ffffffc05030a306:	a00d                	j	ffffffc05030a328 <strcpy+0x38>
ffffffc05030a308:	fd043703          	ld	a4,-48(s0)
ffffffc05030a30c:	00170793          	addi	a5,a4,1
ffffffc05030a310:	fcf43823          	sd	a5,-48(s0)
ffffffc05030a314:	fd843783          	ld	a5,-40(s0)
ffffffc05030a318:	00178693          	addi	a3,a5,1
ffffffc05030a31c:	fcd43c23          	sd	a3,-40(s0)
ffffffc05030a320:	00074703          	lbu	a4,0(a4)
ffffffc05030a324:	00e78023          	sb	a4,0(a5)
ffffffc05030a328:	fd043783          	ld	a5,-48(s0)
ffffffc05030a32c:	0007c783          	lbu	a5,0(a5)
ffffffc05030a330:	ffe1                	bnez	a5,ffffffc05030a308 <strcpy+0x18>
ffffffc05030a332:	fd843783          	ld	a5,-40(s0)
ffffffc05030a336:	00078023          	sb	zero,0(a5)
ffffffc05030a33a:	fe843783          	ld	a5,-24(s0)
ffffffc05030a33e:	853e                	mv	a0,a5
ffffffc05030a340:	7422                	ld	s0,40(sp)
ffffffc05030a342:	6145                	addi	sp,sp,48
ffffffc05030a344:	8082                	ret

ffffffc05030a346 <strcat>:
ffffffc05030a346:	7179                	addi	sp,sp,-48
ffffffc05030a348:	f422                	sd	s0,40(sp)
ffffffc05030a34a:	1800                	addi	s0,sp,48
ffffffc05030a34c:	fca43c23          	sd	a0,-40(s0)
ffffffc05030a350:	fcb43823          	sd	a1,-48(s0)
ffffffc05030a354:	fd843783          	ld	a5,-40(s0)
ffffffc05030a358:	fef43423          	sd	a5,-24(s0)
ffffffc05030a35c:	a031                	j	ffffffc05030a368 <strcat+0x22>
ffffffc05030a35e:	fd843783          	ld	a5,-40(s0)
ffffffc05030a362:	0785                	addi	a5,a5,1
ffffffc05030a364:	fcf43c23          	sd	a5,-40(s0)
ffffffc05030a368:	fd843783          	ld	a5,-40(s0)
ffffffc05030a36c:	0007c783          	lbu	a5,0(a5)
ffffffc05030a370:	f7fd                	bnez	a5,ffffffc05030a35e <strcat+0x18>
ffffffc05030a372:	a00d                	j	ffffffc05030a394 <strcat+0x4e>
ffffffc05030a374:	fd043703          	ld	a4,-48(s0)
ffffffc05030a378:	00170793          	addi	a5,a4,1
ffffffc05030a37c:	fcf43823          	sd	a5,-48(s0)
ffffffc05030a380:	fd843783          	ld	a5,-40(s0)
ffffffc05030a384:	00178693          	addi	a3,a5,1
ffffffc05030a388:	fcd43c23          	sd	a3,-40(s0)
ffffffc05030a38c:	00074703          	lbu	a4,0(a4)
ffffffc05030a390:	00e78023          	sb	a4,0(a5)
ffffffc05030a394:	fd043783          	ld	a5,-48(s0)
ffffffc05030a398:	0007c783          	lbu	a5,0(a5)
ffffffc05030a39c:	ffe1                	bnez	a5,ffffffc05030a374 <strcat+0x2e>
ffffffc05030a39e:	fd843783          	ld	a5,-40(s0)
ffffffc05030a3a2:	00078023          	sb	zero,0(a5)
ffffffc05030a3a6:	fe843783          	ld	a5,-24(s0)
ffffffc05030a3aa:	853e                	mv	a0,a5
ffffffc05030a3ac:	7422                	ld	s0,40(sp)
ffffffc05030a3ae:	6145                	addi	sp,sp,48
ffffffc05030a3b0:	8082                	ret

ffffffc05030a3b2 <mini_strlen>:
ffffffc05030a3b2:	7179                	addi	sp,sp,-48
ffffffc05030a3b4:	f422                	sd	s0,40(sp)
ffffffc05030a3b6:	1800                	addi	s0,sp,48
ffffffc05030a3b8:	fca43c23          	sd	a0,-40(s0)
ffffffc05030a3bc:	fe042623          	sw	zero,-20(s0)
ffffffc05030a3c0:	a031                	j	ffffffc05030a3cc <mini_strlen+0x1a>
ffffffc05030a3c2:	fec42783          	lw	a5,-20(s0)
ffffffc05030a3c6:	2785                	addiw	a5,a5,1
ffffffc05030a3c8:	fef42623          	sw	a5,-20(s0)
ffffffc05030a3cc:	fec46783          	lwu	a5,-20(s0)
ffffffc05030a3d0:	fd843703          	ld	a4,-40(s0)
ffffffc05030a3d4:	97ba                	add	a5,a5,a4
ffffffc05030a3d6:	0007c783          	lbu	a5,0(a5)
ffffffc05030a3da:	f7e5                	bnez	a5,ffffffc05030a3c2 <mini_strlen+0x10>
ffffffc05030a3dc:	fec42783          	lw	a5,-20(s0)
ffffffc05030a3e0:	853e                	mv	a0,a5
ffffffc05030a3e2:	7422                	ld	s0,40(sp)
ffffffc05030a3e4:	6145                	addi	sp,sp,48
ffffffc05030a3e6:	8082                	ret

ffffffc05030a3e8 <mini_itoa>:
ffffffc05030a3e8:	715d                	addi	sp,sp,-80
ffffffc05030a3ea:	e4a2                	sd	s0,72(sp)
ffffffc05030a3ec:	0880                	addi	s0,sp,80
ffffffc05030a3ee:	fca43423          	sd	a0,-56(s0)
ffffffc05030a3f2:	fae43823          	sd	a4,-80(s0)
ffffffc05030a3f6:	873e                	mv	a4,a5
ffffffc05030a3f8:	87ae                	mv	a5,a1
ffffffc05030a3fa:	fcf42223          	sw	a5,-60(s0)
ffffffc05030a3fe:	87b2                	mv	a5,a2
ffffffc05030a400:	fcf42023          	sw	a5,-64(s0)
ffffffc05030a404:	87b6                	mv	a5,a3
ffffffc05030a406:	faf42e23          	sw	a5,-68(s0)
ffffffc05030a40a:	87ba                	mv	a5,a4
ffffffc05030a40c:	faf42c23          	sw	a5,-72(s0)
ffffffc05030a410:	fb043783          	ld	a5,-80(s0)
ffffffc05030a414:	fef43423          	sd	a5,-24(s0)
ffffffc05030a418:	fe042223          	sw	zero,-28(s0)
ffffffc05030a41c:	fc442783          	lw	a5,-60(s0)
ffffffc05030a420:	0007871b          	sext.w	a4,a5
ffffffc05030a424:	47c1                	li	a5,16
ffffffc05030a426:	00e7f463          	bgeu	a5,a4,ffffffc05030a42e <mini_itoa+0x46>
ffffffc05030a42a:	4781                	li	a5,0
ffffffc05030a42c:	aae9                	j	ffffffc05030a606 <mini_itoa+0x21e>
ffffffc05030a42e:	fc843783          	ld	a5,-56(s0)
ffffffc05030a432:	0007df63          	bgez	a5,ffffffc05030a450 <mini_itoa+0x68>
ffffffc05030a436:	fbc42783          	lw	a5,-68(s0)
ffffffc05030a43a:	2781                	sext.w	a5,a5
ffffffc05030a43c:	eb91                	bnez	a5,ffffffc05030a450 <mini_itoa+0x68>
ffffffc05030a43e:	4785                	li	a5,1
ffffffc05030a440:	fef42223          	sw	a5,-28(s0)
ffffffc05030a444:	fc843783          	ld	a5,-56(s0)
ffffffc05030a448:	40f007b3          	neg	a5,a5
ffffffc05030a44c:	fcf43423          	sd	a5,-56(s0)
ffffffc05030a450:	fc042e23          	sw	zero,-36(s0)
ffffffc05030a454:	fbc42783          	lw	a5,-68(s0)
ffffffc05030a458:	2781                	sext.w	a5,a5
ffffffc05030a45a:	cb91                	beqz	a5,ffffffc05030a46e <mini_itoa+0x86>
ffffffc05030a45c:	fc843703          	ld	a4,-56(s0)
ffffffc05030a460:	fc446783          	lwu	a5,-60(s0)
ffffffc05030a464:	02f777b3          	remu	a5,a4,a5
ffffffc05030a468:	fcf42e23          	sw	a5,-36(s0)
ffffffc05030a46c:	a809                	j	ffffffc05030a47e <mini_itoa+0x96>
ffffffc05030a46e:	fc446783          	lwu	a5,-60(s0)
ffffffc05030a472:	fc843703          	ld	a4,-56(s0)
ffffffc05030a476:	02f767b3          	rem	a5,a4,a5
ffffffc05030a47a:	fcf42e23          	sw	a5,-36(s0)
ffffffc05030a47e:	fdc42783          	lw	a5,-36(s0)
ffffffc05030a482:	0007871b          	sext.w	a4,a5
ffffffc05030a486:	47a5                	li	a5,9
ffffffc05030a488:	00e7cb63          	blt	a5,a4,ffffffc05030a49e <mini_itoa+0xb6>
ffffffc05030a48c:	fdc42783          	lw	a5,-36(s0)
ffffffc05030a490:	0ff7f793          	andi	a5,a5,255
ffffffc05030a494:	0307879b          	addiw	a5,a5,48
ffffffc05030a498:	0ff7f713          	andi	a4,a5,255
ffffffc05030a49c:	a025                	j	ffffffc05030a4c4 <mini_itoa+0xdc>
ffffffc05030a49e:	fc042783          	lw	a5,-64(s0)
ffffffc05030a4a2:	2781                	sext.w	a5,a5
ffffffc05030a4a4:	c781                	beqz	a5,ffffffc05030a4ac <mini_itoa+0xc4>
ffffffc05030a4a6:	04100793          	li	a5,65
ffffffc05030a4aa:	a019                	j	ffffffc05030a4b0 <mini_itoa+0xc8>
ffffffc05030a4ac:	06100793          	li	a5,97
ffffffc05030a4b0:	fdc42703          	lw	a4,-36(s0)
ffffffc05030a4b4:	0ff77713          	andi	a4,a4,255
ffffffc05030a4b8:	9fb9                	addw	a5,a5,a4
ffffffc05030a4ba:	0ff7f793          	andi	a5,a5,255
ffffffc05030a4be:	37d9                	addiw	a5,a5,-10
ffffffc05030a4c0:	0ff7f713          	andi	a4,a5,255
ffffffc05030a4c4:	fe843783          	ld	a5,-24(s0)
ffffffc05030a4c8:	00178693          	addi	a3,a5,1
ffffffc05030a4cc:	fed43423          	sd	a3,-24(s0)
ffffffc05030a4d0:	00e78023          	sb	a4,0(a5)
ffffffc05030a4d4:	fbc42783          	lw	a5,-68(s0)
ffffffc05030a4d8:	2781                	sext.w	a5,a5
ffffffc05030a4da:	cb91                	beqz	a5,ffffffc05030a4ee <mini_itoa+0x106>
ffffffc05030a4dc:	fc843703          	ld	a4,-56(s0)
ffffffc05030a4e0:	fc446783          	lwu	a5,-60(s0)
ffffffc05030a4e4:	02f757b3          	divu	a5,a4,a5
ffffffc05030a4e8:	fcf43423          	sd	a5,-56(s0)
ffffffc05030a4ec:	a809                	j	ffffffc05030a4fe <mini_itoa+0x116>
ffffffc05030a4ee:	fc446783          	lwu	a5,-60(s0)
ffffffc05030a4f2:	fc843703          	ld	a4,-56(s0)
ffffffc05030a4f6:	02f747b3          	div	a5,a4,a5
ffffffc05030a4fa:	fcf43423          	sd	a5,-56(s0)
ffffffc05030a4fe:	fc843783          	ld	a5,-56(s0)
ffffffc05030a502:	f7b9                	bnez	a5,ffffffc05030a450 <mini_itoa+0x68>
ffffffc05030a504:	fe843703          	ld	a4,-24(s0)
ffffffc05030a508:	fb043783          	ld	a5,-80(s0)
ffffffc05030a50c:	40f707b3          	sub	a5,a4,a5
ffffffc05030a510:	fef42023          	sw	a5,-32(s0)
ffffffc05030a514:	a005                	j	ffffffc05030a534 <mini_itoa+0x14c>
ffffffc05030a516:	fe843783          	ld	a5,-24(s0)
ffffffc05030a51a:	00178713          	addi	a4,a5,1
ffffffc05030a51e:	fee43423          	sd	a4,-24(s0)
ffffffc05030a522:	03000713          	li	a4,48
ffffffc05030a526:	00e78023          	sb	a4,0(a5)
ffffffc05030a52a:	fe042783          	lw	a5,-32(s0)
ffffffc05030a52e:	2785                	addiw	a5,a5,1
ffffffc05030a530:	fef42023          	sw	a5,-32(s0)
ffffffc05030a534:	fe042703          	lw	a4,-32(s0)
ffffffc05030a538:	fb842783          	lw	a5,-72(s0)
ffffffc05030a53c:	2701                	sext.w	a4,a4
ffffffc05030a53e:	2781                	sext.w	a5,a5
ffffffc05030a540:	fcf76be3          	bltu	a4,a5,ffffffc05030a516 <mini_itoa+0x12e>
ffffffc05030a544:	fe442783          	lw	a5,-28(s0)
ffffffc05030a548:	2781                	sext.w	a5,a5
ffffffc05030a54a:	cb99                	beqz	a5,ffffffc05030a560 <mini_itoa+0x178>
ffffffc05030a54c:	fe843783          	ld	a5,-24(s0)
ffffffc05030a550:	00178713          	addi	a4,a5,1
ffffffc05030a554:	fee43423          	sd	a4,-24(s0)
ffffffc05030a558:	02d00713          	li	a4,45
ffffffc05030a55c:	00e78023          	sb	a4,0(a5)
ffffffc05030a560:	fe843783          	ld	a5,-24(s0)
ffffffc05030a564:	00078023          	sb	zero,0(a5)
ffffffc05030a568:	fe843703          	ld	a4,-24(s0)
ffffffc05030a56c:	fb043783          	ld	a5,-80(s0)
ffffffc05030a570:	40f707b3          	sub	a5,a4,a5
ffffffc05030a574:	fcf42c23          	sw	a5,-40(s0)
ffffffc05030a578:	fe042023          	sw	zero,-32(s0)
ffffffc05030a57c:	a885                	j	ffffffc05030a5ec <mini_itoa+0x204>
ffffffc05030a57e:	fe046783          	lwu	a5,-32(s0)
ffffffc05030a582:	fb043703          	ld	a4,-80(s0)
ffffffc05030a586:	97ba                	add	a5,a5,a4
ffffffc05030a588:	0007c783          	lbu	a5,0(a5)
ffffffc05030a58c:	fcf40ba3          	sb	a5,-41(s0)
ffffffc05030a590:	fd842703          	lw	a4,-40(s0)
ffffffc05030a594:	fe042783          	lw	a5,-32(s0)
ffffffc05030a598:	40f707bb          	subw	a5,a4,a5
ffffffc05030a59c:	2781                	sext.w	a5,a5
ffffffc05030a59e:	37fd                	addiw	a5,a5,-1
ffffffc05030a5a0:	2781                	sext.w	a5,a5
ffffffc05030a5a2:	1782                	slli	a5,a5,0x20
ffffffc05030a5a4:	9381                	srli	a5,a5,0x20
ffffffc05030a5a6:	fb043703          	ld	a4,-80(s0)
ffffffc05030a5aa:	973e                	add	a4,a4,a5
ffffffc05030a5ac:	fe046783          	lwu	a5,-32(s0)
ffffffc05030a5b0:	fb043683          	ld	a3,-80(s0)
ffffffc05030a5b4:	97b6                	add	a5,a5,a3
ffffffc05030a5b6:	00074703          	lbu	a4,0(a4)
ffffffc05030a5ba:	00e78023          	sb	a4,0(a5)
ffffffc05030a5be:	fd842703          	lw	a4,-40(s0)
ffffffc05030a5c2:	fe042783          	lw	a5,-32(s0)
ffffffc05030a5c6:	40f707bb          	subw	a5,a4,a5
ffffffc05030a5ca:	2781                	sext.w	a5,a5
ffffffc05030a5cc:	37fd                	addiw	a5,a5,-1
ffffffc05030a5ce:	2781                	sext.w	a5,a5
ffffffc05030a5d0:	1782                	slli	a5,a5,0x20
ffffffc05030a5d2:	9381                	srli	a5,a5,0x20
ffffffc05030a5d4:	fb043703          	ld	a4,-80(s0)
ffffffc05030a5d8:	97ba                	add	a5,a5,a4
ffffffc05030a5da:	fd744703          	lbu	a4,-41(s0)
ffffffc05030a5de:	00e78023          	sb	a4,0(a5)
ffffffc05030a5e2:	fe042783          	lw	a5,-32(s0)
ffffffc05030a5e6:	2785                	addiw	a5,a5,1
ffffffc05030a5e8:	fef42023          	sw	a5,-32(s0)
ffffffc05030a5ec:	fd842783          	lw	a5,-40(s0)
ffffffc05030a5f0:	0017d79b          	srliw	a5,a5,0x1
ffffffc05030a5f4:	0007871b          	sext.w	a4,a5
ffffffc05030a5f8:	fe042783          	lw	a5,-32(s0)
ffffffc05030a5fc:	2781                	sext.w	a5,a5
ffffffc05030a5fe:	f8e7e0e3          	bltu	a5,a4,ffffffc05030a57e <mini_itoa+0x196>
ffffffc05030a602:	fd842783          	lw	a5,-40(s0)
ffffffc05030a606:	853e                	mv	a0,a5
ffffffc05030a608:	6426                	ld	s0,72(sp)
ffffffc05030a60a:	6161                	addi	sp,sp,80
ffffffc05030a60c:	8082                	ret

ffffffc05030a60e <_putc>:
ffffffc05030a60e:	1101                	addi	sp,sp,-32
ffffffc05030a610:	ec22                	sd	s0,24(sp)
ffffffc05030a612:	1000                	addi	s0,sp,32
ffffffc05030a614:	87aa                	mv	a5,a0
ffffffc05030a616:	feb43023          	sd	a1,-32(s0)
ffffffc05030a61a:	fef42623          	sw	a5,-20(s0)
ffffffc05030a61e:	fe043783          	ld	a5,-32(s0)
ffffffc05030a622:	6798                	ld	a4,8(a5)
ffffffc05030a624:	fe043783          	ld	a5,-32(s0)
ffffffc05030a628:	639c                	ld	a5,0(a5)
ffffffc05030a62a:	40f707b3          	sub	a5,a4,a5
ffffffc05030a62e:	2781                	sext.w	a5,a5
ffffffc05030a630:	2785                	addiw	a5,a5,1
ffffffc05030a632:	0007871b          	sext.w	a4,a5
ffffffc05030a636:	fe043783          	ld	a5,-32(s0)
ffffffc05030a63a:	4b9c                	lw	a5,16(a5)
ffffffc05030a63c:	00f76463          	bltu	a4,a5,ffffffc05030a644 <_putc+0x36>
ffffffc05030a640:	4781                	li	a5,0
ffffffc05030a642:	a02d                	j	ffffffc05030a66c <_putc+0x5e>
ffffffc05030a644:	fe043783          	ld	a5,-32(s0)
ffffffc05030a648:	679c                	ld	a5,8(a5)
ffffffc05030a64a:	00178693          	addi	a3,a5,1
ffffffc05030a64e:	fe043703          	ld	a4,-32(s0)
ffffffc05030a652:	e714                	sd	a3,8(a4)
ffffffc05030a654:	fec42703          	lw	a4,-20(s0)
ffffffc05030a658:	0ff77713          	andi	a4,a4,255
ffffffc05030a65c:	00e78023          	sb	a4,0(a5)
ffffffc05030a660:	fe043783          	ld	a5,-32(s0)
ffffffc05030a664:	679c                	ld	a5,8(a5)
ffffffc05030a666:	00078023          	sb	zero,0(a5)
ffffffc05030a66a:	4785                	li	a5,1
ffffffc05030a66c:	853e                	mv	a0,a5
ffffffc05030a66e:	6462                	ld	s0,24(sp)
ffffffc05030a670:	6105                	addi	sp,sp,32
ffffffc05030a672:	8082                	ret

ffffffc05030a674 <_puts>:
ffffffc05030a674:	7139                	addi	sp,sp,-64
ffffffc05030a676:	fc22                	sd	s0,56(sp)
ffffffc05030a678:	0080                	addi	s0,sp,64
ffffffc05030a67a:	fca43c23          	sd	a0,-40(s0)
ffffffc05030a67e:	87ae                	mv	a5,a1
ffffffc05030a680:	fcc43423          	sd	a2,-56(s0)
ffffffc05030a684:	fcf42a23          	sw	a5,-44(s0)
ffffffc05030a688:	fc843783          	ld	a5,-56(s0)
ffffffc05030a68c:	4b9c                	lw	a5,16(a5)
ffffffc05030a68e:	02079713          	slli	a4,a5,0x20
ffffffc05030a692:	9301                	srli	a4,a4,0x20
ffffffc05030a694:	fc843783          	ld	a5,-56(s0)
ffffffc05030a698:	6794                	ld	a3,8(a5)
ffffffc05030a69a:	fc843783          	ld	a5,-56(s0)
ffffffc05030a69e:	639c                	ld	a5,0(a5)
ffffffc05030a6a0:	40f687b3          	sub	a5,a3,a5
ffffffc05030a6a4:	8f1d                	sub	a4,a4,a5
ffffffc05030a6a6:	fd446783          	lwu	a5,-44(s0)
ffffffc05030a6aa:	02e7c463          	blt	a5,a4,ffffffc05030a6d2 <_puts+0x5e>
ffffffc05030a6ae:	fc843783          	ld	a5,-56(s0)
ffffffc05030a6b2:	4b98                	lw	a4,16(a5)
ffffffc05030a6b4:	fc843783          	ld	a5,-56(s0)
ffffffc05030a6b8:	6794                	ld	a3,8(a5)
ffffffc05030a6ba:	fc843783          	ld	a5,-56(s0)
ffffffc05030a6be:	639c                	ld	a5,0(a5)
ffffffc05030a6c0:	40f687b3          	sub	a5,a3,a5
ffffffc05030a6c4:	2781                	sext.w	a5,a5
ffffffc05030a6c6:	40f707bb          	subw	a5,a4,a5
ffffffc05030a6ca:	2781                	sext.w	a5,a5
ffffffc05030a6cc:	37fd                	addiw	a5,a5,-1
ffffffc05030a6ce:	fcf42a23          	sw	a5,-44(s0)
ffffffc05030a6d2:	fe042623          	sw	zero,-20(s0)
ffffffc05030a6d6:	a03d                	j	ffffffc05030a704 <_puts+0x90>
ffffffc05030a6d8:	fec46783          	lwu	a5,-20(s0)
ffffffc05030a6dc:	fd843703          	ld	a4,-40(s0)
ffffffc05030a6e0:	973e                	add	a4,a4,a5
ffffffc05030a6e2:	fc843783          	ld	a5,-56(s0)
ffffffc05030a6e6:	679c                	ld	a5,8(a5)
ffffffc05030a6e8:	00178613          	addi	a2,a5,1
ffffffc05030a6ec:	fc843683          	ld	a3,-56(s0)
ffffffc05030a6f0:	e690                	sd	a2,8(a3)
ffffffc05030a6f2:	00074703          	lbu	a4,0(a4)
ffffffc05030a6f6:	00e78023          	sb	a4,0(a5)
ffffffc05030a6fa:	fec42783          	lw	a5,-20(s0)
ffffffc05030a6fe:	2785                	addiw	a5,a5,1
ffffffc05030a700:	fef42623          	sw	a5,-20(s0)
ffffffc05030a704:	fec42703          	lw	a4,-20(s0)
ffffffc05030a708:	fd442783          	lw	a5,-44(s0)
ffffffc05030a70c:	2701                	sext.w	a4,a4
ffffffc05030a70e:	2781                	sext.w	a5,a5
ffffffc05030a710:	fcf764e3          	bltu	a4,a5,ffffffc05030a6d8 <_puts+0x64>
ffffffc05030a714:	fc843783          	ld	a5,-56(s0)
ffffffc05030a718:	679c                	ld	a5,8(a5)
ffffffc05030a71a:	00078023          	sb	zero,0(a5)
ffffffc05030a71e:	fd442783          	lw	a5,-44(s0)
ffffffc05030a722:	853e                	mv	a0,a5
ffffffc05030a724:	7462                	ld	s0,56(sp)
ffffffc05030a726:	6121                	addi	sp,sp,64
ffffffc05030a728:	8082                	ret

ffffffc05030a72a <mini_vsnprintf>:
ffffffc05030a72a:	7119                	addi	sp,sp,-128
ffffffc05030a72c:	fc86                	sd	ra,120(sp)
ffffffc05030a72e:	f8a2                	sd	s0,112(sp)
ffffffc05030a730:	0100                	addi	s0,sp,128
ffffffc05030a732:	f8a43c23          	sd	a0,-104(s0)
ffffffc05030a736:	87ae                	mv	a5,a1
ffffffc05030a738:	f8c43423          	sd	a2,-120(s0)
ffffffc05030a73c:	f8d43023          	sd	a3,-128(s0)
ffffffc05030a740:	f8f42a23          	sw	a5,-108(s0)
ffffffc05030a744:	f9843783          	ld	a5,-104(s0)
ffffffc05030a748:	fcf43023          	sd	a5,-64(s0)
ffffffc05030a74c:	f9843783          	ld	a5,-104(s0)
ffffffc05030a750:	fcf43423          	sd	a5,-56(s0)
ffffffc05030a754:	f9442783          	lw	a5,-108(s0)
ffffffc05030a758:	fcf42823          	sw	a5,-48(s0)
ffffffc05030a75c:	a4f9                	j	ffffffc05030aa2a <mini_vsnprintf+0x300>
ffffffc05030a75e:	fc843703          	ld	a4,-56(s0)
ffffffc05030a762:	fc043783          	ld	a5,-64(s0)
ffffffc05030a766:	40f707b3          	sub	a5,a4,a5
ffffffc05030a76a:	2781                	sext.w	a5,a5
ffffffc05030a76c:	2785                	addiw	a5,a5,1
ffffffc05030a76e:	0007871b          	sext.w	a4,a5
ffffffc05030a772:	fd042783          	lw	a5,-48(s0)
ffffffc05030a776:	2cf77b63          	bgeu	a4,a5,ffffffc05030aa4c <mini_vsnprintf+0x322>
ffffffc05030a77a:	fef44783          	lbu	a5,-17(s0)
ffffffc05030a77e:	0ff7f713          	andi	a4,a5,255
ffffffc05030a782:	02500793          	li	a5,37
ffffffc05030a786:	00f70c63          	beq	a4,a5,ffffffc05030a79e <mini_vsnprintf+0x74>
ffffffc05030a78a:	fef44783          	lbu	a5,-17(s0)
ffffffc05030a78e:	2781                	sext.w	a5,a5
ffffffc05030a790:	fc040713          	addi	a4,s0,-64
ffffffc05030a794:	85ba                	mv	a1,a4
ffffffc05030a796:	853e                	mv	a0,a5
ffffffc05030a798:	e77ff0ef          	jal	ra,ffffffc05030a60e <_putc>
ffffffc05030a79c:	a479                	j	ffffffc05030aa2a <mini_vsnprintf+0x300>
ffffffc05030a79e:	fe040723          	sb	zero,-18(s0)
ffffffc05030a7a2:	fe042423          	sw	zero,-24(s0)
ffffffc05030a7a6:	f8843783          	ld	a5,-120(s0)
ffffffc05030a7aa:	00178713          	addi	a4,a5,1
ffffffc05030a7ae:	f8e43423          	sd	a4,-120(s0)
ffffffc05030a7b2:	0007c783          	lbu	a5,0(a5)
ffffffc05030a7b6:	fef407a3          	sb	a5,-17(s0)
ffffffc05030a7ba:	fef44783          	lbu	a5,-17(s0)
ffffffc05030a7be:	0ff7f713          	andi	a4,a5,255
ffffffc05030a7c2:	03000793          	li	a5,48
ffffffc05030a7c6:	06f71b63          	bne	a4,a5,ffffffc05030a83c <mini_vsnprintf+0x112>
ffffffc05030a7ca:	a891                	j	ffffffc05030a81e <mini_vsnprintf+0xf4>
ffffffc05030a7cc:	fef44783          	lbu	a5,-17(s0)
ffffffc05030a7d0:	0ff7f793          	andi	a5,a5,255
ffffffc05030a7d4:	26078e63          	beqz	a5,ffffffc05030aa50 <mini_vsnprintf+0x326>
ffffffc05030a7d8:	fef44783          	lbu	a5,-17(s0)
ffffffc05030a7dc:	0ff7f713          	andi	a4,a5,255
ffffffc05030a7e0:	02f00793          	li	a5,47
ffffffc05030a7e4:	04e7fc63          	bgeu	a5,a4,ffffffc05030a83c <mini_vsnprintf+0x112>
ffffffc05030a7e8:	fef44783          	lbu	a5,-17(s0)
ffffffc05030a7ec:	0ff7f713          	andi	a4,a5,255
ffffffc05030a7f0:	03900793          	li	a5,57
ffffffc05030a7f4:	04e7e463          	bltu	a5,a4,ffffffc05030a83c <mini_vsnprintf+0x112>
ffffffc05030a7f8:	fee44703          	lbu	a4,-18(s0)
ffffffc05030a7fc:	87ba                	mv	a5,a4
ffffffc05030a7fe:	0027979b          	slliw	a5,a5,0x2
ffffffc05030a802:	9fb9                	addw	a5,a5,a4
ffffffc05030a804:	0017979b          	slliw	a5,a5,0x1
ffffffc05030a808:	0ff7f793          	andi	a5,a5,255
ffffffc05030a80c:	fef44703          	lbu	a4,-17(s0)
ffffffc05030a810:	9fb9                	addw	a5,a5,a4
ffffffc05030a812:	0ff7f793          	andi	a5,a5,255
ffffffc05030a816:	fd07879b          	addiw	a5,a5,-48
ffffffc05030a81a:	fef40723          	sb	a5,-18(s0)
ffffffc05030a81e:	f8843783          	ld	a5,-120(s0)
ffffffc05030a822:	00178713          	addi	a4,a5,1
ffffffc05030a826:	f8e43423          	sd	a4,-120(s0)
ffffffc05030a82a:	0007c783          	lbu	a5,0(a5)
ffffffc05030a82e:	fef407a3          	sb	a5,-17(s0)
ffffffc05030a832:	fef44783          	lbu	a5,-17(s0)
ffffffc05030a836:	0ff7f793          	andi	a5,a5,255
ffffffc05030a83a:	fbc9                	bnez	a5,ffffffc05030a7cc <mini_vsnprintf+0xa2>
ffffffc05030a83c:	fef44783          	lbu	a5,-17(s0)
ffffffc05030a840:	0ff7f713          	andi	a4,a5,255
ffffffc05030a844:	06c00793          	li	a5,108
ffffffc05030a848:	00f71f63          	bne	a4,a5,ffffffc05030a866 <mini_vsnprintf+0x13c>
ffffffc05030a84c:	4785                	li	a5,1
ffffffc05030a84e:	fef42423          	sw	a5,-24(s0)
ffffffc05030a852:	f8843783          	ld	a5,-120(s0)
ffffffc05030a856:	00178713          	addi	a4,a5,1
ffffffc05030a85a:	f8e43423          	sd	a4,-120(s0)
ffffffc05030a85e:	0007c783          	lbu	a5,0(a5)
ffffffc05030a862:	fef407a3          	sb	a5,-17(s0)
ffffffc05030a866:	fef44783          	lbu	a5,-17(s0)
ffffffc05030a86a:	2781                	sext.w	a5,a5
ffffffc05030a86c:	1e078463          	beqz	a5,ffffffc05030aa54 <mini_vsnprintf+0x32a>
ffffffc05030a870:	873e                	mv	a4,a5
ffffffc05030a872:	1a074263          	bltz	a4,ffffffc05030aa16 <mini_vsnprintf+0x2ec>
ffffffc05030a876:	86be                	mv	a3,a5
ffffffc05030a878:	07800713          	li	a4,120
ffffffc05030a87c:	18d74d63          	blt	a4,a3,ffffffc05030aa16 <mini_vsnprintf+0x2ec>
ffffffc05030a880:	86be                	mv	a3,a5
ffffffc05030a882:	05800713          	li	a4,88
ffffffc05030a886:	18e6c863          	blt	a3,a4,ffffffc05030aa16 <mini_vsnprintf+0x2ec>
ffffffc05030a88a:	fa87869b          	addiw	a3,a5,-88
ffffffc05030a88e:	0006871b          	sext.w	a4,a3
ffffffc05030a892:	02000793          	li	a5,32
ffffffc05030a896:	18e7e063          	bltu	a5,a4,ffffffc05030aa16 <mini_vsnprintf+0x2ec>
ffffffc05030a89a:	02069793          	slli	a5,a3,0x20
ffffffc05030a89e:	9381                	srli	a5,a5,0x20
ffffffc05030a8a0:	00279713          	slli	a4,a5,0x2
ffffffc05030a8a4:	00001797          	auipc	a5,0x1
ffffffc05030a8a8:	2f078793          	addi	a5,a5,752 # ffffffc05030bb94 <__FUNCTION__.1399+0xf4>
ffffffc05030a8ac:	97ba                	add	a5,a5,a4
ffffffc05030a8ae:	439c                	lw	a5,0(a5)
ffffffc05030a8b0:	0007871b          	sext.w	a4,a5
ffffffc05030a8b4:	00001797          	auipc	a5,0x1
ffffffc05030a8b8:	2e078793          	addi	a5,a5,736 # ffffffc05030bb94 <__FUNCTION__.1399+0xf4>
ffffffc05030a8bc:	97ba                	add	a5,a5,a4
ffffffc05030a8be:	8782                	jr	a5
ffffffc05030a8c0:	4785                	li	a5,1
ffffffc05030a8c2:	fef42423          	sw	a5,-24(s0)
ffffffc05030a8c6:	a295                	j	ffffffc05030aa2a <mini_vsnprintf+0x300>
ffffffc05030a8c8:	fe842783          	lw	a5,-24(s0)
ffffffc05030a8cc:	2781                	sext.w	a5,a5
ffffffc05030a8ce:	ef81                	bnez	a5,ffffffc05030a8e6 <mini_vsnprintf+0x1bc>
ffffffc05030a8d0:	f8043783          	ld	a5,-128(s0)
ffffffc05030a8d4:	00878713          	addi	a4,a5,8
ffffffc05030a8d8:	f8e43023          	sd	a4,-128(s0)
ffffffc05030a8dc:	439c                	lw	a5,0(a5)
ffffffc05030a8de:	02079513          	slli	a0,a5,0x20
ffffffc05030a8e2:	9101                	srli	a0,a0,0x20
ffffffc05030a8e4:	a809                	j	ffffffc05030a8f6 <mini_vsnprintf+0x1cc>
ffffffc05030a8e6:	f8043783          	ld	a5,-128(s0)
ffffffc05030a8ea:	00878713          	addi	a4,a5,8
ffffffc05030a8ee:	f8e43023          	sd	a4,-128(s0)
ffffffc05030a8f2:	639c                	ld	a5,0(a5)
ffffffc05030a8f4:	853e                	mv	a0,a5
ffffffc05030a8f6:	fef44783          	lbu	a5,-17(s0)
ffffffc05030a8fa:	0007871b          	sext.w	a4,a5
ffffffc05030a8fe:	07500793          	li	a5,117
ffffffc05030a902:	40f707b3          	sub	a5,a4,a5
ffffffc05030a906:	0017b793          	seqz	a5,a5
ffffffc05030a90a:	0ff7f793          	andi	a5,a5,255
ffffffc05030a90e:	0007869b          	sext.w	a3,a5
ffffffc05030a912:	fee44783          	lbu	a5,-18(s0)
ffffffc05030a916:	2781                	sext.w	a5,a5
ffffffc05030a918:	fa840713          	addi	a4,s0,-88
ffffffc05030a91c:	4601                	li	a2,0
ffffffc05030a91e:	45a9                	li	a1,10
ffffffc05030a920:	ac9ff0ef          	jal	ra,ffffffc05030a3e8 <mini_itoa>
ffffffc05030a924:	87aa                	mv	a5,a0
ffffffc05030a926:	fcf42e23          	sw	a5,-36(s0)
ffffffc05030a92a:	fc040693          	addi	a3,s0,-64
ffffffc05030a92e:	fdc42703          	lw	a4,-36(s0)
ffffffc05030a932:	fa840793          	addi	a5,s0,-88
ffffffc05030a936:	8636                	mv	a2,a3
ffffffc05030a938:	85ba                	mv	a1,a4
ffffffc05030a93a:	853e                	mv	a0,a5
ffffffc05030a93c:	d39ff0ef          	jal	ra,ffffffc05030a674 <_puts>
ffffffc05030a940:	fe042423          	sw	zero,-24(s0)
ffffffc05030a944:	a0dd                	j	ffffffc05030aa2a <mini_vsnprintf+0x300>
ffffffc05030a946:	fe842783          	lw	a5,-24(s0)
ffffffc05030a94a:	2781                	sext.w	a5,a5
ffffffc05030a94c:	ef81                	bnez	a5,ffffffc05030a964 <mini_vsnprintf+0x23a>
ffffffc05030a94e:	f8043783          	ld	a5,-128(s0)
ffffffc05030a952:	00878713          	addi	a4,a5,8
ffffffc05030a956:	f8e43023          	sd	a4,-128(s0)
ffffffc05030a95a:	439c                	lw	a5,0(a5)
ffffffc05030a95c:	02079513          	slli	a0,a5,0x20
ffffffc05030a960:	9101                	srli	a0,a0,0x20
ffffffc05030a962:	a809                	j	ffffffc05030a974 <mini_vsnprintf+0x24a>
ffffffc05030a964:	f8043783          	ld	a5,-128(s0)
ffffffc05030a968:	00878713          	addi	a4,a5,8
ffffffc05030a96c:	f8e43023          	sd	a4,-128(s0)
ffffffc05030a970:	639c                	ld	a5,0(a5)
ffffffc05030a972:	853e                	mv	a0,a5
ffffffc05030a974:	fef44783          	lbu	a5,-17(s0)
ffffffc05030a978:	0007871b          	sext.w	a4,a5
ffffffc05030a97c:	05800793          	li	a5,88
ffffffc05030a980:	40f707b3          	sub	a5,a4,a5
ffffffc05030a984:	0017b793          	seqz	a5,a5
ffffffc05030a988:	0ff7f793          	andi	a5,a5,255
ffffffc05030a98c:	0007861b          	sext.w	a2,a5
ffffffc05030a990:	fee44783          	lbu	a5,-18(s0)
ffffffc05030a994:	2781                	sext.w	a5,a5
ffffffc05030a996:	fa840713          	addi	a4,s0,-88
ffffffc05030a99a:	4685                	li	a3,1
ffffffc05030a99c:	45c1                	li	a1,16
ffffffc05030a99e:	a4bff0ef          	jal	ra,ffffffc05030a3e8 <mini_itoa>
ffffffc05030a9a2:	87aa                	mv	a5,a0
ffffffc05030a9a4:	fcf42e23          	sw	a5,-36(s0)
ffffffc05030a9a8:	fc040693          	addi	a3,s0,-64
ffffffc05030a9ac:	fdc42703          	lw	a4,-36(s0)
ffffffc05030a9b0:	fa840793          	addi	a5,s0,-88
ffffffc05030a9b4:	8636                	mv	a2,a3
ffffffc05030a9b6:	85ba                	mv	a1,a4
ffffffc05030a9b8:	853e                	mv	a0,a5
ffffffc05030a9ba:	cbbff0ef          	jal	ra,ffffffc05030a674 <_puts>
ffffffc05030a9be:	fe042423          	sw	zero,-24(s0)
ffffffc05030a9c2:	a0a5                	j	ffffffc05030aa2a <mini_vsnprintf+0x300>
ffffffc05030a9c4:	f8043783          	ld	a5,-128(s0)
ffffffc05030a9c8:	00878713          	addi	a4,a5,8
ffffffc05030a9cc:	f8e43023          	sd	a4,-128(s0)
ffffffc05030a9d0:	439c                	lw	a5,0(a5)
ffffffc05030a9d2:	0ff7f793          	andi	a5,a5,255
ffffffc05030a9d6:	2781                	sext.w	a5,a5
ffffffc05030a9d8:	fc040713          	addi	a4,s0,-64
ffffffc05030a9dc:	85ba                	mv	a1,a4
ffffffc05030a9de:	853e                	mv	a0,a5
ffffffc05030a9e0:	c2fff0ef          	jal	ra,ffffffc05030a60e <_putc>
ffffffc05030a9e4:	a099                	j	ffffffc05030aa2a <mini_vsnprintf+0x300>
ffffffc05030a9e6:	f8043783          	ld	a5,-128(s0)
ffffffc05030a9ea:	00878713          	addi	a4,a5,8
ffffffc05030a9ee:	f8e43023          	sd	a4,-128(s0)
ffffffc05030a9f2:	639c                	ld	a5,0(a5)
ffffffc05030a9f4:	fef43023          	sd	a5,-32(s0)
ffffffc05030a9f8:	fe043503          	ld	a0,-32(s0)
ffffffc05030a9fc:	9b7ff0ef          	jal	ra,ffffffc05030a3b2 <mini_strlen>
ffffffc05030aa00:	87aa                	mv	a5,a0
ffffffc05030aa02:	2781                	sext.w	a5,a5
ffffffc05030aa04:	fc040713          	addi	a4,s0,-64
ffffffc05030aa08:	863a                	mv	a2,a4
ffffffc05030aa0a:	85be                	mv	a1,a5
ffffffc05030aa0c:	fe043503          	ld	a0,-32(s0)
ffffffc05030aa10:	c65ff0ef          	jal	ra,ffffffc05030a674 <_puts>
ffffffc05030aa14:	a819                	j	ffffffc05030aa2a <mini_vsnprintf+0x300>
ffffffc05030aa16:	fef44783          	lbu	a5,-17(s0)
ffffffc05030aa1a:	2781                	sext.w	a5,a5
ffffffc05030aa1c:	fc040713          	addi	a4,s0,-64
ffffffc05030aa20:	85ba                	mv	a1,a4
ffffffc05030aa22:	853e                	mv	a0,a5
ffffffc05030aa24:	bebff0ef          	jal	ra,ffffffc05030a60e <_putc>
ffffffc05030aa28:	0001                	nop
ffffffc05030aa2a:	f8843783          	ld	a5,-120(s0)
ffffffc05030aa2e:	00178713          	addi	a4,a5,1
ffffffc05030aa32:	f8e43423          	sd	a4,-120(s0)
ffffffc05030aa36:	0007c783          	lbu	a5,0(a5)
ffffffc05030aa3a:	fef407a3          	sb	a5,-17(s0)
ffffffc05030aa3e:	fef44783          	lbu	a5,-17(s0)
ffffffc05030aa42:	0ff7f793          	andi	a5,a5,255
ffffffc05030aa46:	d0079ce3          	bnez	a5,ffffffc05030a75e <mini_vsnprintf+0x34>
ffffffc05030aa4a:	a031                	j	ffffffc05030aa56 <mini_vsnprintf+0x32c>
ffffffc05030aa4c:	0001                	nop
ffffffc05030aa4e:	a021                	j	ffffffc05030aa56 <mini_vsnprintf+0x32c>
ffffffc05030aa50:	0001                	nop
ffffffc05030aa52:	a011                	j	ffffffc05030aa56 <mini_vsnprintf+0x32c>
ffffffc05030aa54:	0001                	nop
ffffffc05030aa56:	fc843703          	ld	a4,-56(s0)
ffffffc05030aa5a:	fc043783          	ld	a5,-64(s0)
ffffffc05030aa5e:	40f707b3          	sub	a5,a4,a5
ffffffc05030aa62:	2781                	sext.w	a5,a5
ffffffc05030aa64:	853e                	mv	a0,a5
ffffffc05030aa66:	70e6                	ld	ra,120(sp)
ffffffc05030aa68:	7446                	ld	s0,112(sp)
ffffffc05030aa6a:	6109                	addi	sp,sp,128
ffffffc05030aa6c:	8082                	ret

ffffffc05030aa6e <_vprint>:
ffffffc05030aa6e:	7129                	addi	sp,sp,-320
ffffffc05030aa70:	fe06                	sd	ra,312(sp)
ffffffc05030aa72:	fa22                	sd	s0,304(sp)
ffffffc05030aa74:	0280                	addi	s0,sp,320
ffffffc05030aa76:	eca43c23          	sd	a0,-296(s0)
ffffffc05030aa7a:	ecb43823          	sd	a1,-304(s0)
ffffffc05030aa7e:	ecc43423          	sd	a2,-312(s0)
ffffffc05030aa82:	ed043783          	ld	a5,-304(s0)
ffffffc05030aa86:	fef43023          	sd	a5,-32(s0)
ffffffc05030aa8a:	fe043703          	ld	a4,-32(s0)
ffffffc05030aa8e:	ee040793          	addi	a5,s0,-288
ffffffc05030aa92:	86ba                	mv	a3,a4
ffffffc05030aa94:	ed843603          	ld	a2,-296(s0)
ffffffc05030aa98:	10000593          	li	a1,256
ffffffc05030aa9c:	853e                	mv	a0,a5
ffffffc05030aa9e:	c8dff0ef          	jal	ra,ffffffc05030a72a <mini_vsnprintf>
ffffffc05030aaa2:	87aa                	mv	a5,a0
ffffffc05030aaa4:	fef42623          	sw	a5,-20(s0)
ffffffc05030aaa8:	fec42783          	lw	a5,-20(s0)
ffffffc05030aaac:	ff040713          	addi	a4,s0,-16
ffffffc05030aab0:	97ba                	add	a5,a5,a4
ffffffc05030aab2:	ee078823          	sb	zero,-272(a5)
ffffffc05030aab6:	ee040793          	addi	a5,s0,-288
ffffffc05030aaba:	ec843703          	ld	a4,-312(s0)
ffffffc05030aabe:	853e                	mv	a0,a5
ffffffc05030aac0:	9702                	jalr	a4
ffffffc05030aac2:	fec42783          	lw	a5,-20(s0)
ffffffc05030aac6:	853e                	mv	a0,a5
ffffffc05030aac8:	70f2                	ld	ra,312(sp)
ffffffc05030aaca:	7452                	ld	s0,304(sp)
ffffffc05030aacc:	6131                	addi	sp,sp,320
ffffffc05030aace:	8082                	ret

ffffffc05030aad0 <port_write_wrapper>:
ffffffc05030aad0:	7179                	addi	sp,sp,-48
ffffffc05030aad2:	f406                	sd	ra,40(sp)
ffffffc05030aad4:	f022                	sd	s0,32(sp)
ffffffc05030aad6:	1800                	addi	s0,sp,48
ffffffc05030aad8:	fca43c23          	sd	a0,-40(s0)
ffffffc05030aadc:	dbcf50ef          	jal	ra,ffffffc050300098 <disable_preempt>
ffffffc05030aae0:	fd843503          	ld	a0,-40(s0)
ffffffc05030aae4:	fb2f50ef          	jal	ra,ffffffc050300296 <port_write>
ffffffc05030aae8:	fccf50ef          	jal	ra,ffffffc0503002b4 <get_current_cpu_id>
ffffffc05030aaec:	fea43023          	sd	a0,-32(s0)
ffffffc05030aaf0:	fd843783          	ld	a5,-40(s0)
ffffffc05030aaf4:	fef43423          	sd	a5,-24(s0)
ffffffc05030aaf8:	a841                	j	ffffffc05030ab88 <port_write_wrapper+0xb8>
ffffffc05030aafa:	fe843783          	ld	a5,-24(s0)
ffffffc05030aafe:	0007c783          	lbu	a5,0(a5)
ffffffc05030ab02:	873e                	mv	a4,a5
ffffffc05030ab04:	47a9                	li	a5,10
ffffffc05030ab06:	02f71b63          	bne	a4,a5,ffffffc05030ab3c <port_write_wrapper+0x6c>
ffffffc05030ab0a:	0003e717          	auipc	a4,0x3e
ffffffc05030ab0e:	a8e70713          	addi	a4,a4,-1394 # ffffffc050348598 <current_running>
ffffffc05030ab12:	fe043783          	ld	a5,-32(s0)
ffffffc05030ab16:	078e                	slli	a5,a5,0x3
ffffffc05030ab18:	97ba                	add	a5,a5,a4
ffffffc05030ab1a:	639c                	ld	a5,0(a5)
ffffffc05030ab1c:	4705                	li	a4,1
ffffffc05030ab1e:	cfb8                	sw	a4,88(a5)
ffffffc05030ab20:	0003e717          	auipc	a4,0x3e
ffffffc05030ab24:	a7870713          	addi	a4,a4,-1416 # ffffffc050348598 <current_running>
ffffffc05030ab28:	fe043783          	ld	a5,-32(s0)
ffffffc05030ab2c:	078e                	slli	a5,a5,0x3
ffffffc05030ab2e:	97ba                	add	a5,a5,a4
ffffffc05030ab30:	639c                	ld	a5,0(a5)
ffffffc05030ab32:	4ff8                	lw	a4,92(a5)
ffffffc05030ab34:	2705                	addiw	a4,a4,1
ffffffc05030ab36:	2701                	sext.w	a4,a4
ffffffc05030ab38:	cff8                	sw	a4,92(a5)
ffffffc05030ab3a:	a091                	j	ffffffc05030ab7e <port_write_wrapper+0xae>
ffffffc05030ab3c:	fe843783          	ld	a5,-24(s0)
ffffffc05030ab40:	0007c783          	lbu	a5,0(a5)
ffffffc05030ab44:	873e                	mv	a4,a5
ffffffc05030ab46:	47b5                	li	a5,13
ffffffc05030ab48:	00f71e63          	bne	a4,a5,ffffffc05030ab64 <port_write_wrapper+0x94>
ffffffc05030ab4c:	0003e717          	auipc	a4,0x3e
ffffffc05030ab50:	a4c70713          	addi	a4,a4,-1460 # ffffffc050348598 <current_running>
ffffffc05030ab54:	fe043783          	ld	a5,-32(s0)
ffffffc05030ab58:	078e                	slli	a5,a5,0x3
ffffffc05030ab5a:	97ba                	add	a5,a5,a4
ffffffc05030ab5c:	639c                	ld	a5,0(a5)
ffffffc05030ab5e:	4705                	li	a4,1
ffffffc05030ab60:	cfb8                	sw	a4,88(a5)
ffffffc05030ab62:	a831                	j	ffffffc05030ab7e <port_write_wrapper+0xae>
ffffffc05030ab64:	0003e717          	auipc	a4,0x3e
ffffffc05030ab68:	a3470713          	addi	a4,a4,-1484 # ffffffc050348598 <current_running>
ffffffc05030ab6c:	fe043783          	ld	a5,-32(s0)
ffffffc05030ab70:	078e                	slli	a5,a5,0x3
ffffffc05030ab72:	97ba                	add	a5,a5,a4
ffffffc05030ab74:	639c                	ld	a5,0(a5)
ffffffc05030ab76:	4fb8                	lw	a4,88(a5)
ffffffc05030ab78:	2705                	addiw	a4,a4,1
ffffffc05030ab7a:	2701                	sext.w	a4,a4
ffffffc05030ab7c:	cfb8                	sw	a4,88(a5)
ffffffc05030ab7e:	fe843783          	ld	a5,-24(s0)
ffffffc05030ab82:	0785                	addi	a5,a5,1
ffffffc05030ab84:	fef43423          	sd	a5,-24(s0)
ffffffc05030ab88:	fe843783          	ld	a5,-24(s0)
ffffffc05030ab8c:	0007c783          	lbu	a5,0(a5)
ffffffc05030ab90:	f7ad                	bnez	a5,ffffffc05030aafa <port_write_wrapper+0x2a>
ffffffc05030ab92:	d02f50ef          	jal	ra,ffffffc050300094 <enable_preempt>
ffffffc05030ab96:	0001                	nop
ffffffc05030ab98:	70a2                	ld	ra,40(sp)
ffffffc05030ab9a:	7402                	ld	s0,32(sp)
ffffffc05030ab9c:	6145                	addi	sp,sp,48
ffffffc05030ab9e:	8082                	ret

ffffffc05030aba0 <vprintk>:
ffffffc05030aba0:	1101                	addi	sp,sp,-32
ffffffc05030aba2:	ec06                	sd	ra,24(sp)
ffffffc05030aba4:	e822                	sd	s0,16(sp)
ffffffc05030aba6:	1000                	addi	s0,sp,32
ffffffc05030aba8:	fea43423          	sd	a0,-24(s0)
ffffffc05030abac:	feb43023          	sd	a1,-32(s0)
ffffffc05030abb0:	00000617          	auipc	a2,0x0
ffffffc05030abb4:	f2060613          	addi	a2,a2,-224 # ffffffc05030aad0 <port_write_wrapper>
ffffffc05030abb8:	fe043583          	ld	a1,-32(s0)
ffffffc05030abbc:	fe843503          	ld	a0,-24(s0)
ffffffc05030abc0:	eafff0ef          	jal	ra,ffffffc05030aa6e <_vprint>
ffffffc05030abc4:	87aa                	mv	a5,a0
ffffffc05030abc6:	853e                	mv	a0,a5
ffffffc05030abc8:	60e2                	ld	ra,24(sp)
ffffffc05030abca:	6442                	ld	s0,16(sp)
ffffffc05030abcc:	6105                	addi	sp,sp,32
ffffffc05030abce:	8082                	ret

ffffffc05030abd0 <printk>:
ffffffc05030abd0:	7159                	addi	sp,sp,-112
ffffffc05030abd2:	f406                	sd	ra,40(sp)
ffffffc05030abd4:	f022                	sd	s0,32(sp)
ffffffc05030abd6:	1800                	addi	s0,sp,48
ffffffc05030abd8:	fca43c23          	sd	a0,-40(s0)
ffffffc05030abdc:	e40c                	sd	a1,8(s0)
ffffffc05030abde:	e810                	sd	a2,16(s0)
ffffffc05030abe0:	ec14                	sd	a3,24(s0)
ffffffc05030abe2:	f018                	sd	a4,32(s0)
ffffffc05030abe4:	f41c                	sd	a5,40(s0)
ffffffc05030abe6:	03043823          	sd	a6,48(s0)
ffffffc05030abea:	03143c23          	sd	a7,56(s0)
ffffffc05030abee:	fe042623          	sw	zero,-20(s0)
ffffffc05030abf2:	04040793          	addi	a5,s0,64
ffffffc05030abf6:	fcf43823          	sd	a5,-48(s0)
ffffffc05030abfa:	fd043783          	ld	a5,-48(s0)
ffffffc05030abfe:	fc878793          	addi	a5,a5,-56
ffffffc05030ac02:	fef43023          	sd	a5,-32(s0)
ffffffc05030ac06:	fe043783          	ld	a5,-32(s0)
ffffffc05030ac0a:	85be                	mv	a1,a5
ffffffc05030ac0c:	fd843503          	ld	a0,-40(s0)
ffffffc05030ac10:	f91ff0ef          	jal	ra,ffffffc05030aba0 <vprintk>
ffffffc05030ac14:	87aa                	mv	a5,a0
ffffffc05030ac16:	fef42623          	sw	a5,-20(s0)
ffffffc05030ac1a:	fec42783          	lw	a5,-20(s0)
ffffffc05030ac1e:	853e                	mv	a0,a5
ffffffc05030ac20:	70a2                	ld	ra,40(sp)
ffffffc05030ac22:	7402                	ld	s0,32(sp)
ffffffc05030ac24:	6165                	addi	sp,sp,112
ffffffc05030ac26:	8082                	ret

ffffffc05030ac28 <vprints>:
ffffffc05030ac28:	1101                	addi	sp,sp,-32
ffffffc05030ac2a:	ec06                	sd	ra,24(sp)
ffffffc05030ac2c:	e822                	sd	s0,16(sp)
ffffffc05030ac2e:	1000                	addi	s0,sp,32
ffffffc05030ac30:	fea43423          	sd	a0,-24(s0)
ffffffc05030ac34:	feb43023          	sd	a1,-32(s0)
ffffffc05030ac38:	ffff7617          	auipc	a2,0xffff7
ffffffc05030ac3c:	c1c60613          	addi	a2,a2,-996 # ffffffc050301854 <screen_write>
ffffffc05030ac40:	fe043583          	ld	a1,-32(s0)
ffffffc05030ac44:	fe843503          	ld	a0,-24(s0)
ffffffc05030ac48:	e27ff0ef          	jal	ra,ffffffc05030aa6e <_vprint>
ffffffc05030ac4c:	87aa                	mv	a5,a0
ffffffc05030ac4e:	853e                	mv	a0,a5
ffffffc05030ac50:	60e2                	ld	ra,24(sp)
ffffffc05030ac52:	6442                	ld	s0,16(sp)
ffffffc05030ac54:	6105                	addi	sp,sp,32
ffffffc05030ac56:	8082                	ret

ffffffc05030ac58 <prints>:
ffffffc05030ac58:	7159                	addi	sp,sp,-112
ffffffc05030ac5a:	f406                	sd	ra,40(sp)
ffffffc05030ac5c:	f022                	sd	s0,32(sp)
ffffffc05030ac5e:	1800                	addi	s0,sp,48
ffffffc05030ac60:	fca43c23          	sd	a0,-40(s0)
ffffffc05030ac64:	e40c                	sd	a1,8(s0)
ffffffc05030ac66:	e810                	sd	a2,16(s0)
ffffffc05030ac68:	ec14                	sd	a3,24(s0)
ffffffc05030ac6a:	f018                	sd	a4,32(s0)
ffffffc05030ac6c:	f41c                	sd	a5,40(s0)
ffffffc05030ac6e:	03043823          	sd	a6,48(s0)
ffffffc05030ac72:	03143c23          	sd	a7,56(s0)
ffffffc05030ac76:	fe042623          	sw	zero,-20(s0)
ffffffc05030ac7a:	04040793          	addi	a5,s0,64
ffffffc05030ac7e:	fcf43823          	sd	a5,-48(s0)
ffffffc05030ac82:	fd043783          	ld	a5,-48(s0)
ffffffc05030ac86:	fc878793          	addi	a5,a5,-56
ffffffc05030ac8a:	fef43023          	sd	a5,-32(s0)
ffffffc05030ac8e:	fe043783          	ld	a5,-32(s0)
ffffffc05030ac92:	85be                	mv	a1,a5
ffffffc05030ac94:	fd843503          	ld	a0,-40(s0)
ffffffc05030ac98:	f91ff0ef          	jal	ra,ffffffc05030ac28 <vprints>
ffffffc05030ac9c:	87aa                	mv	a5,a0
ffffffc05030ac9e:	fef42623          	sw	a5,-20(s0)
ffffffc05030aca2:	fec42783          	lw	a5,-20(s0)
ffffffc05030aca6:	853e                	mv	a0,a5
ffffffc05030aca8:	70a2                	ld	ra,40(sp)
ffffffc05030acaa:	7402                	ld	s0,32(sp)
ffffffc05030acac:	6165                	addi	sp,sp,112
ffffffc05030acae:	8082                	ret

ffffffc05030acb0 <get_elf_file>:
ffffffc05030acb0:	7139                	addi	sp,sp,-64
ffffffc05030acb2:	fc06                	sd	ra,56(sp)
ffffffc05030acb4:	f822                	sd	s0,48(sp)
ffffffc05030acb6:	0080                	addi	s0,sp,64
ffffffc05030acb8:	fca43c23          	sd	a0,-40(s0)
ffffffc05030acbc:	fcb43823          	sd	a1,-48(s0)
ffffffc05030acc0:	fcc43423          	sd	a2,-56(s0)
ffffffc05030acc4:	fe042623          	sw	zero,-20(s0)
ffffffc05030acc8:	a895                	j	ffffffc05030ad3c <get_elf_file+0x8c>
ffffffc05030acca:	0002c697          	auipc	a3,0x2c
ffffffc05030acce:	7ae68693          	addi	a3,a3,1966 # ffffffc050337478 <elf_files>
ffffffc05030acd2:	fec42703          	lw	a4,-20(s0)
ffffffc05030acd6:	87ba                	mv	a5,a4
ffffffc05030acd8:	0786                	slli	a5,a5,0x1
ffffffc05030acda:	97ba                	add	a5,a5,a4
ffffffc05030acdc:	078e                	slli	a5,a5,0x3
ffffffc05030acde:	97b6                	add	a5,a5,a3
ffffffc05030ace0:	639c                	ld	a5,0(a5)
ffffffc05030ace2:	fd843583          	ld	a1,-40(s0)
ffffffc05030ace6:	853e                	mv	a0,a5
ffffffc05030ace8:	d7aff0ef          	jal	ra,ffffffc05030a262 <strcmp>
ffffffc05030acec:	87aa                	mv	a5,a0
ffffffc05030acee:	e3b1                	bnez	a5,ffffffc05030ad32 <get_elf_file+0x82>
ffffffc05030acf0:	0002c697          	auipc	a3,0x2c
ffffffc05030acf4:	78868693          	addi	a3,a3,1928 # ffffffc050337478 <elf_files>
ffffffc05030acf8:	fec42703          	lw	a4,-20(s0)
ffffffc05030acfc:	87ba                	mv	a5,a4
ffffffc05030acfe:	0786                	slli	a5,a5,0x1
ffffffc05030ad00:	97ba                	add	a5,a5,a4
ffffffc05030ad02:	078e                	slli	a5,a5,0x3
ffffffc05030ad04:	97b6                	add	a5,a5,a3
ffffffc05030ad06:	6798                	ld	a4,8(a5)
ffffffc05030ad08:	fd043783          	ld	a5,-48(s0)
ffffffc05030ad0c:	e398                	sd	a4,0(a5)
ffffffc05030ad0e:	0002c697          	auipc	a3,0x2c
ffffffc05030ad12:	76a68693          	addi	a3,a3,1898 # ffffffc050337478 <elf_files>
ffffffc05030ad16:	fec42703          	lw	a4,-20(s0)
ffffffc05030ad1a:	87ba                	mv	a5,a4
ffffffc05030ad1c:	0786                	slli	a5,a5,0x1
ffffffc05030ad1e:	97ba                	add	a5,a5,a4
ffffffc05030ad20:	078e                	slli	a5,a5,0x3
ffffffc05030ad22:	97b6                	add	a5,a5,a3
ffffffc05030ad24:	6b9c                	ld	a5,16(a5)
ffffffc05030ad26:	4398                	lw	a4,0(a5)
ffffffc05030ad28:	fc843783          	ld	a5,-56(s0)
ffffffc05030ad2c:	c398                	sw	a4,0(a5)
ffffffc05030ad2e:	4785                	li	a5,1
ffffffc05030ad30:	a831                	j	ffffffc05030ad4c <get_elf_file+0x9c>
ffffffc05030ad32:	fec42783          	lw	a5,-20(s0)
ffffffc05030ad36:	2785                	addiw	a5,a5,1
ffffffc05030ad38:	fef42623          	sw	a5,-20(s0)
ffffffc05030ad3c:	fec42783          	lw	a5,-20(s0)
ffffffc05030ad40:	0007871b          	sext.w	a4,a5
ffffffc05030ad44:	478d                	li	a5,3
ffffffc05030ad46:	f8e7d2e3          	bge	a5,a4,ffffffc05030acca <get_elf_file+0x1a>
ffffffc05030ad4a:	4781                	li	a5,0
ffffffc05030ad4c:	853e                	mv	a0,a5
ffffffc05030ad4e:	70e2                	ld	ra,56(sp)
ffffffc05030ad50:	7442                	ld	s0,48(sp)
ffffffc05030ad52:	6121                	addi	sp,sp,64
ffffffc05030ad54:	8082                	ret
